---
triple:          'x86_64-apple-darwin'
binary-path:     prog
relocations:
  - { offsetInCU: 0x3171, offset: 0x3171, size: 0x8, addend: 0x0, symName: __ZNSt3__119__debug_db_insert_cB7v160006INS_12basic_stringIcNS_11char_traitsIcEENS_9allocatorIcEEEEEEvPT_, symObjAddr: 0x470, symBinAddr: 0x100001810, symSize: 0x10 }
  - { offsetInCU: 0x57A8, offset: 0x57A8, size: 0x8, addend: 0x0, symName: __ZN5AssetC2Ei, symObjAddr: 0x0, symBinAddr: 0x1000013A0, symSize: 0x70 }
  - { offsetInCU: 0x57E0, offset: 0x57E0, size: 0x8, addend: 0x0, symName: __ZNSt3__112basic_stringIcNS_11char_traitsIcEENS_9allocatorIcEEEC1B7v160006Ev, symObjAddr: 0x70, symBinAddr: 0x100001410, symSize: 0x20 }
  - { offsetInCU: 0x5808, offset: 0x5808, size: 0x8, addend: 0x0, symName: __ZN5AssetC1Ei, symObjAddr: 0x90, symBinAddr: 0x100001430, symSize: 0x30 }
  - { offsetInCU: 0x5840, offset: 0x5840, size: 0x8, addend: 0x0, symName: __ZN5Asset14loadSphereDataENSt3__112basic_stringIcNS0_11char_traitsIcEENS0_9allocatorIcEEEES6_S6_N3glm3vecILi3EfLNS7_9qualifierE0EEESA_fSA_, symObjAddr: 0xC0, symBinAddr: 0x100001460, symSize: 0x110 }
  - { offsetInCU: 0x58D1, offset: 0x58D1, size: 0x8, addend: 0x0, symName: __ZN5Asset12loadQuadDataENSt3__112basic_stringIcNS0_11char_traitsIcEENS0_9allocatorIcEEEES6_S6_N3glm3vecILi3EfLNS7_9qualifierE0EEESA_fSA_, symObjAddr: 0x1D0, symBinAddr: 0x100001570, symSize: 0x110 }
  - { offsetInCU: 0x5962, offset: 0x5962, size: 0x8, addend: 0x0, symName: __ZN5Asset12getAssetTypeEv, symObjAddr: 0x2E0, symBinAddr: 0x100001680, symSize: 0x20 }
  - { offsetInCU: 0x5988, offset: 0x5988, size: 0x8, addend: 0x0, symName: __ZN5Asset7getNameEv, symObjAddr: 0x300, symBinAddr: 0x1000016A0, symSize: 0x30 }
  - { offsetInCU: 0x59AE, offset: 0x59AE, size: 0x8, addend: 0x0, symName: __ZN5Asset14getTextureFileEv, symObjAddr: 0x330, symBinAddr: 0x1000016D0, symSize: 0x30 }
  - { offsetInCU: 0x59D4, offset: 0x59D4, size: 0x8, addend: 0x0, symName: __ZN5AssetD2Ev, symObjAddr: 0x360, symBinAddr: 0x100001700, symSize: 0x60 }
  - { offsetInCU: 0x59FE, offset: 0x59FE, size: 0x8, addend: 0x0, symName: __ZN5AssetD1Ev, symObjAddr: 0x3C0, symBinAddr: 0x100001760, symSize: 0x20 }
  - { offsetInCU: 0x5A28, offset: 0x5A28, size: 0x8, addend: 0x0, symName: __ZNSt3__112basic_stringIcNS_11char_traitsIcEENS_9allocatorIcEEEC2B7v160006Ev, symObjAddr: 0x3E0, symBinAddr: 0x100001780, symSize: 0x50 }
  - { offsetInCU: 0x5A55, offset: 0x5A55, size: 0x8, addend: 0x0, symName: __ZNSt3__117__compressed_pairINS_12basic_stringIcNS_11char_traitsIcEENS_9allocatorIcEEE5__repES5_EC1B7v160006INS_18__default_init_tagESA_EEOT_OT0_, symObjAddr: 0x430, symBinAddr: 0x1000017D0, symSize: 0x30 }
  - { offsetInCU: 0x5AAB, offset: 0x5AAB, size: 0x8, addend: 0x0, symName: __ZNSt3__112basic_stringIcNS_11char_traitsIcEENS_9allocatorIcEEE14__default_initB7v160006Ev, symObjAddr: 0x480, symBinAddr: 0x100001820, symSize: 0x50 }
  - { offsetInCU: 0x5ACF, offset: 0x5ACF, size: 0x8, addend: 0x0, symName: __ZNSt3__117__compressed_pairINS_12basic_stringIcNS_11char_traitsIcEENS_9allocatorIcEEE5__repES5_EC2B7v160006INS_18__default_init_tagESA_EEOT_OT0_, symObjAddr: 0x4D0, symBinAddr: 0x100001870, symSize: 0x30 }
  - { offsetInCU: 0x5B25, offset: 0x5B25, size: 0x8, addend: 0x0, symName: __ZNSt3__122__compressed_pair_elemINS_12basic_stringIcNS_11char_traitsIcEENS_9allocatorIcEEE5__repELi0ELb0EEC2B7v160006ENS_18__default_init_tagE, symObjAddr: 0x500, symBinAddr: 0x1000018A0, symSize: 0x10 }
  - { offsetInCU: 0x5B57, offset: 0x5B57, size: 0x8, addend: 0x0, symName: __ZNSt3__122__compressed_pair_elemINS_9allocatorIcEELi1ELb1EEC2B7v160006ENS_18__default_init_tagE, symObjAddr: 0x510, symBinAddr: 0x1000018B0, symSize: 0x20 }
  - { offsetInCU: 0x5B89, offset: 0x5B89, size: 0x8, addend: 0x0, symName: __ZNSt3__19allocatorIcEC2B7v160006Ev, symObjAddr: 0x530, symBinAddr: 0x1000018D0, symSize: 0x20 }
  - { offsetInCU: 0x5BB1, offset: 0x5BB1, size: 0x8, addend: 0x0, symName: __ZNSt3__116__non_trivial_ifILb1ENS_9allocatorIcEEEC2B7v160006Ev, symObjAddr: 0x550, symBinAddr: 0x1000018F0, symSize: 0x10 }
  - { offsetInCU: 0x5BD9, offset: 0x5BD9, size: 0x8, addend: 0x0, symName: __ZNSt3__117__compressed_pairINS_12basic_stringIcNS_11char_traitsIcEENS_9allocatorIcEEE5__repES5_E5firstB7v160006Ev, symObjAddr: 0x560, symBinAddr: 0x100001900, symSize: 0x20 }
  - { offsetInCU: 0x5BFD, offset: 0x5BFD, size: 0x8, addend: 0x0, symName: __ZNSt3__122__compressed_pair_elemINS_12basic_stringIcNS_11char_traitsIcEENS_9allocatorIcEEE5__repELi0ELb0EE5__getB7v160006Ev, symObjAddr: 0x580, symBinAddr: 0x100001920, symSize: 0xE }
  - { offsetInCU: 0x52, offset: 0x5C87, size: 0x8, addend: 0x0, symName: _assets, symObjAddr: 0x2BB20, symBinAddr: 0x100030030, symSize: 0x0 }
  - { offsetInCU: 0x4132, offset: 0x9D67, size: 0x8, addend: 0x0, symName: __ZNSt3__124__put_character_sequenceB7v160006IcNS_11char_traitsIcEEEERNS_13basic_ostreamIT_T0_EES7_PKS4_m, symObjAddr: 0x14E0, symBinAddr: 0x100002D30, symSize: 0x1F0 }
  - { offsetInCU: 0x5F85, offset: 0xBBBA, size: 0x8, addend: 0x0, symName: __ZNSt3__1lsB7v160006INS_11char_traitsIcEEEERNS_13basic_ostreamIcT_EES6_PKc, symObjAddr: 0xA10, symBinAddr: 0x100002340, symSize: 0x40 }
  - { offsetInCU: 0x5FCB, offset: 0xBC00, size: 0x8, addend: 0x0, symName: __ZNSt3__14endlB7v160006IcNS_11char_traitsIcEEEERNS_13basic_ostreamIT_T0_EES7_, symObjAddr: 0xA70, symBinAddr: 0x1000023A0, symSize: 0x50 }
  - { offsetInCU: 0x600B, offset: 0xBC40, size: 0x8, addend: 0x0, symName: __ZNSt3__118__constexpr_strlenB7v160006EPKc, symObjAddr: 0xDD0, symBinAddr: 0x100002630, symSize: 0x20 }
  - { offsetInCU: 0x6037, offset: 0xBC6C, size: 0x8, addend: 0x0, symName: __ZNSt3__119__debug_db_insert_cB7v160006INS_6vectorIP5AssetNS_9allocatorIS3_EEEEEEvPT_, symObjAddr: 0xE90, symBinAddr: 0x1000026E0, symSize: 0x10 }
  - { offsetInCU: 0x6068, offset: 0xBC9D, size: 0x8, addend: 0x0, symName: __ZNSt3__118__debug_db_erase_cB7v160006INS_6vectorIP5AssetNS_9allocatorIS3_EEEEEEvPT_, symObjAddr: 0x1120, symBinAddr: 0x100002970, symSize: 0x10 }
  - { offsetInCU: 0x6099, offset: 0xBCCE, size: 0x8, addend: 0x0, symName: __ZNSt3__112__to_addressB7v160006IP5AssetEEPT_S4_, symObjAddr: 0x1230, symBinAddr: 0x100002A80, symSize: 0x10 }
  - { offsetInCU: 0x60CE, offset: 0xBD03, size: 0x8, addend: 0x0, symName: __ZNSt3__119__libcpp_deallocateB7v160006EPvmm, symObjAddr: 0x1340, symBinAddr: 0x100002B90, symSize: 0x60 }
  - { offsetInCU: 0x6135, offset: 0xBD6A, size: 0x8, addend: 0x0, symName: __ZNSt3__124__is_overaligned_for_newB7v160006Em, symObjAddr: 0x13A0, symBinAddr: 0x100002BF0, symSize: 0x20 }
  - { offsetInCU: 0x6163, offset: 0xBD98, size: 0x8, addend: 0x0, symName: __ZNSt3__127__do_deallocate_handle_sizeB7v160006IJSt11align_val_tEEEvPvmDpT_, symObjAddr: 0x13C0, symBinAddr: 0x100002C10, symSize: 0x30 }
  - { offsetInCU: 0x61B7, offset: 0xBDEC, size: 0x8, addend: 0x0, symName: __ZNSt3__127__do_deallocate_handle_sizeB7v160006IJEEEvPvmDpT_, symObjAddr: 0x13F0, symBinAddr: 0x100002C40, symSize: 0x20 }
  - { offsetInCU: 0x61F7, offset: 0xBE2C, size: 0x8, addend: 0x0, symName: __ZNSt3__124__libcpp_operator_deleteB7v160006IJPvSt11align_val_tEEEvDpT_, symObjAddr: 0x1410, symBinAddr: 0x100002C60, symSize: 0x30 }
  - { offsetInCU: 0x6241, offset: 0xBE76, size: 0x8, addend: 0x0, symName: __ZNSt3__124__libcpp_operator_deleteB7v160006IJPvEEEvDpT_, symObjAddr: 0x1440, symBinAddr: 0x100002C90, symSize: 0x20 }
  - { offsetInCU: 0x6277, offset: 0xBEAC, size: 0x8, addend: 0x0, symName: __ZNSt3__116__pad_and_outputB7v160006IcNS_11char_traitsIcEEEENS_19ostreambuf_iteratorIT_T0_EES6_PKS4_S8_S8_RNS_8ios_baseES4_, symObjAddr: 0x16F0, symBinAddr: 0x100002F40, symSize: 0x220 }
  - { offsetInCU: 0x6347, offset: 0xBF7C, size: 0x8, addend: 0x0, symName: __ZNSt3__112__to_addressB7v160006IcEEPT_S2_, symObjAddr: 0x1B50, symBinAddr: 0x1000033A0, symSize: 0x10 }
  - { offsetInCU: 0x63AF, offset: 0xBFE4, size: 0x8, addend: 0x0, symName: __ZNSt3__19use_facetB7v160006INS_5ctypeIcEEEERKT_RKNS_6localeE, symObjAddr: 0x1DE0, symBinAddr: 0x100003600, symSize: 0x30 }
  - { offsetInCU: 0x687E, offset: 0xC4B3, size: 0x8, addend: 0x0, symName: __ZNSt3__13maxB7v160006ImEERKT_S3_S3_, symObjAddr: 0x23D0, symBinAddr: 0x100003BF0, symSize: 0x30 }
  - { offsetInCU: 0x68C1, offset: 0xC4F6, size: 0x8, addend: 0x0, symName: __ZNSt3__13minB7v160006ImEERKT_S3_S3_, symObjAddr: 0x2400, symBinAddr: 0x100003C20, symSize: 0x30 }
  - { offsetInCU: 0x6AEE, offset: 0xC723, size: 0x8, addend: 0x0, symName: __ZNSt3__13minB7v160006ImNS_6__lessImmEEEERKT_S5_S5_T0_, symObjAddr: 0x2480, symBinAddr: 0x100003CA0, symSize: 0x50 }
  - { offsetInCU: 0x6B83, offset: 0xC7B8, size: 0x8, addend: 0x0, symName: __ZNSt3__120__throw_length_errorB7v160006EPKc, symObjAddr: 0x2560, symBinAddr: 0x100003D80, symSize: 0x70 }
  - { offsetInCU: 0x6BAC, offset: 0xC7E1, size: 0x8, addend: 0x0, symName: __ZNSt3__13maxB7v160006ImNS_6__lessImmEEEERKT_S5_S5_T0_, symObjAddr: 0x2640, symBinAddr: 0x100003E60, symSize: 0x50 }
  - { offsetInCU: 0x6C06, offset: 0xC83B, size: 0x8, addend: 0x0, symName: __ZNSt3__119__allocate_at_leastB7v160006INS_9allocatorIP5AssetEEEENS_19__allocation_resultINS_16allocator_traitsIT_E7pointerEEERS7_m, symObjAddr: 0x2790, symBinAddr: 0x100003FB0, symSize: 0x40 }
  - { offsetInCU: 0x6C49, offset: 0xC87E, size: 0x8, addend: 0x0, symName: __ZNSt3__117__libcpp_allocateB7v160006Emm, symObjAddr: 0x2900, symBinAddr: 0x100004120, symSize: 0x60 }
  - { offsetInCU: 0x6CA4, offset: 0xC8D9, size: 0x8, addend: 0x0, symName: __ZNSt3__121__libcpp_operator_newB7v160006IJmSt11align_val_tEEEPvDpT_, symObjAddr: 0x2960, symBinAddr: 0x100004180, symSize: 0x30 }
  - { offsetInCU: 0x6CF1, offset: 0xC926, size: 0x8, addend: 0x0, symName: __ZNSt3__121__libcpp_operator_newB7v160006IJmEEEPvDpT_, symObjAddr: 0x2990, symBinAddr: 0x1000041B0, symSize: 0x20 }
  - { offsetInCU: 0x6D2A, offset: 0xC95F, size: 0x8, addend: 0x0, symName: __ZNSt3__142__uninitialized_allocator_move_if_noexceptB7v160006INS_9allocatorIP5AssetEENS_16reverse_iteratorIPS3_EES7_S3_vEET1_RT_T0_SB_S8_, symObjAddr: 0x2A10, symBinAddr: 0x100004230, symSize: 0x70 }
  - { offsetInCU: 0x6DA7, offset: 0xC9DC, size: 0x8, addend: 0x0, symName: __ZNSt3__14swapB7v160006IPP5AssetEENS_9enable_ifIXaasr21is_move_constructibleIT_EE5valuesr18is_move_assignableIS5_EE5valueEvE4typeERS5_S8_, symObjAddr: 0x2AD0, symBinAddr: 0x1000042F0, symSize: 0x40 }
  - { offsetInCU: 0x6DF9, offset: 0xCA2E, size: 0x8, addend: 0x0, symName: __ZNSt3__125__debug_db_invalidate_allB7v160006INS_6vectorIP5AssetNS_9allocatorIS3_EEEEEEvPT_, symObjAddr: 0x2BC0, symBinAddr: 0x1000043E0, symSize: 0x10 }
  - { offsetInCU: 0x6E2A, offset: 0xCA5F, size: 0x8, addend: 0x0, symName: __ZNSt3__14moveB7v160006INS_16reverse_iteratorIPP5AssetEES5_EET0_T_S7_S6_, symObjAddr: 0x2BD0, symBinAddr: 0x1000043F0, symSize: 0x80 }
  - { offsetInCU: 0x6E84, offset: 0xCAB9, size: 0x8, addend: 0x0, symName: __ZNSt3__16__moveB7v160006INS_17_ClassicAlgPolicyENS_16reverse_iteratorIPP5AssetEES6_S6_EENS_4pairIT0_T2_EES8_T1_S9_, symObjAddr: 0x2C50, symBinAddr: 0x100004470, symSize: 0x90 }
  - { offsetInCU: 0x6EF0, offset: 0xCB25, size: 0x8, addend: 0x0, symName: __ZNSt3__123__dispatch_copy_or_moveB7v160006INS_17_ClassicAlgPolicyENS_11__move_loopIS1_EENS_14__move_trivialENS_16reverse_iteratorIPP5AssetEES9_S9_EENS_4pairIT2_T4_EESB_T3_SC_, symObjAddr: 0x2CE0, symBinAddr: 0x100004500, symSize: 0x90 }
  - { offsetInCU: 0x6F6E, offset: 0xCBA3, size: 0x8, addend: 0x0, symName: __ZNSt3__121__unwrap_and_dispatchB7v160006INS_10__overloadINS_11__move_loopINS_17_ClassicAlgPolicyEEENS_14__move_trivialEEENS_16reverse_iteratorIPP5AssetEESB_SB_Li0EEENS_4pairIT0_T2_EESD_T1_SE_, symObjAddr: 0x2D70, symBinAddr: 0x100004590, symSize: 0x210 }
  - { offsetInCU: 0x7000, offset: 0xCC35, size: 0x8, addend: 0x0, symName: __ZNSt3__114__unwrap_rangeB7v160006INS_16reverse_iteratorIPP5AssetEES5_EENS_4pairIT0_S7_EET_S9_, symObjAddr: 0x2F80, symBinAddr: 0x1000047A0, symSize: 0x90 }
  - { offsetInCU: 0x717C, offset: 0xCDB1, size: 0x8, addend: 0x0, symName: __ZNSt3__113__unwrap_iterB7v160006INS_16reverse_iteratorIPP5AssetEENS_18__unwrap_iter_implIS5_Lb0EEELi0EEEDTclsrT0_8__unwrapclsr3stdE7declvalIT_EEEES9_, symObjAddr: 0x30B0, symBinAddr: 0x1000048D0, symSize: 0x40 }
  - { offsetInCU: 0x71C1, offset: 0xCDF6, size: 0x8, addend: 0x0, symName: __ZNSt3__19make_pairB7v160006INS_16reverse_iteratorIPP5AssetEES5_EENS_4pairINS_18__unwrap_ref_decayIT_E4typeENS7_IT0_E4typeEEEOS8_OSB_, symObjAddr: 0x30F0, symBinAddr: 0x100004910, symSize: 0x30 }
  - { offsetInCU: 0x7210, offset: 0xCE45, size: 0x8, addend: 0x0, symName: __ZNSt3__114__rewrap_rangeB7v160006INS_16reverse_iteratorIPP5AssetEES5_EET_S6_T0_, symObjAddr: 0x3120, symBinAddr: 0x100004940, symSize: 0x60 }
  - { offsetInCU: 0x725C, offset: 0xCE91, size: 0x8, addend: 0x0, symName: __ZNSt3__113__rewrap_iterB7v160006INS_16reverse_iteratorIPP5AssetEES5_NS_18__unwrap_iter_implIS5_Lb0EEEEET_S8_T0_, symObjAddr: 0x3180, symBinAddr: 0x1000049A0, symSize: 0x70 }
  - { offsetInCU: 0x72B1, offset: 0xCEE6, size: 0x8, addend: 0x0, symName: __ZNSt3__1neB7v160006IPP5AssetS3_EEbRKNS_16reverse_iteratorIT_EERKNS4_IT0_EE, symObjAddr: 0x31F0, symBinAddr: 0x100004A10, symSize: 0x40 }
  - { offsetInCU: 0x75C5, offset: 0xD1FA, size: 0x8, addend: 0x0, symName: __ZSt28__throw_bad_array_new_lengthB7v160006v, symObjAddr: 0x28C0, symBinAddr: 0x1000040E0, symSize: 0x40 }
  - { offsetInCU: 0x7CD9, offset: 0xD90E, size: 0x8, addend: 0x0, symName: __ZNSt3__16vectorIP5AssetNS_9allocatorIS2_EEE26__swap_out_circular_bufferERNS_14__split_bufferIS2_RS4_EE, symObjAddr: 0x2200, symBinAddr: 0x100003A20, symSize: 0x130 }
  - { offsetInCU: 0x9A8B, offset: 0xF6C0, size: 0x8, addend: 0x0, symName: __ZNSt3__112basic_stringIcNS_11char_traitsIcEENS_9allocatorIcEEEC1B7v160006IDnEEPKc, symObjAddr: 0x0, symBinAddr: 0x100001930, symSize: 0x30 }
  - { offsetInCU: 0x9B2F, offset: 0xF764, size: 0x8, addend: 0x0, symName: __ZN12AssetLibraryC2Ev, symObjAddr: 0x30, symBinAddr: 0x100001960, symSize: 0x9C0 }
  - { offsetInCU: 0x9BA4, offset: 0xF7D9, size: 0x8, addend: 0x0, symName: __ZNSt3__16vectorIP5AssetNS_9allocatorIS2_EEEC1B7v160006Ev, symObjAddr: 0x9F0, symBinAddr: 0x100002320, symSize: 0x20 }
  - { offsetInCU: 0x9BCC, offset: 0xF801, size: 0x8, addend: 0x0, symName: __ZNSt3__113basic_ostreamIcNS_11char_traitsIcEEElsB7v160006EPFRS3_S4_E, symObjAddr: 0xA50, symBinAddr: 0x100002380, symSize: 0x20 }
  - { offsetInCU: 0x9BFE, offset: 0xF833, size: 0x8, addend: 0x0, symName: __ZN3glm3vecILi3EfLNS_9qualifierE0EEC1Efff, symObjAddr: 0xAC0, symBinAddr: 0x1000023F0, symSize: 0x40 }
  - { offsetInCU: 0x9C52, offset: 0xF887, size: 0x8, addend: 0x0, symName: __ZNSt3__16vectorIP5AssetNS_9allocatorIS2_EEE9push_backB7v160006ERKS2_, symObjAddr: 0xB00, symBinAddr: 0x100002430, symSize: 0x60 }
  - { offsetInCU: 0x9C88, offset: 0xF8BD, size: 0x8, addend: 0x0, symName: __ZNSt3__16vectorIP5AssetNS_9allocatorIS2_EEED1B7v160006Ev, symObjAddr: 0xB60, symBinAddr: 0x100002490, symSize: 0x20 }
  - { offsetInCU: 0x9CB0, offset: 0xF8E5, size: 0x8, addend: 0x0, symName: __ZN12AssetLibraryC1Ev, symObjAddr: 0xB80, symBinAddr: 0x1000024B0, symSize: 0x20 }
  - { offsetInCU: 0x9CDA, offset: 0xF90F, size: 0x8, addend: 0x0, symName: __ZN12AssetLibrary8getAssetEi, symObjAddr: 0xBA0, symBinAddr: 0x1000024D0, symSize: 0x30 }
  - { offsetInCU: 0x9D0E, offset: 0xF943, size: 0x8, addend: 0x0, symName: __ZNSt3__16vectorIP5AssetNS_9allocatorIS2_EEEixB7v160006Em, symObjAddr: 0xBD0, symBinAddr: 0x100002500, symSize: 0x20 }
  - { offsetInCU: 0x9D44, offset: 0xF979, size: 0x8, addend: 0x0, symName: __ZN12AssetLibraryD2Ev, symObjAddr: 0xBF0, symBinAddr: 0x100002520, symSize: 0x20 }
  - { offsetInCU: 0x9D6E, offset: 0xF9A3, size: 0x8, addend: 0x0, symName: __ZN12AssetLibraryD1Ev, symObjAddr: 0xC10, symBinAddr: 0x100002540, symSize: 0x20 }
  - { offsetInCU: 0x9D98, offset: 0xF9CD, size: 0x8, addend: 0x0, symName: __ZN3glm3vecILi3EfLNS_9qualifierE0EEC2Efff, symObjAddr: 0xC30, symBinAddr: 0x100002560, symSize: 0x40 }
  - { offsetInCU: 0x9DEC, offset: 0xFA21, size: 0x8, addend: 0x0, symName: __ZNSt3__112basic_stringIcNS_11char_traitsIcEENS_9allocatorIcEEEC2B7v160006IDnEEPKc, symObjAddr: 0xC70, symBinAddr: 0x1000025A0, symSize: 0x60 }
  - { offsetInCU: 0x9E2D, offset: 0xFA62, size: 0x8, addend: 0x0, symName: __ZNSt3__111char_traitsIcE6lengthEPKc, symObjAddr: 0xD00, symBinAddr: 0x100002600, symSize: 0x30 }
  - { offsetInCU: 0x9E50, offset: 0xFA85, size: 0x8, addend: 0x0, symName: __ZNSt3__16vectorIP5AssetNS_9allocatorIS2_EEEC2B7v160006Ev, symObjAddr: 0xE00, symBinAddr: 0x100002650, symSize: 0x60 }
  - { offsetInCU: 0x9E7D, offset: 0xFAB2, size: 0x8, addend: 0x0, symName: __ZNSt3__117__compressed_pairIPP5AssetNS_9allocatorIS2_EEEC1B7v160006IDnNS_18__default_init_tagEEEOT_OT0_, symObjAddr: 0xE60, symBinAddr: 0x1000026B0, symSize: 0x30 }
  - { offsetInCU: 0x9ED3, offset: 0xFB08, size: 0x8, addend: 0x0, symName: __ZNSt3__117__compressed_pairIPP5AssetNS_9allocatorIS2_EEEC2B7v160006IDnNS_18__default_init_tagEEEOT_OT0_, symObjAddr: 0xEA0, symBinAddr: 0x1000026F0, symSize: 0x40 }
  - { offsetInCU: 0x9F29, offset: 0xFB5E, size: 0x8, addend: 0x0, symName: __ZNSt3__122__compressed_pair_elemIPP5AssetLi0ELb0EEC2B7v160006IDnvEEOT_, symObjAddr: 0xEE0, symBinAddr: 0x100002730, symSize: 0x20 }
  - { offsetInCU: 0x9F69, offset: 0xFB9E, size: 0x8, addend: 0x0, symName: __ZNSt3__122__compressed_pair_elemINS_9allocatorIP5AssetEELi1ELb1EEC2B7v160006ENS_18__default_init_tagE, symObjAddr: 0xF00, symBinAddr: 0x100002750, symSize: 0x20 }
  - { offsetInCU: 0x9F9B, offset: 0xFBD0, size: 0x8, addend: 0x0, symName: __ZNSt3__19allocatorIP5AssetEC2B7v160006Ev, symObjAddr: 0xF20, symBinAddr: 0x100002770, symSize: 0x20 }
  - { offsetInCU: 0x9FC3, offset: 0xFBF8, size: 0x8, addend: 0x0, symName: __ZNSt3__116__non_trivial_ifILb1ENS_9allocatorIP5AssetEEEC2B7v160006Ev, symObjAddr: 0xF40, symBinAddr: 0x100002790, symSize: 0x10 }
  - { offsetInCU: 0x9FEB, offset: 0xFC20, size: 0x8, addend: 0x0, symName: __ZNSt3__16vectorIP5AssetNS_9allocatorIS2_EEED2B7v160006Ev, symObjAddr: 0xF50, symBinAddr: 0x1000027A0, symSize: 0x40 }
  - { offsetInCU: 0xA013, offset: 0xFC48, size: 0x8, addend: 0x0, symName: __ZNSt3__16vectorIP5AssetNS_9allocatorIS2_EEE16__destroy_vectorC1ERS5_, symObjAddr: 0xF90, symBinAddr: 0x1000027E0, symSize: 0x30 }
  - { offsetInCU: 0xA04A, offset: 0xFC7F, size: 0x8, addend: 0x0, symName: __ZNSt3__16vectorIP5AssetNS_9allocatorIS2_EEE16__destroy_vectorclB7v160006Ev, symObjAddr: 0xFC0, symBinAddr: 0x100002810, symSize: 0x90 }
  - { offsetInCU: 0xA06E, offset: 0xFCA3, size: 0x8, addend: 0x0, symName: __ZNSt3__16vectorIP5AssetNS_9allocatorIS2_EEE16__destroy_vectorC2ERS5_, symObjAddr: 0x1050, symBinAddr: 0x1000028A0, symSize: 0x20 }
  - { offsetInCU: 0xA0A5, offset: 0xFCDA, size: 0x8, addend: 0x0, symName: __ZNKSt3__16vectorIP5AssetNS_9allocatorIS2_EEE17__annotate_deleteB7v160006Ev, symObjAddr: 0x1070, symBinAddr: 0x1000028C0, symSize: 0xB0 }
  - { offsetInCU: 0xA0C9, offset: 0xFCFE, size: 0x8, addend: 0x0, symName: __ZNSt3__16vectorIP5AssetNS_9allocatorIS2_EEE7__clearB7v160006Ev, symObjAddr: 0x1130, symBinAddr: 0x100002980, symSize: 0x20 }
  - { offsetInCU: 0xA0ED, offset: 0xFD22, size: 0x8, addend: 0x0, symName: __ZNSt3__116allocator_traitsINS_9allocatorIP5AssetEEE10deallocateB7v160006ERS4_PS3_m, symObjAddr: 0x1150, symBinAddr: 0x1000029A0, symSize: 0x30 }
  - { offsetInCU: 0xA12F, offset: 0xFD64, size: 0x8, addend: 0x0, symName: __ZNSt3__16vectorIP5AssetNS_9allocatorIS2_EEE7__allocB7v160006Ev, symObjAddr: 0x1180, symBinAddr: 0x1000029D0, symSize: 0x20 }
  - { offsetInCU: 0xA153, offset: 0xFD88, size: 0x8, addend: 0x0, symName: __ZNKSt3__16vectorIP5AssetNS_9allocatorIS2_EEE8capacityB7v160006Ev, symObjAddr: 0x11A0, symBinAddr: 0x1000029F0, symSize: 0x30 }
  - { offsetInCU: 0xA177, offset: 0xFDAC, size: 0x8, addend: 0x0, symName: __ZNKSt3__16vectorIP5AssetNS_9allocatorIS2_EEE31__annotate_contiguous_containerB7v160006EPKvS7_S7_S7_, symObjAddr: 0x11D0, symBinAddr: 0x100002A20, symSize: 0x20 }
  - { offsetInCU: 0xA1CB, offset: 0xFE00, size: 0x8, addend: 0x0, symName: __ZNKSt3__16vectorIP5AssetNS_9allocatorIS2_EEE4dataB7v160006Ev, symObjAddr: 0x11F0, symBinAddr: 0x100002A40, symSize: 0x20 }
  - { offsetInCU: 0xA1EF, offset: 0xFE24, size: 0x8, addend: 0x0, symName: __ZNKSt3__16vectorIP5AssetNS_9allocatorIS2_EEE4sizeB7v160006Ev, symObjAddr: 0x1210, symBinAddr: 0x100002A60, symSize: 0x20 }
  - { offsetInCU: 0xA213, offset: 0xFE48, size: 0x8, addend: 0x0, symName: __ZNSt3__16vectorIP5AssetNS_9allocatorIS2_EEE22__base_destruct_at_endB7v160006EPS2_, symObjAddr: 0x1240, symBinAddr: 0x100002A90, symSize: 0x80 }
  - { offsetInCU: 0xA255, offset: 0xFE8A, size: 0x8, addend: 0x0, symName: __ZNSt3__116allocator_traitsINS_9allocatorIP5AssetEEE7destroyB7v160006IS3_vEEvRS4_PT_, symObjAddr: 0x12C0, symBinAddr: 0x100002B10, symSize: 0x30 }
  - { offsetInCU: 0xA292, offset: 0xFEC7, size: 0x8, addend: 0x0, symName: __ZNSt3__19allocatorIP5AssetE7destroyB7v160006EPS2_, symObjAddr: 0x12F0, symBinAddr: 0x100002B40, symSize: 0x10 }
  - { offsetInCU: 0xA2C4, offset: 0xFEF9, size: 0x8, addend: 0x0, symName: __ZNSt3__19allocatorIP5AssetE10deallocateB7v160006EPS2_m, symObjAddr: 0x1300, symBinAddr: 0x100002B50, symSize: 0x40 }
  - { offsetInCU: 0xA304, offset: 0xFF39, size: 0x8, addend: 0x0, symName: __ZNSt3__117__compressed_pairIPP5AssetNS_9allocatorIS2_EEE6secondB7v160006Ev, symObjAddr: 0x1460, symBinAddr: 0x100002CB0, symSize: 0x20 }
  - { offsetInCU: 0xA328, offset: 0xFF5D, size: 0x8, addend: 0x0, symName: __ZNSt3__122__compressed_pair_elemINS_9allocatorIP5AssetEELi1ELb1EE5__getB7v160006Ev, symObjAddr: 0x1480, symBinAddr: 0x100002CD0, symSize: 0x10 }
  - { offsetInCU: 0xA34C, offset: 0xFF81, size: 0x8, addend: 0x0, symName: __ZNKSt3__16vectorIP5AssetNS_9allocatorIS2_EEE9__end_capB7v160006Ev, symObjAddr: 0x1490, symBinAddr: 0x100002CE0, symSize: 0x20 }
  - { offsetInCU: 0xA370, offset: 0xFFA5, size: 0x8, addend: 0x0, symName: __ZNKSt3__117__compressed_pairIPP5AssetNS_9allocatorIS2_EEE5firstB7v160006Ev, symObjAddr: 0x14B0, symBinAddr: 0x100002D00, symSize: 0x20 }
  - { offsetInCU: 0xA394, offset: 0xFFC9, size: 0x8, addend: 0x0, symName: __ZNKSt3__122__compressed_pair_elemIPP5AssetLi0ELb0EE5__getB7v160006Ev, symObjAddr: 0x14D0, symBinAddr: 0x100002D20, symSize: 0x10 }
  - { offsetInCU: 0xA3D6, offset: 0x1000B, size: 0x8, addend: 0x0, symName: __ZNKSt3__113basic_ostreamIcNS_11char_traitsIcEEE6sentrycvbB7v160006Ev, symObjAddr: 0x16D0, symBinAddr: 0x100002F20, symSize: 0x20 }
  - { offsetInCU: 0xA3FA, offset: 0x1002F, size: 0x8, addend: 0x0, symName: __ZNSt3__119ostreambuf_iteratorIcNS_11char_traitsIcEEEC1B7v160006ERNS_13basic_ostreamIcS2_EE, symObjAddr: 0x1910, symBinAddr: 0x100003160, symSize: 0x30 }
  - { offsetInCU: 0xA430, offset: 0x10065, size: 0x8, addend: 0x0, symName: __ZNKSt3__18ios_base5flagsB7v160006Ev, symObjAddr: 0x1940, symBinAddr: 0x100003190, symSize: 0x20 }
  - { offsetInCU: 0xA457, offset: 0x1008C, size: 0x8, addend: 0x0, symName: __ZNKSt3__19basic_iosIcNS_11char_traitsIcEEE4fillB7v160006Ev, symObjAddr: 0x1960, symBinAddr: 0x1000031B0, symSize: 0x70 }
  - { offsetInCU: 0xA47E, offset: 0x100B3, size: 0x8, addend: 0x0, symName: __ZNKSt3__119ostreambuf_iteratorIcNS_11char_traitsIcEEE6failedB7v160006Ev, symObjAddr: 0x19D0, symBinAddr: 0x100003220, symSize: 0x20 }
  - { offsetInCU: 0xA4A2, offset: 0x100D7, size: 0x8, addend: 0x0, symName: __ZNSt3__19basic_iosIcNS_11char_traitsIcEEE8setstateB7v160006Ej, symObjAddr: 0x19F0, symBinAddr: 0x100003240, symSize: 0x30 }
  - { offsetInCU: 0xA4D5, offset: 0x1010A, size: 0x8, addend: 0x0, symName: __ZNKSt3__18ios_base5widthB7v160006Ev, symObjAddr: 0x1A20, symBinAddr: 0x100003270, symSize: 0x20 }
  - { offsetInCU: 0xA4FC, offset: 0x10131, size: 0x8, addend: 0x0, symName: __ZNSt3__115basic_streambufIcNS_11char_traitsIcEEE5sputnB7v160006EPKcl, symObjAddr: 0x1A40, symBinAddr: 0x100003290, symSize: 0x30 }
  - { offsetInCU: 0xA53C, offset: 0x10171, size: 0x8, addend: 0x0, symName: __ZNSt3__112basic_stringIcNS_11char_traitsIcEENS_9allocatorIcEEEC1B7v160006Emc, symObjAddr: 0x1A70, symBinAddr: 0x1000032C0, symSize: 0x30 }
  - { offsetInCU: 0xA582, offset: 0x101B7, size: 0x8, addend: 0x0, symName: __ZNSt3__112basic_stringIcNS_11char_traitsIcEENS_9allocatorIcEEE4dataB7v160006Ev, symObjAddr: 0x1AA0, symBinAddr: 0x1000032F0, symSize: 0x30 }
  - { offsetInCU: 0xA5A6, offset: 0x101DB, size: 0x8, addend: 0x0, symName: __ZNSt3__18ios_base5widthB7v160006El, symObjAddr: 0x1AD0, symBinAddr: 0x100003320, symSize: 0x30 }
  - { offsetInCU: 0xA5EB, offset: 0x10220, size: 0x8, addend: 0x0, symName: __ZNSt3__112basic_stringIcNS_11char_traitsIcEENS_9allocatorIcEEEC2B7v160006Emc, symObjAddr: 0x1B00, symBinAddr: 0x100003350, symSize: 0x50 }
  - { offsetInCU: 0xA631, offset: 0x10266, size: 0x8, addend: 0x0, symName: __ZNSt3__112basic_stringIcNS_11char_traitsIcEENS_9allocatorIcEEE13__get_pointerB7v160006Ev, symObjAddr: 0x1B60, symBinAddr: 0x1000033B0, symSize: 0x50 }
  - { offsetInCU: 0xA655, offset: 0x1028A, size: 0x8, addend: 0x0, symName: __ZNKSt3__112basic_stringIcNS_11char_traitsIcEENS_9allocatorIcEEE9__is_longB7v160006Ev, symObjAddr: 0x1BB0, symBinAddr: 0x100003400, symSize: 0x30 }
  - { offsetInCU: 0xA679, offset: 0x102AE, size: 0x8, addend: 0x0, symName: __ZNSt3__112basic_stringIcNS_11char_traitsIcEENS_9allocatorIcEEE18__get_long_pointerB7v160006Ev, symObjAddr: 0x1BE0, symBinAddr: 0x100003430, symSize: 0x20 }
  - { offsetInCU: 0xA69D, offset: 0x102D2, size: 0x8, addend: 0x0, symName: __ZNSt3__112basic_stringIcNS_11char_traitsIcEENS_9allocatorIcEEE19__get_short_pointerB7v160006Ev, symObjAddr: 0x1C00, symBinAddr: 0x100003450, symSize: 0x30 }
  - { offsetInCU: 0xA6C1, offset: 0x102F6, size: 0x8, addend: 0x0, symName: __ZNKSt3__117__compressed_pairINS_12basic_stringIcNS_11char_traitsIcEENS_9allocatorIcEEE5__repES5_E5firstB7v160006Ev, symObjAddr: 0x1C30, symBinAddr: 0x100003480, symSize: 0x20 }
  - { offsetInCU: 0xA6E5, offset: 0x1031A, size: 0x8, addend: 0x0, symName: __ZNKSt3__122__compressed_pair_elemINS_12basic_stringIcNS_11char_traitsIcEENS_9allocatorIcEEE5__repELi0ELb0EE5__getB7v160006Ev, symObjAddr: 0x1C50, symBinAddr: 0x1000034A0, symSize: 0x10 }
  - { offsetInCU: 0xA709, offset: 0x1033E, size: 0x8, addend: 0x0, symName: __ZNSt3__114pointer_traitsIPcE10pointer_toB7v160006ERc, symObjAddr: 0x1C90, symBinAddr: 0x1000034B0, symSize: 0x10 }
  - { offsetInCU: 0xA72C, offset: 0x10361, size: 0x8, addend: 0x0, symName: __ZNSt3__119ostreambuf_iteratorIcNS_11char_traitsIcEEEC2B7v160006ERNS_13basic_ostreamIcS2_EE, symObjAddr: 0x1CA0, symBinAddr: 0x1000034C0, symSize: 0x50 }
  - { offsetInCU: 0xA762, offset: 0x10397, size: 0x8, addend: 0x0, symName: __ZNKSt3__19basic_iosIcNS_11char_traitsIcEEE5rdbufB7v160006Ev, symObjAddr: 0x1CF0, symBinAddr: 0x100003510, symSize: 0x20 }
  - { offsetInCU: 0xA789, offset: 0x103BE, size: 0x8, addend: 0x0, symName: __ZNKSt3__18ios_base5rdbufB7v160006Ev, symObjAddr: 0x1D10, symBinAddr: 0x100003530, symSize: 0x20 }
  - { offsetInCU: 0xA7AD, offset: 0x103E2, size: 0x8, addend: 0x0, symName: __ZNSt3__111char_traitsIcE11eq_int_typeEii, symObjAddr: 0x1D30, symBinAddr: 0x100003550, symSize: 0x20 }
  - { offsetInCU: 0xA7DE, offset: 0x10413, size: 0x8, addend: 0x0, symName: __ZNSt3__111char_traitsIcE3eofEv, symObjAddr: 0x1D50, symBinAddr: 0x100003570, symSize: 0x10 }
  - { offsetInCU: 0xA7F2, offset: 0x10427, size: 0x8, addend: 0x0, symName: __ZNKSt3__19basic_iosIcNS_11char_traitsIcEEE5widenB7v160006Ec, symObjAddr: 0x1D60, symBinAddr: 0x100003580, symSize: 0x80 }
  - { offsetInCU: 0xA85F, offset: 0x10494, size: 0x8, addend: 0x0, symName: __ZNKSt3__15ctypeIcE5widenB7v160006Ec, symObjAddr: 0x1E10, symBinAddr: 0x100003630, symSize: 0x30 }
  - { offsetInCU: 0xA892, offset: 0x104C7, size: 0x8, addend: 0x0, symName: __ZNSt3__18ios_base8setstateB7v160006Ej, symObjAddr: 0x1E40, symBinAddr: 0x100003660, symSize: 0x30 }
  - { offsetInCU: 0xA8C8, offset: 0x104FD, size: 0x8, addend: 0x0, symName: __ZNSt3__16vectorIP5AssetNS_9allocatorIS2_EEE9__end_capB7v160006Ev, symObjAddr: 0x1E70, symBinAddr: 0x100003690, symSize: 0x20 }
  - { offsetInCU: 0xA8EC, offset: 0x10521, size: 0x8, addend: 0x0, symName: __ZNSt3__16vectorIP5AssetNS_9allocatorIS2_EEE22__construct_one_at_endB7v160006IJRKS2_EEEvDpOT_, symObjAddr: 0x1E90, symBinAddr: 0x1000036B0, symSize: 0x90 }
  - { offsetInCU: 0xA939, offset: 0x1056E, size: 0x8, addend: 0x0, symName: __ZNSt3__16vectorIP5AssetNS_9allocatorIS2_EEE21__push_back_slow_pathIRKS2_EEvOT_, symObjAddr: 0x1F20, symBinAddr: 0x100003740, symSize: 0xD0 }
  - { offsetInCU: 0xA996, offset: 0x105CB, size: 0x8, addend: 0x0, symName: __ZNSt3__117__compressed_pairIPP5AssetNS_9allocatorIS2_EEE5firstB7v160006Ev, symObjAddr: 0x1FF0, symBinAddr: 0x100003810, symSize: 0x20 }
  - { offsetInCU: 0xA9BA, offset: 0x105EF, size: 0x8, addend: 0x0, symName: __ZNSt3__122__compressed_pair_elemIPP5AssetLi0ELb0EE5__getB7v160006Ev, symObjAddr: 0x2010, symBinAddr: 0x100003830, symSize: 0x10 }
  - { offsetInCU: 0xA9F7, offset: 0x1062C, size: 0x8, addend: 0x0, symName: __ZNSt3__16vectorIP5AssetNS_9allocatorIS2_EEE21_ConstructTransactionC1B7v160006ERS5_m, symObjAddr: 0x2020, symBinAddr: 0x100003840, symSize: 0x30 }
  - { offsetInCU: 0xAA3D, offset: 0x10672, size: 0x8, addend: 0x0, symName: __ZNSt3__116allocator_traitsINS_9allocatorIP5AssetEEE9constructB7v160006IS3_JRKS3_EvEEvRS4_PT_DpOT0_, symObjAddr: 0x2050, symBinAddr: 0x100003870, symSize: 0x30 }
  - { offsetInCU: 0xAA94, offset: 0x106C9, size: 0x8, addend: 0x0, symName: __ZNSt3__16vectorIP5AssetNS_9allocatorIS2_EEE21_ConstructTransactionD1B7v160006Ev, symObjAddr: 0x2080, symBinAddr: 0x1000038A0, symSize: 0x20 }
  - { offsetInCU: 0xAABC, offset: 0x106F1, size: 0x8, addend: 0x0, symName: __ZNSt3__16vectorIP5AssetNS_9allocatorIS2_EEE21_ConstructTransactionC2B7v160006ERS5_m, symObjAddr: 0x20A0, symBinAddr: 0x1000038C0, symSize: 0x40 }
  - { offsetInCU: 0xAB02, offset: 0x10737, size: 0x8, addend: 0x0, symName: __ZNSt3__19allocatorIP5AssetE9constructB7v160006IS2_JRKS2_EEEvPT_DpOT0_, symObjAddr: 0x20E0, symBinAddr: 0x100003900, symSize: 0x20 }
  - { offsetInCU: 0xAB56, offset: 0x1078B, size: 0x8, addend: 0x0, symName: __ZNSt3__16vectorIP5AssetNS_9allocatorIS2_EEE21_ConstructTransactionD2B7v160006Ev, symObjAddr: 0x2100, symBinAddr: 0x100003920, symSize: 0x20 }
  - { offsetInCU: 0xAB7E, offset: 0x107B3, size: 0x8, addend: 0x0, symName: __ZNKSt3__16vectorIP5AssetNS_9allocatorIS2_EEE11__recommendB7v160006Em, symObjAddr: 0x2120, symBinAddr: 0x100003940, symSize: 0xA0 }
  - { offsetInCU: 0xABD2, offset: 0x10807, size: 0x8, addend: 0x0, symName: __ZNSt3__114__split_bufferIP5AssetRNS_9allocatorIS2_EEEC1EmmS5_, symObjAddr: 0x21C0, symBinAddr: 0x1000039E0, symSize: 0x40 }
  - { offsetInCU: 0xAC27, offset: 0x1085C, size: 0x8, addend: 0x0, symName: __ZNSt3__114__split_bufferIP5AssetRNS_9allocatorIS2_EEED1Ev, symObjAddr: 0x2330, symBinAddr: 0x100003B50, symSize: 0x20 }
  - { offsetInCU: 0xAC52, offset: 0x10887, size: 0x8, addend: 0x0, symName: __ZNKSt3__16vectorIP5AssetNS_9allocatorIS2_EEE8max_sizeEv, symObjAddr: 0x2350, symBinAddr: 0x100003B70, symSize: 0x60 }
  - { offsetInCU: 0xAC79, offset: 0x108AE, size: 0x8, addend: 0x0, symName: __ZNKSt3__16vectorIP5AssetNS_9allocatorIS2_EEE20__throw_length_errorB7v160006Ev, symObjAddr: 0x23B0, symBinAddr: 0x100003BD0, symSize: 0x20 }
  - { offsetInCU: 0xACA7, offset: 0x108DC, size: 0x8, addend: 0x0, symName: __ZNSt3__116allocator_traitsINS_9allocatorIP5AssetEEE8max_sizeB7v160006IS4_vEEmRKS4_, symObjAddr: 0x2430, symBinAddr: 0x100003C50, symSize: 0x20 }
  - { offsetInCU: 0xACD5, offset: 0x1090A, size: 0x8, addend: 0x0, symName: __ZNKSt3__16vectorIP5AssetNS_9allocatorIS2_EEE7__allocB7v160006Ev, symObjAddr: 0x2450, symBinAddr: 0x100003C70, symSize: 0x20 }
  - { offsetInCU: 0xACF9, offset: 0x1092E, size: 0x8, addend: 0x0, symName: __ZNSt3__114numeric_limitsIlE3maxB7v160006Ev, symObjAddr: 0x2470, symBinAddr: 0x100003C90, symSize: 0x10 }
  - { offsetInCU: 0xAD21, offset: 0x10956, size: 0x8, addend: 0x0, symName: __ZNKSt3__16__lessImmEclB7v160006ERKmS3_, symObjAddr: 0x24D0, symBinAddr: 0x100003CF0, symSize: 0x30 }
  - { offsetInCU: 0xAD61, offset: 0x10996, size: 0x8, addend: 0x0, symName: __ZNKSt3__19allocatorIP5AssetE8max_sizeB7v160006Ev, symObjAddr: 0x2500, symBinAddr: 0x100003D20, symSize: 0x20 }
  - { offsetInCU: 0xAD85, offset: 0x109BA, size: 0x8, addend: 0x0, symName: __ZNKSt3__117__compressed_pairIPP5AssetNS_9allocatorIS2_EEE6secondB7v160006Ev, symObjAddr: 0x2520, symBinAddr: 0x100003D40, symSize: 0x20 }
  - { offsetInCU: 0xADA9, offset: 0x109DE, size: 0x8, addend: 0x0, symName: __ZNKSt3__122__compressed_pair_elemINS_9allocatorIP5AssetEELi1ELb1EE5__getB7v160006Ev, symObjAddr: 0x2540, symBinAddr: 0x100003D60, symSize: 0x10 }
  - { offsetInCU: 0xADCD, offset: 0x10A02, size: 0x8, addend: 0x0, symName: __ZNSt3__123__libcpp_numeric_limitsIlLb1EE3maxB7v160006Ev, symObjAddr: 0x2550, symBinAddr: 0x100003D70, symSize: 0x10 }
  - { offsetInCU: 0xADE1, offset: 0x10A16, size: 0x8, addend: 0x0, symName: __ZNSt12length_errorC1B7v160006EPKc, symObjAddr: 0x25D0, symBinAddr: 0x100003DF0, symSize: 0x30 }
  - { offsetInCU: 0xAE17, offset: 0x10A4C, size: 0x8, addend: 0x0, symName: __ZNSt12length_errorC2B7v160006EPKc, symObjAddr: 0x2600, symBinAddr: 0x100003E20, symSize: 0x40 }
  - { offsetInCU: 0xAE4D, offset: 0x10A82, size: 0x8, addend: 0x0, symName: __ZNSt3__114__split_bufferIP5AssetRNS_9allocatorIS2_EEEC2EmmS5_, symObjAddr: 0x2690, symBinAddr: 0x100003EB0, symSize: 0xD0 }
  - { offsetInCU: 0xAEC0, offset: 0x10AF5, size: 0x8, addend: 0x0, symName: __ZNSt3__117__compressed_pairIPP5AssetRNS_9allocatorIS2_EEEC1B7v160006IDnS6_EEOT_OT0_, symObjAddr: 0x2760, symBinAddr: 0x100003F80, symSize: 0x30 }
  - { offsetInCU: 0xAF16, offset: 0x10B4B, size: 0x8, addend: 0x0, symName: __ZNSt3__114__split_bufferIP5AssetRNS_9allocatorIS2_EEE7__allocB7v160006Ev, symObjAddr: 0x27D0, symBinAddr: 0x100003FF0, symSize: 0x20 }
  - { offsetInCU: 0xAF3A, offset: 0x10B6F, size: 0x8, addend: 0x0, symName: __ZNSt3__114__split_bufferIP5AssetRNS_9allocatorIS2_EEE9__end_capB7v160006Ev, symObjAddr: 0x27F0, symBinAddr: 0x100004010, symSize: 0x20 }
  - { offsetInCU: 0xAF5E, offset: 0x10B93, size: 0x8, addend: 0x0, symName: __ZNSt3__117__compressed_pairIPP5AssetRNS_9allocatorIS2_EEEC2B7v160006IDnS6_EEOT_OT0_, symObjAddr: 0x2810, symBinAddr: 0x100004030, symSize: 0x40 }
  - { offsetInCU: 0xAFB4, offset: 0x10BE9, size: 0x8, addend: 0x0, symName: __ZNSt3__122__compressed_pair_elemIRNS_9allocatorIP5AssetEELi1ELb0EEC2B7v160006IS5_vEEOT_, symObjAddr: 0x2850, symBinAddr: 0x100004070, symSize: 0x20 }
  - { offsetInCU: 0xAFF4, offset: 0x10C29, size: 0x8, addend: 0x0, symName: __ZNSt3__19allocatorIP5AssetE8allocateB7v160006Em, symObjAddr: 0x2870, symBinAddr: 0x100004090, symSize: 0x50 }
  - { offsetInCU: 0xB026, offset: 0x10C5B, size: 0x8, addend: 0x0, symName: __ZNSt3__117__compressed_pairIPP5AssetRNS_9allocatorIS2_EEE6secondB7v160006Ev, symObjAddr: 0x29B0, symBinAddr: 0x1000041D0, symSize: 0x20 }
  - { offsetInCU: 0xB04A, offset: 0x10C7F, size: 0x8, addend: 0x0, symName: __ZNSt3__122__compressed_pair_elemIRNS_9allocatorIP5AssetEELi1ELb0EE5__getB7v160006Ev, symObjAddr: 0x29D0, symBinAddr: 0x1000041F0, symSize: 0x20 }
  - { offsetInCU: 0xB06E, offset: 0x10CA3, size: 0x8, addend: 0x0, symName: __ZNSt3__117__compressed_pairIPP5AssetRNS_9allocatorIS2_EEE5firstB7v160006Ev, symObjAddr: 0x29F0, symBinAddr: 0x100004210, symSize: 0x20 }
  - { offsetInCU: 0xB092, offset: 0x10CC7, size: 0x8, addend: 0x0, symName: __ZNSt3__116reverse_iteratorIPP5AssetEC1B7v160006ES3_, symObjAddr: 0x2A80, symBinAddr: 0x1000042A0, symSize: 0x30 }
  - { offsetInCU: 0xB0C8, offset: 0x10CFD, size: 0x8, addend: 0x0, symName: __ZNKSt3__116reverse_iteratorIPP5AssetE4baseB7v160006Ev, symObjAddr: 0x2AB0, symBinAddr: 0x1000042D0, symSize: 0x20 }
  - { offsetInCU: 0xB0EC, offset: 0x10D21, size: 0x8, addend: 0x0, symName: __ZNKSt3__16vectorIP5AssetNS_9allocatorIS2_EEE14__annotate_newB7v160006Em, symObjAddr: 0x2B10, symBinAddr: 0x100004330, symSize: 0xB0 }
  - { offsetInCU: 0xB142, offset: 0x10D77, size: 0x8, addend: 0x0, symName: __ZNKSt3__111__move_loopINS_17_ClassicAlgPolicyEEclB7v160006INS_16reverse_iteratorIPP5AssetEES8_S8_EENS_4pairIT_T1_EESA_T0_SB_, symObjAddr: 0x3010, symBinAddr: 0x100004830, symSize: 0xA0 }
  - { offsetInCU: 0xB1B0, offset: 0x10DE5, size: 0x8, addend: 0x0, symName: __ZNSt3__18_IterOpsINS_17_ClassicAlgPolicyEE11__iter_moveB7v160006IRNS_16reverse_iteratorIPP5AssetEEEENS_9enable_ifIXsr12is_referenceIDTdeclsr3stdE7declvalIRT_EEEEE5valueEDTclsr3stdE4movedeclsr3stdE7declvalISC_EEEEE4typeEOSB_, symObjAddr: 0x3230, symBinAddr: 0x100004A50, symSize: 0x20 }
  - { offsetInCU: 0xB1DC, offset: 0x10E11, size: 0x8, addend: 0x0, symName: __ZNKSt3__116reverse_iteratorIPP5AssetEdeB7v160006Ev, symObjAddr: 0x3250, symBinAddr: 0x100004A70, symSize: 0x30 }
  - { offsetInCU: 0xB20F, offset: 0x10E44, size: 0x8, addend: 0x0, symName: __ZNSt3__116reverse_iteratorIPP5AssetEppB7v160006Ev, symObjAddr: 0x3280, symBinAddr: 0x100004AA0, symSize: 0x20 }
  - { offsetInCU: 0xB233, offset: 0x10E68, size: 0x8, addend: 0x0, symName: __ZNSt3__18_IterOpsINS_17_ClassicAlgPolicyEE25__validate_iter_referenceB7v160006IRNS_16reverse_iteratorIPP5AssetEEEEvv, symObjAddr: 0x32A0, symBinAddr: 0x100004AC0, symSize: 0x10 }
  - { offsetInCU: 0xB251, offset: 0x10E86, size: 0x8, addend: 0x0, symName: __ZNSt3__118__unwrap_iter_implINS_16reverse_iteratorIPP5AssetEELb0EE8__unwrapB7v160006ES5_, symObjAddr: 0x32B0, symBinAddr: 0x100004AD0, symSize: 0x20 }
  - { offsetInCU: 0xB279, offset: 0x10EAE, size: 0x8, addend: 0x0, symName: __ZNSt3__14pairINS_16reverse_iteratorIPP5AssetEES5_EC1B7v160006IS5_S5_LPv0EEEOT_OT0_, symObjAddr: 0x32D0, symBinAddr: 0x100004AF0, symSize: 0x30 }
  - { offsetInCU: 0xB2D6, offset: 0x10F0B, size: 0x8, addend: 0x0, symName: __ZNSt3__14pairINS_16reverse_iteratorIPP5AssetEES5_EC2B7v160006IS5_S5_LPv0EEEOT_OT0_, symObjAddr: 0x3300, symBinAddr: 0x100004B20, symSize: 0x40 }
  - { offsetInCU: 0xB333, offset: 0x10F68, size: 0x8, addend: 0x0, symName: __ZNSt3__118__unwrap_iter_implINS_16reverse_iteratorIPP5AssetEELb0EE8__rewrapB7v160006ES5_S5_, symObjAddr: 0x3340, symBinAddr: 0x100004B60, symSize: 0x30 }
  - { offsetInCU: 0xB360, offset: 0x10F95, size: 0x8, addend: 0x0, symName: __ZNSt3__116reverse_iteratorIPP5AssetEC2B7v160006ES3_, symObjAddr: 0x3370, symBinAddr: 0x100004B90, symSize: 0x30 }
  - { offsetInCU: 0xB396, offset: 0x10FCB, size: 0x8, addend: 0x0, symName: __ZNSt3__114__split_bufferIP5AssetRNS_9allocatorIS2_EEED2Ev, symObjAddr: 0x33A0, symBinAddr: 0x100004BC0, symSize: 0x70 }
  - { offsetInCU: 0xB3C1, offset: 0x10FF6, size: 0x8, addend: 0x0, symName: __ZNSt3__114__split_bufferIP5AssetRNS_9allocatorIS2_EEE5clearB7v160006Ev, symObjAddr: 0x3410, symBinAddr: 0x100004C30, symSize: 0x20 }
  - { offsetInCU: 0xB3E5, offset: 0x1101A, size: 0x8, addend: 0x0, symName: __ZNKSt3__114__split_bufferIP5AssetRNS_9allocatorIS2_EEE8capacityB7v160006Ev, symObjAddr: 0x3430, symBinAddr: 0x100004C50, symSize: 0x30 }
  - { offsetInCU: 0xB409, offset: 0x1103E, size: 0x8, addend: 0x0, symName: __ZNSt3__114__split_bufferIP5AssetRNS_9allocatorIS2_EEE17__destruct_at_endB7v160006EPS2_, symObjAddr: 0x3460, symBinAddr: 0x100004C80, symSize: 0x30 }
  - { offsetInCU: 0xB43B, offset: 0x11070, size: 0x8, addend: 0x0, symName: __ZNSt3__114__split_bufferIP5AssetRNS_9allocatorIS2_EEE17__destruct_at_endB7v160006EPS2_NS_17integral_constantIbLb0EEE, symObjAddr: 0x3490, symBinAddr: 0x100004CB0, symSize: 0x80 }
  - { offsetInCU: 0xB47A, offset: 0x110AF, size: 0x8, addend: 0x0, symName: __ZNKSt3__114__split_bufferIP5AssetRNS_9allocatorIS2_EEE9__end_capB7v160006Ev, symObjAddr: 0x3510, symBinAddr: 0x100004D30, symSize: 0x20 }
  - { offsetInCU: 0xB49E, offset: 0x110D3, size: 0x8, addend: 0x0, symName: __ZNKSt3__117__compressed_pairIPP5AssetRNS_9allocatorIS2_EEE5firstB7v160006Ev, symObjAddr: 0x3530, symBinAddr: 0x100004D50, symSize: 0x1B }
  - { offsetInCU: 0x1B0B, offset: 0x12CBF, size: 0x8, addend: 0x0, symName: __ZN3glmmiIfLNS_9qualifierE0EEENS_3vecILi2ET_XT0_EEERKS4_S6_, symObjAddr: 0x1D0, symBinAddr: 0x1000057D0, symSize: 0x50 }
  - { offsetInCU: 0x1B5B, offset: 0x12D0F, size: 0x8, addend: 0x0, symName: __ZN3glm6rotateIfLNS_9qualifierE0EEENS_3vecILi3ET_XT0_EEERKS4_RKS3_S6_, symObjAddr: 0x220, symBinAddr: 0x100005820, symSize: 0xB0 }
  - { offsetInCU: 0x1BB6, offset: 0x12D6A, size: 0x8, addend: 0x0, symName: __ZN3glm7radiansIfEET_S1_, symObjAddr: 0x2D0, symBinAddr: 0x1000058D0, symSize: 0x20 }
  - { offsetInCU: 0x1BEB, offset: 0x12D9F, size: 0x8, addend: 0x0, symName: __ZN3glm5crossIfLNS_9qualifierE0EEENS_3vecILi3ET_XT0_EEERKS4_S6_, symObjAddr: 0x2F0, symBinAddr: 0x1000058F0, symSize: 0x60 }
  - { offsetInCU: 0x1C38, offset: 0x12DEC, size: 0x8, addend: 0x0, symName: __ZN3glmmlIfLNS_9qualifierE0EEENS_3vecILi3ET_XT0_EEERKS4_S3_, symObjAddr: 0x430, symBinAddr: 0x1000059F0, symSize: 0x60 }
  - { offsetInCU: 0x1C88, offset: 0x12E3C, size: 0x8, addend: 0x0, symName: __ZN3glm6lookAtIfLNS_9qualifierE0EEENS_3matILi4ELi4ET_XT0_EEERKNS_3vecILi3ES3_XT0_EEES8_S8_, symObjAddr: 0xAA0, symBinAddr: 0x100006020, symSize: 0x40 }
  - { offsetInCU: 0x1CE3, offset: 0x12E97, size: 0x8, addend: 0x0, symName: __ZN3glmplIfLNS_9qualifierE0EEENS_3vecILi3ET_XT0_EEERKS4_S6_, symObjAddr: 0xAE0, symBinAddr: 0x100006060, symSize: 0x70 }
  - { offsetInCU: 0x1D33, offset: 0x12EE7, size: 0x8, addend: 0x0, symName: __ZN3glmmlIfLNS_9qualifierE0EEENS_3matILi3ELi3ET_XT0_EE8col_typeERKS4_RKNS4_8row_typeE, symObjAddr: 0xC60, symBinAddr: 0x1000061A0, symSize: 0x230 }
  - { offsetInCU: 0x1D83, offset: 0x12F37, size: 0x8, addend: 0x0, symName: __ZN3glm6rotateIfLNS_9qualifierE0EEENS_3matILi4ELi4ET_XT0_EEES3_RKNS_3vecILi3ES3_XT0_EEE, symObjAddr: 0xE90, symBinAddr: 0x1000063D0, symSize: 0x60 }
  - { offsetInCU: 0x1DD0, offset: 0x12F84, size: 0x8, addend: 0x0, symName: __ZN3glm6rotateIfLNS_9qualifierE0EEENS_3matILi4ELi4ET_XT0_EEERKS4_S3_RKNS_3vecILi3ES3_XT0_EEE, symObjAddr: 0x10B0, symBinAddr: 0x1000065F0, symSize: 0xB30 }
  - { offsetInCU: 0x1E98, offset: 0x1304C, size: 0x8, addend: 0x0, symName: __ZN3glm9normalizeILi3EfLNS_9qualifierE0EEENS_3vecIXT_ET0_XT1_EEERKS4_, symObjAddr: 0x1C50, symBinAddr: 0x100007190, symSize: 0x50 }
  - { offsetInCU: 0x1EE1, offset: 0x13095, size: 0x8, addend: 0x0, symName: __ZN3glmmlIfLNS_9qualifierE0EEENS_3vecILi3ET_XT0_EEES3_RKS4_, symObjAddr: 0x1CA0, symBinAddr: 0x1000071E0, symSize: 0x70 }
  - { offsetInCU: 0x1F31, offset: 0x130E5, size: 0x8, addend: 0x0, symName: __ZN3glmplIfLNS_9qualifierE0EEENS_3vecILi4ET_XT0_EEERKS4_S6_, symObjAddr: 0x1F80, symBinAddr: 0x1000074C0, symSize: 0x40 }
  - { offsetInCU: 0x1F81, offset: 0x13135, size: 0x8, addend: 0x0, symName: __ZN3glmmlIfLNS_9qualifierE0EEENS_3vecILi4ET_XT0_EEERKS4_RKS3_, symObjAddr: 0x1FC0, symBinAddr: 0x100007500, symSize: 0x50 }
  - { offsetInCU: 0x2120, offset: 0x132D4, size: 0x8, addend: 0x0, symName: __ZN3glm11inversesqrtIfEET_S1_, symObjAddr: 0x20F0, symBinAddr: 0x100007630, symSize: 0x30 }
  - { offsetInCU: 0x2155, offset: 0x13309, size: 0x8, addend: 0x0, symName: __ZN3glm3dotILi3EfLNS_9qualifierE0EEET0_RKNS_3vecIXT_ES2_XT1_EEES6_, symObjAddr: 0x2120, symBinAddr: 0x100007660, symSize: 0x30 }
  - { offsetInCU: 0x21AC, offset: 0x13360, size: 0x8, addend: 0x0, symName: __ZN3glmmlIfLNS_9qualifierE0EEENS_3vecILi3ET_XT0_EEERKS4_S6_, symObjAddr: 0x21C0, symBinAddr: 0x100007700, symSize: 0x70 }
  - { offsetInCU: 0x21FC, offset: 0x133B0, size: 0x8, addend: 0x0, symName: __ZN3glm8lookAtRHIfLNS_9qualifierE0EEENS_3matILi4ELi4ET_XT0_EEERKNS_3vecILi3ES3_XT0_EEES8_S8_, symObjAddr: 0x3410, symBinAddr: 0x100007E90, symSize: 0x450 }
  - { offsetInCU: 0x2296, offset: 0x1344A, size: 0x8, addend: 0x0, symName: __ZN3glmmiIfLNS_9qualifierE0EEENS_3vecILi3ET_XT0_EEERKS4_S6_, symObjAddr: 0x3860, symBinAddr: 0x1000082E0, symSize: 0x67 }
  - { offsetInCU: 0x25B9, offset: 0x1376D, size: 0x8, addend: 0x0, symName: __ZN6Camera9MouseLookEii, symObjAddr: 0x0, symBinAddr: 0x100005600, symSize: 0x1A0 }
  - { offsetInCU: 0x25DE, offset: 0x13792, size: 0x8, addend: 0x0, symName: __ZZN6Camera9MouseLookEiiE9firstLook, symObjAddr: 0x3964, symBinAddr: 0x100030000, symSize: 0x0 }
  - { offsetInCU: 0x4EF8, offset: 0x160AC, size: 0x8, addend: 0x0, symName: __ZN3glm3vecILi2EfLNS_9qualifierE0EEC1IiiEET_T0_, symObjAddr: 0x1A0, symBinAddr: 0x1000057A0, symSize: 0x30 }
  - { offsetInCU: 0x4F50, offset: 0x16104, size: 0x8, addend: 0x0, symName: __ZN6Camera11MoveForwardEf, symObjAddr: 0x350, symBinAddr: 0x100005950, symSize: 0xA0 }
  - { offsetInCU: 0x4F93, offset: 0x16147, size: 0x8, addend: 0x0, symName: __ZN3glm3vecILi3EfLNS_9qualifierE0EEpLIfEERS2_RKNS0_ILi3ET_LS1_0EEE, symObjAddr: 0x490, symBinAddr: 0x100005A50, symSize: 0x50 }
  - { offsetInCU: 0x4FD0, offset: 0x16184, size: 0x8, addend: 0x0, symName: __ZN6Camera12MoveBackwardEf, symObjAddr: 0x4E0, symBinAddr: 0x100005AA0, symSize: 0xA0 }
  - { offsetInCU: 0x5013, offset: 0x161C7, size: 0x8, addend: 0x0, symName: __ZN3glm3vecILi3EfLNS_9qualifierE0EEmIIfEERS2_RKNS0_ILi3ET_LS1_0EEE, symObjAddr: 0x580, symBinAddr: 0x100005B40, symSize: 0x60 }
  - { offsetInCU: 0x5052, offset: 0x16206, size: 0x8, addend: 0x0, symName: __ZN6Camera8MoveLeftEf, symObjAddr: 0x5E0, symBinAddr: 0x100005BA0, symSize: 0xD0 }
  - { offsetInCU: 0x50A4, offset: 0x16258, size: 0x8, addend: 0x0, symName: __ZN3glm3vecILi3EfLNS_9qualifierE0EEC1IfdfEET_T0_T1_, symObjAddr: 0x6B0, symBinAddr: 0x100005C70, symSize: 0x40 }
  - { offsetInCU: 0x5113, offset: 0x162C7, size: 0x8, addend: 0x0, symName: __ZN6Camera9MoveRightEf, symObjAddr: 0x6F0, symBinAddr: 0x100005CB0, symSize: 0xD0 }
  - { offsetInCU: 0x5165, offset: 0x16319, size: 0x8, addend: 0x0, symName: __ZN6Camera6MoveUpEf, symObjAddr: 0x7C0, symBinAddr: 0x100005D80, symSize: 0x30 }
  - { offsetInCU: 0x5199, offset: 0x1634D, size: 0x8, addend: 0x0, symName: __ZN6Camera8MoveDownEf, symObjAddr: 0x7F0, symBinAddr: 0x100005DB0, symSize: 0x30 }
  - { offsetInCU: 0x51CD, offset: 0x16381, size: 0x8, addend: 0x0, symName: __ZN6Camera20SetCameraEyePositionEfff, symObjAddr: 0x820, symBinAddr: 0x100005DE0, symSize: 0x40 }
  - { offsetInCU: 0x521D, offset: 0x163D1, size: 0x8, addend: 0x0, symName: __ZN6Camera15GetEyeXPositionEv, symObjAddr: 0x860, symBinAddr: 0x100005E20, symSize: 0x20 }
  - { offsetInCU: 0x5243, offset: 0x163F7, size: 0x8, addend: 0x0, symName: __ZN6Camera15GetEyeYPositionEv, symObjAddr: 0x880, symBinAddr: 0x100005E40, symSize: 0x20 }
  - { offsetInCU: 0x5269, offset: 0x1641D, size: 0x8, addend: 0x0, symName: __ZN6Camera15GetEyeZPositionEv, symObjAddr: 0x8A0, symBinAddr: 0x100005E60, symSize: 0x20 }
  - { offsetInCU: 0x528F, offset: 0x16443, size: 0x8, addend: 0x0, symName: __ZN6Camera17GetViewXDirectionEv, symObjAddr: 0x8C0, symBinAddr: 0x100005E80, symSize: 0x20 }
  - { offsetInCU: 0x52B5, offset: 0x16469, size: 0x8, addend: 0x0, symName: __ZN6Camera17GetViewYDirectionEv, symObjAddr: 0x8E0, symBinAddr: 0x100005EA0, symSize: 0x20 }
  - { offsetInCU: 0x52DB, offset: 0x1648F, size: 0x8, addend: 0x0, symName: __ZN6Camera17GetViewZDirectionEv, symObjAddr: 0x900, symBinAddr: 0x100005EC0, symSize: 0x20 }
  - { offsetInCU: 0x5301, offset: 0x164B5, size: 0x8, addend: 0x0, symName: __ZN6CameraC2Ev, symObjAddr: 0x920, symBinAddr: 0x100005EE0, symSize: 0xB0 }
  - { offsetInCU: 0x532B, offset: 0x164DF, size: 0x8, addend: 0x0, symName: __ZN6CameraC1Ev, symObjAddr: 0xA10, symBinAddr: 0x100005F90, symSize: 0x20 }
  - { offsetInCU: 0x5355, offset: 0x16509, size: 0x8, addend: 0x0, symName: __ZNK6Camera20GetWorldToViewmatrixEv, symObjAddr: 0xA30, symBinAddr: 0x100005FB0, symSize: 0x70 }
  - { offsetInCU: 0x537B, offset: 0x1652F, size: 0x8, addend: 0x0, symName: __ZN3glm3vecILi2EfLNS_9qualifierE0EEC2IiiEET_T0_, symObjAddr: 0xB50, symBinAddr: 0x1000060D0, symSize: 0x30 }
  - { offsetInCU: 0x53D3, offset: 0x16587, size: 0x8, addend: 0x0, symName: __ZN3glm3vecILi2EfLNS_9qualifierE0EEC1Eff, symObjAddr: 0xB80, symBinAddr: 0x100006100, symSize: 0x30 }
  - { offsetInCU: 0x5419, offset: 0x165CD, size: 0x8, addend: 0x0, symName: __ZN3glm3vecILi2EfLNS_9qualifierE0EEC2Eff, symObjAddr: 0xBB0, symBinAddr: 0x100006130, symSize: 0x30 }
  - { offsetInCU: 0x545F, offset: 0x16613, size: 0x8, addend: 0x0, symName: __ZN3glm3vecILi3EfLNS_9qualifierE0EEC2IfdfEET_T0_T1_, symObjAddr: 0xC20, symBinAddr: 0x100006160, symSize: 0x40 }
  - { offsetInCU: 0x54CE, offset: 0x16682, size: 0x8, addend: 0x0, symName: __ZN3glm3matILi3ELi3EfLNS_9qualifierE0EEC1ERKNS0_ILi4ELi4EfLS1_0EEE, symObjAddr: 0xEF0, symBinAddr: 0x100006430, symSize: 0x30 }
  - { offsetInCU: 0x5506, offset: 0x166BA, size: 0x8, addend: 0x0, symName: __ZNK3glm3matILi3ELi3EfLNS_9qualifierE0EEixEi, symObjAddr: 0xF20, symBinAddr: 0x100006460, symSize: 0x80 }
  - { offsetInCU: 0x553A, offset: 0x166EE, size: 0x8, addend: 0x0, symName: __ZNK3glm3vecILi3EfLNS_9qualifierE0EEixEi, symObjAddr: 0xFA0, symBinAddr: 0x1000064E0, symSize: 0xF0 }
  - { offsetInCU: 0x556E, offset: 0x16722, size: 0x8, addend: 0x0, symName: __ZN3glm3matILi3ELi3EfLNS_9qualifierE0EE6lengthEv, symObjAddr: 0x1090, symBinAddr: 0x1000065D0, symSize: 0x10 }
  - { offsetInCU: 0x5582, offset: 0x16736, size: 0x8, addend: 0x0, symName: __ZN3glm3vecILi3EfLNS_9qualifierE0EE6lengthEv, symObjAddr: 0x10A0, symBinAddr: 0x1000065E0, symSize: 0x10 }
  - { offsetInCU: 0x5597, offset: 0x1674B, size: 0x8, addend: 0x0, symName: __ZN3glm3matILi4ELi4EfLNS_9qualifierE0EEC1ERKf, symObjAddr: 0x1BE0, symBinAddr: 0x100007120, symSize: 0x30 }
  - { offsetInCU: 0x55CE, offset: 0x16782, size: 0x8, addend: 0x0, symName: __Z3cosB7v160006f, symObjAddr: 0x1C10, symBinAddr: 0x100007150, symSize: 0x20 }
  - { offsetInCU: 0x55FC, offset: 0x167B0, size: 0x8, addend: 0x0, symName: __Z3sinB7v160006f, symObjAddr: 0x1C30, symBinAddr: 0x100007170, symSize: 0x20 }
  - { offsetInCU: 0x562A, offset: 0x167DE, size: 0x8, addend: 0x0, symName: __ZN3glm3vecILi3EfLNS_9qualifierE0EEixEi, symObjAddr: 0x1D10, symBinAddr: 0x100007250, symSize: 0xF0 }
  - { offsetInCU: 0x565E, offset: 0x16812, size: 0x8, addend: 0x0, symName: __ZN3glm3matILi4ELi4EfLNS_9qualifierE0EEixEi, symObjAddr: 0x1E00, symBinAddr: 0x100007340, symSize: 0x80 }
  - { offsetInCU: 0x5694, offset: 0x16848, size: 0x8, addend: 0x0, symName: __ZN3glm3vecILi4EfLNS_9qualifierE0EEixEi, symObjAddr: 0x1E80, symBinAddr: 0x1000073C0, symSize: 0x100 }
  - { offsetInCU: 0x56CA, offset: 0x1687E, size: 0x8, addend: 0x0, symName: __ZNK3glm3matILi4ELi4EfLNS_9qualifierE0EEixEi, symObjAddr: 0x2010, symBinAddr: 0x100007550, symSize: 0x80 }
  - { offsetInCU: 0x5701, offset: 0x168B5, size: 0x8, addend: 0x0, symName: __ZN3glm6detail17compute_normalizeILi3EfLNS_9qualifierE0ELb0EE4callERKNS_3vecILi3EfLS2_0EEE, symObjAddr: 0x2090, symBinAddr: 0x1000075D0, symSize: 0x60 }
  - { offsetInCU: 0x5723, offset: 0x168D7, size: 0x8, addend: 0x0, symName: __Z4sqrtB7v160006f, symObjAddr: 0x2150, symBinAddr: 0x100007690, symSize: 0x20 }
  - { offsetInCU: 0x5752, offset: 0x16906, size: 0x8, addend: 0x0, symName: __ZN3glm6detail11compute_dotINS_3vecILi3EfLNS_9qualifierE0EEEfLb0EE4callERKS4_S7_, symObjAddr: 0x2170, symBinAddr: 0x1000076B0, symSize: 0x50 }
  - { offsetInCU: 0x5791, offset: 0x16945, size: 0x8, addend: 0x0, symName: __ZN3glm3matILi4ELi4EfLNS_9qualifierE0EE6lengthEv, symObjAddr: 0x2230, symBinAddr: 0x100007770, symSize: 0x10 }
  - { offsetInCU: 0x57A5, offset: 0x16959, size: 0x8, addend: 0x0, symName: __ZN3glm3vecILi4EfLNS_9qualifierE0EE6lengthEv, symObjAddr: 0x2240, symBinAddr: 0x100007780, symSize: 0x10 }
  - { offsetInCU: 0x57B9, offset: 0x1696D, size: 0x8, addend: 0x0, symName: __ZN3glm3vecILi4EfLNS_9qualifierE0EEpLIfEERS2_RKNS0_ILi4ET_LS1_0EEE, symObjAddr: 0x2250, symBinAddr: 0x100007790, symSize: 0x50 }
  - { offsetInCU: 0x57FA, offset: 0x169AE, size: 0x8, addend: 0x0, symName: __ZN3glm6detail16compute_vec4_addIfLNS_9qualifierE0ELb0EE4callERKNS_3vecILi4EfLS2_0EEES7_, symObjAddr: 0x22A0, symBinAddr: 0x1000077E0, symSize: 0x70 }
  - { offsetInCU: 0x582A, offset: 0x169DE, size: 0x8, addend: 0x0, symName: __ZN3glm3vecILi4EfLNS_9qualifierE0EEC1Effff, symObjAddr: 0x2310, symBinAddr: 0x100007850, symSize: 0x50 }
  - { offsetInCU: 0x588C, offset: 0x16A40, size: 0x8, addend: 0x0, symName: __ZN3glm3vecILi4EfLNS_9qualifierE0EEC2Effff, symObjAddr: 0x2360, symBinAddr: 0x1000078A0, symSize: 0x50 }
  - { offsetInCU: 0x58EE, offset: 0x16AA2, size: 0x8, addend: 0x0, symName: __ZN3glm3vecILi4EfLNS_9qualifierE0EEmLIfEERS2_T_, symObjAddr: 0x23B0, symBinAddr: 0x1000078F0, symSize: 0x60 }
  - { offsetInCU: 0x592F, offset: 0x16AE3, size: 0x8, addend: 0x0, symName: __ZN3glm6detail16compute_vec4_mulIfLNS_9qualifierE0ELb0EE4callERKNS_3vecILi4EfLS2_0EEES7_, symObjAddr: 0x2410, symBinAddr: 0x100007950, symSize: 0x70 }
  - { offsetInCU: 0x595F, offset: 0x16B13, size: 0x8, addend: 0x0, symName: __ZN3glm3vecILi4EfLNS_9qualifierE0EEC1Ef, symObjAddr: 0x2480, symBinAddr: 0x1000079C0, symSize: 0x30 }
  - { offsetInCU: 0x5997, offset: 0x16B4B, size: 0x8, addend: 0x0, symName: __ZN3glm3vecILi4EfLNS_9qualifierE0EEC2Ef, symObjAddr: 0x24B0, symBinAddr: 0x1000079F0, symSize: 0x40 }
  - { offsetInCU: 0x59D0, offset: 0x16B84, size: 0x8, addend: 0x0, symName: __ZN3glm3matILi4ELi4EfLNS_9qualifierE0EEC2ERKf, symObjAddr: 0x24F0, symBinAddr: 0x100007A30, symSize: 0x90 }
  - { offsetInCU: 0x5A07, offset: 0x16BBB, size: 0x8, addend: 0x0, symName: __ZN3glm3vecILi4EfLNS_9qualifierE0EEC1IfiiiEET_T0_T1_T2_, symObjAddr: 0x2580, symBinAddr: 0x100007AC0, symSize: 0x40 }
  - { offsetInCU: 0x5A8D, offset: 0x16C41, size: 0x8, addend: 0x0, symName: __ZN3glm3vecILi4EfLNS_9qualifierE0EEC1IifiiEET_T0_T1_T2_, symObjAddr: 0x25C0, symBinAddr: 0x100007B00, symSize: 0x40 }
  - { offsetInCU: 0x5B13, offset: 0x16CC7, size: 0x8, addend: 0x0, symName: __ZN3glm3vecILi4EfLNS_9qualifierE0EEC1IiifiEET_T0_T1_T2_, symObjAddr: 0x2600, symBinAddr: 0x100007B40, symSize: 0x40 }
  - { offsetInCU: 0x5B99, offset: 0x16D4D, size: 0x8, addend: 0x0, symName: __ZN3glm3vecILi4EfLNS_9qualifierE0EEC1IiiifEET_T0_T1_T2_, symObjAddr: 0x2640, symBinAddr: 0x100007B80, symSize: 0x40 }
  - { offsetInCU: 0x5C1F, offset: 0x16DD3, size: 0x8, addend: 0x0, symName: __ZN3glm3vecILi4EfLNS_9qualifierE0EEC2IfiiiEET_T0_T1_T2_, symObjAddr: 0x2680, symBinAddr: 0x100007BC0, symSize: 0x50 }
  - { offsetInCU: 0x5CA5, offset: 0x16E59, size: 0x8, addend: 0x0, symName: __ZN3glm3vecILi4EfLNS_9qualifierE0EEC2IifiiEET_T0_T1_T2_, symObjAddr: 0x26D0, symBinAddr: 0x100007C10, symSize: 0x50 }
  - { offsetInCU: 0x5D2B, offset: 0x16EDF, size: 0x8, addend: 0x0, symName: __ZN3glm3vecILi4EfLNS_9qualifierE0EEC2IiifiEET_T0_T1_T2_, symObjAddr: 0x2720, symBinAddr: 0x100007C60, symSize: 0x50 }
  - { offsetInCU: 0x5DB1, offset: 0x16F65, size: 0x8, addend: 0x0, symName: __ZN3glm3vecILi4EfLNS_9qualifierE0EEC2IiiifEET_T0_T1_T2_, symObjAddr: 0x2770, symBinAddr: 0x100007CB0, symSize: 0x50 }
  - { offsetInCU: 0x5E37, offset: 0x16FEB, size: 0x8, addend: 0x0, symName: __ZN3glm3matILi3ELi3EfLNS_9qualifierE0EEC2ERKNS0_ILi4ELi4EfLS1_0EEE, symObjAddr: 0x27C0, symBinAddr: 0x100007D00, symSize: 0x90 }
  - { offsetInCU: 0x5E6F, offset: 0x17023, size: 0x8, addend: 0x0, symName: __ZN3glm3vecILi3EfLNS_9qualifierE0EEC1IfLS1_0EEERKNS0_ILi4ET_XT0_EEE, symObjAddr: 0x2850, symBinAddr: 0x100007D90, symSize: 0x30 }
  - { offsetInCU: 0x5EBA, offset: 0x1706E, size: 0x8, addend: 0x0, symName: __ZN3glm3vecILi3EfLNS_9qualifierE0EEC2IfLS1_0EEERKNS0_ILi4ET_XT0_EEE, symObjAddr: 0x2880, symBinAddr: 0x100007DC0, symSize: 0x40 }
  - { offsetInCU: 0x5F06, offset: 0x170BA, size: 0x8, addend: 0x0, symName: __ZN3glm6detail13compute_crossIfLNS_9qualifierE0ELb0EE4callERKNS_3vecILi3EfLS2_0EEES7_, symObjAddr: 0x28C0, symBinAddr: 0x100007E00, symSize: 0x90 }
  - { offsetInCU: 0x3CA1, offset: 0x1ADC7, size: 0x8, addend: 0x0, symName: __ZNSt3__119__debug_db_insert_cB7v160006INS_6vectorIfNS_9allocatorIfEEEEEEvPT_, symObjAddr: 0x1860, symBinAddr: 0x100009970, symSize: 0x10 }
  - { offsetInCU: 0x3CD2, offset: 0x1ADF8, size: 0x8, addend: 0x0, symName: __ZNSt3__119__debug_db_insert_cB7v160006INS_6vectorIjNS_9allocatorIjEEEEEEvPT_, symObjAddr: 0x19B0, symBinAddr: 0x100009AC0, symSize: 0x10 }
  - { offsetInCU: 0x3D03, offset: 0x1AE29, size: 0x8, addend: 0x0, symName: __ZNSt3__118__debug_db_erase_cB7v160006INS_6vectorIfNS_9allocatorIfEEEEEEvPT_, symObjAddr: 0x1C40, symBinAddr: 0x100009D50, symSize: 0x10 }
  - { offsetInCU: 0x3D34, offset: 0x1AE5A, size: 0x8, addend: 0x0, symName: __ZNSt3__112__to_addressB7v160006IfEEPT_S2_, symObjAddr: 0x1D30, symBinAddr: 0x100009E40, symSize: 0x10 }
  - { offsetInCU: 0x3D69, offset: 0x1AE8F, size: 0x8, addend: 0x0, symName: __ZNSt3__118__debug_db_erase_cB7v160006INS_6vectorIjNS_9allocatorIjEEEEEEvPT_, symObjAddr: 0x21B0, symBinAddr: 0x10000A1A0, symSize: 0x10 }
  - { offsetInCU: 0x3D9A, offset: 0x1AEC0, size: 0x8, addend: 0x0, symName: __ZNSt3__112__to_addressB7v160006IjEEPT_S2_, symObjAddr: 0x22A0, symBinAddr: 0x10000A290, symSize: 0x10 }
  - { offsetInCU: 0x3DCF, offset: 0x1AEF5, size: 0x8, addend: 0x0, symName: __ZNSt3__119__allocate_at_leastB7v160006INS_9allocatorIfEEEENS_19__allocation_resultINS_16allocator_traitsIT_E7pointerEEERS5_m, symObjAddr: 0x2D60, symBinAddr: 0x10000AB20, symSize: 0x40 }
  - { offsetInCU: 0x3E12, offset: 0x1AF38, size: 0x8, addend: 0x0, symName: __ZNSt3__142__uninitialized_allocator_move_if_noexceptB7v160006INS_9allocatorIfEENS_16reverse_iteratorIPfEES5_fvEET1_RT_T0_S9_S6_, symObjAddr: 0x2FE0, symBinAddr: 0x10000ACB0, symSize: 0x70 }
  - { offsetInCU: 0x3E8F, offset: 0x1AFB5, size: 0x8, addend: 0x0, symName: __ZNSt3__14swapB7v160006IPfEENS_9enable_ifIXaasr21is_move_constructibleIT_EE5valuesr18is_move_assignableIS3_EE5valueEvE4typeERS3_S6_, symObjAddr: 0x30A0, symBinAddr: 0x10000AD70, symSize: 0x40 }
  - { offsetInCU: 0x3EE1, offset: 0x1B007, size: 0x8, addend: 0x0, symName: __ZNSt3__125__debug_db_invalidate_allB7v160006INS_6vectorIfNS_9allocatorIfEEEEEEvPT_, symObjAddr: 0x3190, symBinAddr: 0x10000AE60, symSize: 0x10 }
  - { offsetInCU: 0x3F12, offset: 0x1B038, size: 0x8, addend: 0x0, symName: __ZNSt3__14moveB7v160006INS_16reverse_iteratorIPfEES3_EET0_T_S5_S4_, symObjAddr: 0x31A0, symBinAddr: 0x10000AE70, symSize: 0x80 }
  - { offsetInCU: 0x3F6C, offset: 0x1B092, size: 0x8, addend: 0x0, symName: __ZNSt3__16__moveB7v160006INS_17_ClassicAlgPolicyENS_16reverse_iteratorIPfEES4_S4_EENS_4pairIT0_T2_EES6_T1_S7_, symObjAddr: 0x3220, symBinAddr: 0x10000AEF0, symSize: 0x90 }
  - { offsetInCU: 0x3FD8, offset: 0x1B0FE, size: 0x8, addend: 0x0, symName: __ZNSt3__123__dispatch_copy_or_moveB7v160006INS_17_ClassicAlgPolicyENS_11__move_loopIS1_EENS_14__move_trivialENS_16reverse_iteratorIPfEES7_S7_EENS_4pairIT2_T4_EES9_T3_SA_, symObjAddr: 0x32B0, symBinAddr: 0x10000AF80, symSize: 0x90 }
  - { offsetInCU: 0x4056, offset: 0x1B17C, size: 0x8, addend: 0x0, symName: __ZNSt3__121__unwrap_and_dispatchB7v160006INS_10__overloadINS_11__move_loopINS_17_ClassicAlgPolicyEEENS_14__move_trivialEEENS_16reverse_iteratorIPfEES9_S9_Li0EEENS_4pairIT0_T2_EESB_T1_SC_, symObjAddr: 0x3340, symBinAddr: 0x10000B010, symSize: 0x210 }
  - { offsetInCU: 0x40E8, offset: 0x1B20E, size: 0x8, addend: 0x0, symName: __ZNSt3__114__unwrap_rangeB7v160006INS_16reverse_iteratorIPfEES3_EENS_4pairIT0_S5_EET_S7_, symObjAddr: 0x3550, symBinAddr: 0x10000B220, symSize: 0x90 }
  - { offsetInCU: 0x429A, offset: 0x1B3C0, size: 0x8, addend: 0x0, symName: __ZNSt3__113__unwrap_iterB7v160006INS_16reverse_iteratorIPfEENS_18__unwrap_iter_implIS3_Lb0EEELi0EEEDTclsrT0_8__unwrapclsr3stdE7declvalIT_EEEES7_, symObjAddr: 0x3680, symBinAddr: 0x10000B350, symSize: 0x40 }
  - { offsetInCU: 0x42DF, offset: 0x1B405, size: 0x8, addend: 0x0, symName: __ZNSt3__19make_pairB7v160006INS_16reverse_iteratorIPfEES3_EENS_4pairINS_18__unwrap_ref_decayIT_E4typeENS5_IT0_E4typeEEEOS6_OS9_, symObjAddr: 0x36C0, symBinAddr: 0x10000B390, symSize: 0x30 }
  - { offsetInCU: 0x432E, offset: 0x1B454, size: 0x8, addend: 0x0, symName: __ZNSt3__114__rewrap_rangeB7v160006INS_16reverse_iteratorIPfEES3_EET_S4_T0_, symObjAddr: 0x36F0, symBinAddr: 0x10000B3C0, symSize: 0x60 }
  - { offsetInCU: 0x437A, offset: 0x1B4A0, size: 0x8, addend: 0x0, symName: __ZNSt3__113__rewrap_iterB7v160006INS_16reverse_iteratorIPfEES3_NS_18__unwrap_iter_implIS3_Lb0EEEEET_S6_T0_, symObjAddr: 0x3750, symBinAddr: 0x10000B420, symSize: 0x70 }
  - { offsetInCU: 0x43CF, offset: 0x1B4F5, size: 0x8, addend: 0x0, symName: __ZNSt3__1neB7v160006IPfS1_EEbRKNS_16reverse_iteratorIT_EERKNS2_IT0_EE, symObjAddr: 0x37C0, symBinAddr: 0x10000B490, symSize: 0x40 }
  - { offsetInCU: 0x4501, offset: 0x1B627, size: 0x8, addend: 0x0, symName: __ZNSt3__119__allocate_at_leastB7v160006INS_9allocatorIjEEEENS_19__allocation_resultINS_16allocator_traitsIT_E7pointerEEERS5_m, symObjAddr: 0x43D0, symBinAddr: 0x10000C0A0, symSize: 0x40 }
  - { offsetInCU: 0x4544, offset: 0x1B66A, size: 0x8, addend: 0x0, symName: __ZNSt3__142__uninitialized_allocator_move_if_noexceptB7v160006INS_9allocatorIjEENS_16reverse_iteratorIPjEES5_jvEET1_RT_T0_S9_S6_, symObjAddr: 0x4560, symBinAddr: 0x10000C230, symSize: 0x70 }
  - { offsetInCU: 0x45C1, offset: 0x1B6E7, size: 0x8, addend: 0x0, symName: __ZNSt3__14swapB7v160006IPjEENS_9enable_ifIXaasr21is_move_constructibleIT_EE5valuesr18is_move_assignableIS3_EE5valueEvE4typeERS3_S6_, symObjAddr: 0x4620, symBinAddr: 0x10000C2F0, symSize: 0x40 }
  - { offsetInCU: 0x4613, offset: 0x1B739, size: 0x8, addend: 0x0, symName: __ZNSt3__125__debug_db_invalidate_allB7v160006INS_6vectorIjNS_9allocatorIjEEEEEEvPT_, symObjAddr: 0x4710, symBinAddr: 0x10000C3E0, symSize: 0x10 }
  - { offsetInCU: 0x4644, offset: 0x1B76A, size: 0x8, addend: 0x0, symName: __ZNSt3__14moveB7v160006INS_16reverse_iteratorIPjEES3_EET0_T_S5_S4_, symObjAddr: 0x4720, symBinAddr: 0x10000C3F0, symSize: 0x80 }
  - { offsetInCU: 0x469E, offset: 0x1B7C4, size: 0x8, addend: 0x0, symName: __ZNSt3__16__moveB7v160006INS_17_ClassicAlgPolicyENS_16reverse_iteratorIPjEES4_S4_EENS_4pairIT0_T2_EES6_T1_S7_, symObjAddr: 0x47A0, symBinAddr: 0x10000C470, symSize: 0x90 }
  - { offsetInCU: 0x470A, offset: 0x1B830, size: 0x8, addend: 0x0, symName: __ZNSt3__123__dispatch_copy_or_moveB7v160006INS_17_ClassicAlgPolicyENS_11__move_loopIS1_EENS_14__move_trivialENS_16reverse_iteratorIPjEES7_S7_EENS_4pairIT2_T4_EES9_T3_SA_, symObjAddr: 0x4830, symBinAddr: 0x10000C500, symSize: 0x90 }
  - { offsetInCU: 0x4788, offset: 0x1B8AE, size: 0x8, addend: 0x0, symName: __ZNSt3__121__unwrap_and_dispatchB7v160006INS_10__overloadINS_11__move_loopINS_17_ClassicAlgPolicyEEENS_14__move_trivialEEENS_16reverse_iteratorIPjEES9_S9_Li0EEENS_4pairIT0_T2_EESB_T1_SC_, symObjAddr: 0x48C0, symBinAddr: 0x10000C590, symSize: 0x210 }
  - { offsetInCU: 0x481A, offset: 0x1B940, size: 0x8, addend: 0x0, symName: __ZNSt3__114__unwrap_rangeB7v160006INS_16reverse_iteratorIPjEES3_EENS_4pairIT0_S5_EET_S7_, symObjAddr: 0x4AD0, symBinAddr: 0x10000C7A0, symSize: 0x90 }
  - { offsetInCU: 0x493B, offset: 0x1BA61, size: 0x8, addend: 0x0, symName: __ZNSt3__113__unwrap_iterB7v160006INS_16reverse_iteratorIPjEENS_18__unwrap_iter_implIS3_Lb0EEELi0EEEDTclsrT0_8__unwrapclsr3stdE7declvalIT_EEEES7_, symObjAddr: 0x4C00, symBinAddr: 0x10000C8D0, symSize: 0x40 }
  - { offsetInCU: 0x4980, offset: 0x1BAA6, size: 0x8, addend: 0x0, symName: __ZNSt3__19make_pairB7v160006INS_16reverse_iteratorIPjEES3_EENS_4pairINS_18__unwrap_ref_decayIT_E4typeENS5_IT0_E4typeEEEOS6_OS9_, symObjAddr: 0x4C40, symBinAddr: 0x10000C910, symSize: 0x30 }
  - { offsetInCU: 0x49CF, offset: 0x1BAF5, size: 0x8, addend: 0x0, symName: __ZNSt3__114__rewrap_rangeB7v160006INS_16reverse_iteratorIPjEES3_EET_S4_T0_, symObjAddr: 0x4C70, symBinAddr: 0x10000C940, symSize: 0x60 }
  - { offsetInCU: 0x4A1B, offset: 0x1BB41, size: 0x8, addend: 0x0, symName: __ZNSt3__113__rewrap_iterB7v160006INS_16reverse_iteratorIPjEES3_NS_18__unwrap_iter_implIS3_Lb0EEEEET_S6_T0_, symObjAddr: 0x4CD0, symBinAddr: 0x10000C9A0, symSize: 0x70 }
  - { offsetInCU: 0x4A70, offset: 0x1BB96, size: 0x8, addend: 0x0, symName: __ZNSt3__1neB7v160006IPjS1_EEbRKNS_16reverse_iteratorIT_EERKNS2_IT0_EE, symObjAddr: 0x4D40, symBinAddr: 0x10000CA10, symSize: 0x40 }
  - { offsetInCU: 0x4EC5, offset: 0x1BFEB, size: 0x8, addend: 0x0, symName: __ZNSt3__16vectorIfNS_9allocatorIfEEE26__swap_out_circular_bufferERNS_14__split_bufferIfRS2_EE, symObjAddr: 0x27D0, symBinAddr: 0x10000A7C0, symSize: 0x130 }
  - { offsetInCU: 0x4F1B, offset: 0x1C041, size: 0x8, addend: 0x0, symName: __ZNSt3__16vectorIjNS_9allocatorIjEEE26__swap_out_circular_bufferERNS_14__split_bufferIjRS2_EE, symObjAddr: 0x4070, symBinAddr: 0x10000BD40, symSize: 0x130 }
  - { offsetInCU: 0x6E46, offset: 0x1DF6C, size: 0x8, addend: 0x0, symName: __ZN8GeometryC2Ev, symObjAddr: 0x0, symBinAddr: 0x100008350, symSize: 0x70 }
  - { offsetInCU: 0x6E70, offset: 0x1DF96, size: 0x8, addend: 0x0, symName: __ZNSt3__16vectorIfNS_9allocatorIfEEEC1B7v160006Ev, symObjAddr: 0x70, symBinAddr: 0x1000083C0, symSize: 0x20 }
  - { offsetInCU: 0x6E98, offset: 0x1DFBE, size: 0x8, addend: 0x0, symName: __ZNSt3__16vectorIjNS_9allocatorIjEEEC1B7v160006Ev, symObjAddr: 0x90, symBinAddr: 0x1000083E0, symSize: 0x20 }
  - { offsetInCU: 0x6EC0, offset: 0x1DFE6, size: 0x8, addend: 0x0, symName: __ZN8GeometryC1Ev, symObjAddr: 0xB0, symBinAddr: 0x100008400, symSize: 0x20 }
  - { offsetInCU: 0x6EEA, offset: 0x1E010, size: 0x8, addend: 0x0, symName: __ZN8GeometryD2Ev, symObjAddr: 0xD0, symBinAddr: 0x100008420, symSize: 0x70 }
  - { offsetInCU: 0x6F14, offset: 0x1E03A, size: 0x8, addend: 0x0, symName: __ZNSt3__16vectorIjNS_9allocatorIjEEED1B7v160006Ev, symObjAddr: 0x140, symBinAddr: 0x100008490, symSize: 0x20 }
  - { offsetInCU: 0x6F3C, offset: 0x1E062, size: 0x8, addend: 0x0, symName: __ZNSt3__16vectorIfNS_9allocatorIfEEED1B7v160006Ev, symObjAddr: 0x160, symBinAddr: 0x1000084B0, symSize: 0x20 }
  - { offsetInCU: 0x6F64, offset: 0x1E08A, size: 0x8, addend: 0x0, symName: __ZN8GeometryD1Ev, symObjAddr: 0x180, symBinAddr: 0x1000084D0, symSize: 0x20 }
  - { offsetInCU: 0x6F8E, offset: 0x1E0B4, size: 0x8, addend: 0x0, symName: __ZN8Geometry9AddVertexEfffff, symObjAddr: 0x1A0, symBinAddr: 0x1000084F0, symSize: 0x180 }
  - { offsetInCU: 0x6FF9, offset: 0x1E11F, size: 0x8, addend: 0x0, symName: __ZNSt3__16vectorIfNS_9allocatorIfEEE9push_backB7v160006ERKf, symObjAddr: 0x320, symBinAddr: 0x100008670, symSize: 0x60 }
  - { offsetInCU: 0x702F, offset: 0x1E155, size: 0x8, addend: 0x0, symName: __ZNSt3__16vectorIfNS_9allocatorIfEEE9push_backB7v160006EOf, symObjAddr: 0x380, symBinAddr: 0x1000086D0, symSize: 0x60 }
  - { offsetInCU: 0x7066, offset: 0x1E18C, size: 0x8, addend: 0x0, symName: __ZN8Geometry8AddIndexEj, symObjAddr: 0x3E0, symBinAddr: 0x100008730, symSize: 0x90 }
  - { offsetInCU: 0x709A, offset: 0x1E1C0, size: 0x8, addend: 0x0, symName: __ZNKSt3__16vectorIfNS_9allocatorIfEEE4sizeB7v160006Ev, symObjAddr: 0x470, symBinAddr: 0x1000087C0, symSize: 0x20 }
  - { offsetInCU: 0x70BD, offset: 0x1E1E3, size: 0x8, addend: 0x0, symName: __ZNSt3__16vectorIjNS_9allocatorIjEEE9push_backB7v160006ERKj, symObjAddr: 0x490, symBinAddr: 0x1000087E0, symSize: 0x60 }
  - { offsetInCU: 0x70F4, offset: 0x1E21A, size: 0x8, addend: 0x0, symName: __ZN8Geometry16GetBufferDataPtrEv, symObjAddr: 0x530, symBinAddr: 0x100008840, symSize: 0x20 }
  - { offsetInCU: 0x711A, offset: 0x1E240, size: 0x8, addend: 0x0, symName: __ZNSt3__16vectorIfNS_9allocatorIfEEE4dataB7v160006Ev, symObjAddr: 0x550, symBinAddr: 0x100008860, symSize: 0x20 }
  - { offsetInCU: 0x713E, offset: 0x1E264, size: 0x8, addend: 0x0, symName: __ZN8Geometry17GetBufferDataSizeEv, symObjAddr: 0x570, symBinAddr: 0x100008880, symSize: 0x20 }
  - { offsetInCU: 0x7164, offset: 0x1E28A, size: 0x8, addend: 0x0, symName: __ZN8Geometry20GetBufferSizeInBytesEv, symObjAddr: 0x590, symBinAddr: 0x1000088A0, symSize: 0x20 }
  - { offsetInCU: 0x718A, offset: 0x1E2B0, size: 0x8, addend: 0x0, symName: __ZN8Geometry3GenEv, symObjAddr: 0x5B0, symBinAddr: 0x1000088C0, symSize: 0x2D0 }
  - { offsetInCU: 0x71DC, offset: 0x1E302, size: 0x8, addend: 0x0, symName: __ZNSt3__16vectorIfNS_9allocatorIfEEEixB7v160006Em, symObjAddr: 0x880, symBinAddr: 0x100008B90, symSize: 0x20 }
  - { offsetInCU: 0x7213, offset: 0x1E339, size: 0x8, addend: 0x0, symName: __ZN8Geometry12MakeTriangleEjjj, symObjAddr: 0x8A0, symBinAddr: 0x100008BB0, symSize: 0xC90 }
  - { offsetInCU: 0x7360, offset: 0x1E486, size: 0x8, addend: 0x0, symName: __ZN8Geometry14GetIndicesSizeEv, symObjAddr: 0x16B0, symBinAddr: 0x100009840, symSize: 0x30 }
  - { offsetInCU: 0x7386, offset: 0x1E4AC, size: 0x8, addend: 0x0, symName: __ZNKSt3__16vectorIjNS_9allocatorIjEEE4sizeB7v160006Ev, symObjAddr: 0x16E0, symBinAddr: 0x100009870, symSize: 0x20 }
  - { offsetInCU: 0x73AA, offset: 0x1E4D0, size: 0x8, addend: 0x0, symName: __ZN8Geometry17GetIndicesDataPtrEv, symObjAddr: 0x1700, symBinAddr: 0x100009890, symSize: 0x30 }
  - { offsetInCU: 0x73D0, offset: 0x1E4F6, size: 0x8, addend: 0x0, symName: __ZNSt3__16vectorIjNS_9allocatorIjEEE4dataB7v160006Ev, symObjAddr: 0x1730, symBinAddr: 0x1000098C0, symSize: 0x20 }
  - { offsetInCU: 0x73F4, offset: 0x1E51A, size: 0x8, addend: 0x0, symName: __ZNSt3__16vectorIfNS_9allocatorIfEEEC2B7v160006Ev, symObjAddr: 0x17C0, symBinAddr: 0x1000098E0, symSize: 0x60 }
  - { offsetInCU: 0x7426, offset: 0x1E54C, size: 0x8, addend: 0x0, symName: __ZNSt3__117__compressed_pairIPfNS_9allocatorIfEEEC1B7v160006IDnNS_18__default_init_tagEEEOT_OT0_, symObjAddr: 0x1820, symBinAddr: 0x100009940, symSize: 0x30 }
  - { offsetInCU: 0x747C, offset: 0x1E5A2, size: 0x8, addend: 0x0, symName: __ZNSt3__117__compressed_pairIPfNS_9allocatorIfEEEC2B7v160006IDnNS_18__default_init_tagEEEOT_OT0_, symObjAddr: 0x1870, symBinAddr: 0x100009980, symSize: 0x40 }
  - { offsetInCU: 0x74D2, offset: 0x1E5F8, size: 0x8, addend: 0x0, symName: __ZNSt3__122__compressed_pair_elemIPfLi0ELb0EEC2B7v160006IDnvEEOT_, symObjAddr: 0x18B0, symBinAddr: 0x1000099C0, symSize: 0x20 }
  - { offsetInCU: 0x7512, offset: 0x1E638, size: 0x8, addend: 0x0, symName: __ZNSt3__122__compressed_pair_elemINS_9allocatorIfEELi1ELb1EEC2B7v160006ENS_18__default_init_tagE, symObjAddr: 0x18D0, symBinAddr: 0x1000099E0, symSize: 0x20 }
  - { offsetInCU: 0x7544, offset: 0x1E66A, size: 0x8, addend: 0x0, symName: __ZNSt3__19allocatorIfEC2B7v160006Ev, symObjAddr: 0x18F0, symBinAddr: 0x100009A00, symSize: 0x20 }
  - { offsetInCU: 0x756C, offset: 0x1E692, size: 0x8, addend: 0x0, symName: __ZNSt3__116__non_trivial_ifILb1ENS_9allocatorIfEEEC2B7v160006Ev, symObjAddr: 0x1910, symBinAddr: 0x100009A20, symSize: 0x10 }
  - { offsetInCU: 0x7594, offset: 0x1E6BA, size: 0x8, addend: 0x0, symName: __ZNSt3__16vectorIjNS_9allocatorIjEEEC2B7v160006Ev, symObjAddr: 0x1920, symBinAddr: 0x100009A30, symSize: 0x60 }
  - { offsetInCU: 0x75BC, offset: 0x1E6E2, size: 0x8, addend: 0x0, symName: __ZNSt3__117__compressed_pairIPjNS_9allocatorIjEEEC1B7v160006IDnNS_18__default_init_tagEEEOT_OT0_, symObjAddr: 0x1980, symBinAddr: 0x100009A90, symSize: 0x30 }
  - { offsetInCU: 0x7612, offset: 0x1E738, size: 0x8, addend: 0x0, symName: __ZNSt3__117__compressed_pairIPjNS_9allocatorIjEEEC2B7v160006IDnNS_18__default_init_tagEEEOT_OT0_, symObjAddr: 0x19C0, symBinAddr: 0x100009AD0, symSize: 0x40 }
  - { offsetInCU: 0x7668, offset: 0x1E78E, size: 0x8, addend: 0x0, symName: __ZNSt3__122__compressed_pair_elemIPjLi0ELb0EEC2B7v160006IDnvEEOT_, symObjAddr: 0x1A00, symBinAddr: 0x100009B10, symSize: 0x20 }
  - { offsetInCU: 0x76A8, offset: 0x1E7CE, size: 0x8, addend: 0x0, symName: __ZNSt3__122__compressed_pair_elemINS_9allocatorIjEELi1ELb1EEC2B7v160006ENS_18__default_init_tagE, symObjAddr: 0x1A20, symBinAddr: 0x100009B30, symSize: 0x20 }
  - { offsetInCU: 0x76DA, offset: 0x1E800, size: 0x8, addend: 0x0, symName: __ZNSt3__19allocatorIjEC2B7v160006Ev, symObjAddr: 0x1A40, symBinAddr: 0x100009B50, symSize: 0x20 }
  - { offsetInCU: 0x7702, offset: 0x1E828, size: 0x8, addend: 0x0, symName: __ZNSt3__116__non_trivial_ifILb1ENS_9allocatorIjEEEC2B7v160006Ev, symObjAddr: 0x1A60, symBinAddr: 0x100009B70, symSize: 0x10 }
  - { offsetInCU: 0x772A, offset: 0x1E850, size: 0x8, addend: 0x0, symName: __ZNSt3__16vectorIfNS_9allocatorIfEEED2B7v160006Ev, symObjAddr: 0x1A70, symBinAddr: 0x100009B80, symSize: 0x40 }
  - { offsetInCU: 0x7752, offset: 0x1E878, size: 0x8, addend: 0x0, symName: __ZNSt3__16vectorIfNS_9allocatorIfEEE16__destroy_vectorC1ERS3_, symObjAddr: 0x1AB0, symBinAddr: 0x100009BC0, symSize: 0x30 }
  - { offsetInCU: 0x7789, offset: 0x1E8AF, size: 0x8, addend: 0x0, symName: __ZNSt3__16vectorIfNS_9allocatorIfEEE16__destroy_vectorclB7v160006Ev, symObjAddr: 0x1AE0, symBinAddr: 0x100009BF0, symSize: 0x90 }
  - { offsetInCU: 0x77AD, offset: 0x1E8D3, size: 0x8, addend: 0x0, symName: __ZNSt3__16vectorIfNS_9allocatorIfEEE16__destroy_vectorC2ERS3_, symObjAddr: 0x1B70, symBinAddr: 0x100009C80, symSize: 0x20 }
  - { offsetInCU: 0x77E4, offset: 0x1E90A, size: 0x8, addend: 0x0, symName: __ZNKSt3__16vectorIfNS_9allocatorIfEEE17__annotate_deleteB7v160006Ev, symObjAddr: 0x1B90, symBinAddr: 0x100009CA0, symSize: 0xB0 }
  - { offsetInCU: 0x7808, offset: 0x1E92E, size: 0x8, addend: 0x0, symName: __ZNSt3__16vectorIfNS_9allocatorIfEEE7__clearB7v160006Ev, symObjAddr: 0x1C50, symBinAddr: 0x100009D60, symSize: 0x20 }
  - { offsetInCU: 0x782C, offset: 0x1E952, size: 0x8, addend: 0x0, symName: __ZNSt3__116allocator_traitsINS_9allocatorIfEEE10deallocateB7v160006ERS2_Pfm, symObjAddr: 0x1C70, symBinAddr: 0x100009D80, symSize: 0x30 }
  - { offsetInCU: 0x786E, offset: 0x1E994, size: 0x8, addend: 0x0, symName: __ZNSt3__16vectorIfNS_9allocatorIfEEE7__allocB7v160006Ev, symObjAddr: 0x1CA0, symBinAddr: 0x100009DB0, symSize: 0x20 }
  - { offsetInCU: 0x7892, offset: 0x1E9B8, size: 0x8, addend: 0x0, symName: __ZNKSt3__16vectorIfNS_9allocatorIfEEE8capacityB7v160006Ev, symObjAddr: 0x1CC0, symBinAddr: 0x100009DD0, symSize: 0x30 }
  - { offsetInCU: 0x78B6, offset: 0x1E9DC, size: 0x8, addend: 0x0, symName: __ZNKSt3__16vectorIfNS_9allocatorIfEEE31__annotate_contiguous_containerB7v160006EPKvS5_S5_S5_, symObjAddr: 0x1CF0, symBinAddr: 0x100009E00, symSize: 0x20 }
  - { offsetInCU: 0x790A, offset: 0x1EA30, size: 0x8, addend: 0x0, symName: __ZNKSt3__16vectorIfNS_9allocatorIfEEE4dataB7v160006Ev, symObjAddr: 0x1D10, symBinAddr: 0x100009E20, symSize: 0x20 }
  - { offsetInCU: 0x792E, offset: 0x1EA54, size: 0x8, addend: 0x0, symName: __ZNSt3__16vectorIfNS_9allocatorIfEEE22__base_destruct_at_endB7v160006EPf, symObjAddr: 0x1D40, symBinAddr: 0x100009E50, symSize: 0x80 }
  - { offsetInCU: 0x7970, offset: 0x1EA96, size: 0x8, addend: 0x0, symName: __ZNSt3__116allocator_traitsINS_9allocatorIfEEE7destroyB7v160006IfvEEvRS2_PT_, symObjAddr: 0x1DC0, symBinAddr: 0x100009ED0, symSize: 0x30 }
  - { offsetInCU: 0x79AD, offset: 0x1EAD3, size: 0x8, addend: 0x0, symName: __ZNSt3__19allocatorIfE7destroyB7v160006EPf, symObjAddr: 0x1DF0, symBinAddr: 0x100009F00, symSize: 0x10 }
  - { offsetInCU: 0x79DF, offset: 0x1EB05, size: 0x8, addend: 0x0, symName: __ZNSt3__19allocatorIfE10deallocateB7v160006EPfm, symObjAddr: 0x1E00, symBinAddr: 0x100009F10, symSize: 0x40 }
  - { offsetInCU: 0x7A1F, offset: 0x1EB45, size: 0x8, addend: 0x0, symName: __ZNSt3__117__compressed_pairIPfNS_9allocatorIfEEE6secondB7v160006Ev, symObjAddr: 0x1F60, symBinAddr: 0x100009F50, symSize: 0x20 }
  - { offsetInCU: 0x7A43, offset: 0x1EB69, size: 0x8, addend: 0x0, symName: __ZNSt3__122__compressed_pair_elemINS_9allocatorIfEELi1ELb1EE5__getB7v160006Ev, symObjAddr: 0x1F80, symBinAddr: 0x100009F70, symSize: 0x10 }
  - { offsetInCU: 0x7A67, offset: 0x1EB8D, size: 0x8, addend: 0x0, symName: __ZNKSt3__16vectorIfNS_9allocatorIfEEE9__end_capB7v160006Ev, symObjAddr: 0x1F90, symBinAddr: 0x100009F80, symSize: 0x20 }
  - { offsetInCU: 0x7A8B, offset: 0x1EBB1, size: 0x8, addend: 0x0, symName: __ZNKSt3__117__compressed_pairIPfNS_9allocatorIfEEE5firstB7v160006Ev, symObjAddr: 0x1FB0, symBinAddr: 0x100009FA0, symSize: 0x20 }
  - { offsetInCU: 0x7AAF, offset: 0x1EBD5, size: 0x8, addend: 0x0, symName: __ZNKSt3__122__compressed_pair_elemIPfLi0ELb0EE5__getB7v160006Ev, symObjAddr: 0x1FD0, symBinAddr: 0x100009FC0, symSize: 0x10 }
  - { offsetInCU: 0x7AD3, offset: 0x1EBF9, size: 0x8, addend: 0x0, symName: __ZNSt3__16vectorIjNS_9allocatorIjEEED2B7v160006Ev, symObjAddr: 0x1FE0, symBinAddr: 0x100009FD0, symSize: 0x40 }
  - { offsetInCU: 0x7AFB, offset: 0x1EC21, size: 0x8, addend: 0x0, symName: __ZNSt3__16vectorIjNS_9allocatorIjEEE16__destroy_vectorC1ERS3_, symObjAddr: 0x2020, symBinAddr: 0x10000A010, symSize: 0x30 }
  - { offsetInCU: 0x7B32, offset: 0x1EC58, size: 0x8, addend: 0x0, symName: __ZNSt3__16vectorIjNS_9allocatorIjEEE16__destroy_vectorclB7v160006Ev, symObjAddr: 0x2050, symBinAddr: 0x10000A040, symSize: 0x90 }
  - { offsetInCU: 0x7B56, offset: 0x1EC7C, size: 0x8, addend: 0x0, symName: __ZNSt3__16vectorIjNS_9allocatorIjEEE16__destroy_vectorC2ERS3_, symObjAddr: 0x20E0, symBinAddr: 0x10000A0D0, symSize: 0x20 }
  - { offsetInCU: 0x7B8D, offset: 0x1ECB3, size: 0x8, addend: 0x0, symName: __ZNKSt3__16vectorIjNS_9allocatorIjEEE17__annotate_deleteB7v160006Ev, symObjAddr: 0x2100, symBinAddr: 0x10000A0F0, symSize: 0xB0 }
  - { offsetInCU: 0x7BB1, offset: 0x1ECD7, size: 0x8, addend: 0x0, symName: __ZNSt3__16vectorIjNS_9allocatorIjEEE7__clearB7v160006Ev, symObjAddr: 0x21C0, symBinAddr: 0x10000A1B0, symSize: 0x20 }
  - { offsetInCU: 0x7BD5, offset: 0x1ECFB, size: 0x8, addend: 0x0, symName: __ZNSt3__116allocator_traitsINS_9allocatorIjEEE10deallocateB7v160006ERS2_Pjm, symObjAddr: 0x21E0, symBinAddr: 0x10000A1D0, symSize: 0x30 }
  - { offsetInCU: 0x7C17, offset: 0x1ED3D, size: 0x8, addend: 0x0, symName: __ZNSt3__16vectorIjNS_9allocatorIjEEE7__allocB7v160006Ev, symObjAddr: 0x2210, symBinAddr: 0x10000A200, symSize: 0x20 }
  - { offsetInCU: 0x7C3B, offset: 0x1ED61, size: 0x8, addend: 0x0, symName: __ZNKSt3__16vectorIjNS_9allocatorIjEEE8capacityB7v160006Ev, symObjAddr: 0x2230, symBinAddr: 0x10000A220, symSize: 0x30 }
  - { offsetInCU: 0x7C5F, offset: 0x1ED85, size: 0x8, addend: 0x0, symName: __ZNKSt3__16vectorIjNS_9allocatorIjEEE31__annotate_contiguous_containerB7v160006EPKvS5_S5_S5_, symObjAddr: 0x2260, symBinAddr: 0x10000A250, symSize: 0x20 }
  - { offsetInCU: 0x7CB3, offset: 0x1EDD9, size: 0x8, addend: 0x0, symName: __ZNKSt3__16vectorIjNS_9allocatorIjEEE4dataB7v160006Ev, symObjAddr: 0x2280, symBinAddr: 0x10000A270, symSize: 0x20 }
  - { offsetInCU: 0x7CD7, offset: 0x1EDFD, size: 0x8, addend: 0x0, symName: __ZNSt3__16vectorIjNS_9allocatorIjEEE22__base_destruct_at_endB7v160006EPj, symObjAddr: 0x22B0, symBinAddr: 0x10000A2A0, symSize: 0x80 }
  - { offsetInCU: 0x7D19, offset: 0x1EE3F, size: 0x8, addend: 0x0, symName: __ZNSt3__116allocator_traitsINS_9allocatorIjEEE7destroyB7v160006IjvEEvRS2_PT_, symObjAddr: 0x2330, symBinAddr: 0x10000A320, symSize: 0x30 }
  - { offsetInCU: 0x7D56, offset: 0x1EE7C, size: 0x8, addend: 0x0, symName: __ZNSt3__19allocatorIjE7destroyB7v160006EPj, symObjAddr: 0x2360, symBinAddr: 0x10000A350, symSize: 0x10 }
  - { offsetInCU: 0x7D88, offset: 0x1EEAE, size: 0x8, addend: 0x0, symName: __ZNSt3__19allocatorIjE10deallocateB7v160006EPjm, symObjAddr: 0x2370, symBinAddr: 0x10000A360, symSize: 0x40 }
  - { offsetInCU: 0x7DC8, offset: 0x1EEEE, size: 0x8, addend: 0x0, symName: __ZNSt3__117__compressed_pairIPjNS_9allocatorIjEEE6secondB7v160006Ev, symObjAddr: 0x23B0, symBinAddr: 0x10000A3A0, symSize: 0x20 }
  - { offsetInCU: 0x7DEC, offset: 0x1EF12, size: 0x8, addend: 0x0, symName: __ZNSt3__122__compressed_pair_elemINS_9allocatorIjEELi1ELb1EE5__getB7v160006Ev, symObjAddr: 0x23D0, symBinAddr: 0x10000A3C0, symSize: 0x10 }
  - { offsetInCU: 0x7E10, offset: 0x1EF36, size: 0x8, addend: 0x0, symName: __ZNKSt3__16vectorIjNS_9allocatorIjEEE9__end_capB7v160006Ev, symObjAddr: 0x23E0, symBinAddr: 0x10000A3D0, symSize: 0x20 }
  - { offsetInCU: 0x7E34, offset: 0x1EF5A, size: 0x8, addend: 0x0, symName: __ZNKSt3__117__compressed_pairIPjNS_9allocatorIjEEE5firstB7v160006Ev, symObjAddr: 0x2400, symBinAddr: 0x10000A3F0, symSize: 0x20 }
  - { offsetInCU: 0x7E58, offset: 0x1EF7E, size: 0x8, addend: 0x0, symName: __ZNKSt3__122__compressed_pair_elemIPjLi0ELb0EE5__getB7v160006Ev, symObjAddr: 0x2420, symBinAddr: 0x10000A410, symSize: 0x10 }
  - { offsetInCU: 0x7E7C, offset: 0x1EFA2, size: 0x8, addend: 0x0, symName: __ZNSt3__16vectorIfNS_9allocatorIfEEE9__end_capB7v160006Ev, symObjAddr: 0x2430, symBinAddr: 0x10000A420, symSize: 0x20 }
  - { offsetInCU: 0x7EA0, offset: 0x1EFC6, size: 0x8, addend: 0x0, symName: __ZNSt3__16vectorIfNS_9allocatorIfEEE22__construct_one_at_endB7v160006IJRKfEEEvDpOT_, symObjAddr: 0x2450, symBinAddr: 0x10000A440, symSize: 0x90 }
  - { offsetInCU: 0x7EEC, offset: 0x1F012, size: 0x8, addend: 0x0, symName: __ZNSt3__16vectorIfNS_9allocatorIfEEE21__push_back_slow_pathIRKfEEvOT_, symObjAddr: 0x24E0, symBinAddr: 0x10000A4D0, symSize: 0xD0 }
  - { offsetInCU: 0x7F4A, offset: 0x1F070, size: 0x8, addend: 0x0, symName: __ZNSt3__117__compressed_pairIPfNS_9allocatorIfEEE5firstB7v160006Ev, symObjAddr: 0x25B0, symBinAddr: 0x10000A5A0, symSize: 0x20 }
  - { offsetInCU: 0x7F6E, offset: 0x1F094, size: 0x8, addend: 0x0, symName: __ZNSt3__122__compressed_pair_elemIPfLi0ELb0EE5__getB7v160006Ev, symObjAddr: 0x25D0, symBinAddr: 0x10000A5C0, symSize: 0x10 }
  - { offsetInCU: 0x7FAB, offset: 0x1F0D1, size: 0x8, addend: 0x0, symName: __ZNSt3__16vectorIfNS_9allocatorIfEEE21_ConstructTransactionC1B7v160006ERS3_m, symObjAddr: 0x25E0, symBinAddr: 0x10000A5D0, symSize: 0x30 }
  - { offsetInCU: 0x7FF1, offset: 0x1F117, size: 0x8, addend: 0x0, symName: __ZNSt3__116allocator_traitsINS_9allocatorIfEEE9constructB7v160006IfJRKfEvEEvRS2_PT_DpOT0_, symObjAddr: 0x2610, symBinAddr: 0x10000A600, symSize: 0x30 }
  - { offsetInCU: 0x8048, offset: 0x1F16E, size: 0x8, addend: 0x0, symName: __ZNSt3__16vectorIfNS_9allocatorIfEEE21_ConstructTransactionD1B7v160006Ev, symObjAddr: 0x2640, symBinAddr: 0x10000A630, symSize: 0x20 }
  - { offsetInCU: 0x8070, offset: 0x1F196, size: 0x8, addend: 0x0, symName: __ZNSt3__16vectorIfNS_9allocatorIfEEE21_ConstructTransactionC2B7v160006ERS3_m, symObjAddr: 0x2660, symBinAddr: 0x10000A650, symSize: 0x40 }
  - { offsetInCU: 0x80B6, offset: 0x1F1DC, size: 0x8, addend: 0x0, symName: __ZNSt3__19allocatorIfE9constructB7v160006IfJRKfEEEvPT_DpOT0_, symObjAddr: 0x26A0, symBinAddr: 0x10000A690, symSize: 0x30 }
  - { offsetInCU: 0x810A, offset: 0x1F230, size: 0x8, addend: 0x0, symName: __ZNSt3__16vectorIfNS_9allocatorIfEEE21_ConstructTransactionD2B7v160006Ev, symObjAddr: 0x26D0, symBinAddr: 0x10000A6C0, symSize: 0x20 }
  - { offsetInCU: 0x8131, offset: 0x1F257, size: 0x8, addend: 0x0, symName: __ZNKSt3__16vectorIfNS_9allocatorIfEEE11__recommendB7v160006Em, symObjAddr: 0x26F0, symBinAddr: 0x10000A6E0, symSize: 0xA0 }
  - { offsetInCU: 0x8186, offset: 0x1F2AC, size: 0x8, addend: 0x0, symName: __ZNSt3__114__split_bufferIfRNS_9allocatorIfEEEC1EmmS3_, symObjAddr: 0x2790, symBinAddr: 0x10000A780, symSize: 0x40 }
  - { offsetInCU: 0x81DB, offset: 0x1F301, size: 0x8, addend: 0x0, symName: __ZNSt3__114__split_bufferIfRNS_9allocatorIfEEED1Ev, symObjAddr: 0x2900, symBinAddr: 0x10000A8F0, symSize: 0x20 }
  - { offsetInCU: 0x8205, offset: 0x1F32B, size: 0x8, addend: 0x0, symName: __ZNKSt3__16vectorIfNS_9allocatorIfEEE8max_sizeEv, symObjAddr: 0x2920, symBinAddr: 0x10000A910, symSize: 0x60 }
  - { offsetInCU: 0x822D, offset: 0x1F353, size: 0x8, addend: 0x0, symName: __ZNKSt3__16vectorIfNS_9allocatorIfEEE20__throw_length_errorB7v160006Ev, symObjAddr: 0x2980, symBinAddr: 0x10000A970, symSize: 0x20 }
  - { offsetInCU: 0x825B, offset: 0x1F381, size: 0x8, addend: 0x0, symName: __ZNSt3__116allocator_traitsINS_9allocatorIfEEE8max_sizeB7v160006IS2_vEEmRKS2_, symObjAddr: 0x2A00, symBinAddr: 0x10000A990, symSize: 0x20 }
  - { offsetInCU: 0x8289, offset: 0x1F3AF, size: 0x8, addend: 0x0, symName: __ZNKSt3__16vectorIfNS_9allocatorIfEEE7__allocB7v160006Ev, symObjAddr: 0x2A20, symBinAddr: 0x10000A9B0, symSize: 0x20 }
  - { offsetInCU: 0x82AD, offset: 0x1F3D3, size: 0x8, addend: 0x0, symName: __ZNKSt3__19allocatorIfE8max_sizeB7v160006Ev, symObjAddr: 0x2AD0, symBinAddr: 0x10000A9D0, symSize: 0x20 }
  - { offsetInCU: 0x82D1, offset: 0x1F3F7, size: 0x8, addend: 0x0, symName: __ZNKSt3__117__compressed_pairIPfNS_9allocatorIfEEE6secondB7v160006Ev, symObjAddr: 0x2AF0, symBinAddr: 0x10000A9F0, symSize: 0x20 }
  - { offsetInCU: 0x82F5, offset: 0x1F41B, size: 0x8, addend: 0x0, symName: __ZNKSt3__122__compressed_pair_elemINS_9allocatorIfEELi1ELb1EE5__getB7v160006Ev, symObjAddr: 0x2B10, symBinAddr: 0x10000AA10, symSize: 0x10 }
  - { offsetInCU: 0x8319, offset: 0x1F43F, size: 0x8, addend: 0x0, symName: __ZNSt3__114__split_bufferIfRNS_9allocatorIfEEEC2EmmS3_, symObjAddr: 0x2C60, symBinAddr: 0x10000AA20, symSize: 0xD0 }
  - { offsetInCU: 0x838C, offset: 0x1F4B2, size: 0x8, addend: 0x0, symName: __ZNSt3__117__compressed_pairIPfRNS_9allocatorIfEEEC1B7v160006IDnS4_EEOT_OT0_, symObjAddr: 0x2D30, symBinAddr: 0x10000AAF0, symSize: 0x30 }
  - { offsetInCU: 0x83E2, offset: 0x1F508, size: 0x8, addend: 0x0, symName: __ZNSt3__114__split_bufferIfRNS_9allocatorIfEEE7__allocB7v160006Ev, symObjAddr: 0x2DA0, symBinAddr: 0x10000AB60, symSize: 0x20 }
  - { offsetInCU: 0x8406, offset: 0x1F52C, size: 0x8, addend: 0x0, symName: __ZNSt3__114__split_bufferIfRNS_9allocatorIfEEE9__end_capB7v160006Ev, symObjAddr: 0x2DC0, symBinAddr: 0x10000AB80, symSize: 0x20 }
  - { offsetInCU: 0x842A, offset: 0x1F550, size: 0x8, addend: 0x0, symName: __ZNSt3__117__compressed_pairIPfRNS_9allocatorIfEEEC2B7v160006IDnS4_EEOT_OT0_, symObjAddr: 0x2DE0, symBinAddr: 0x10000ABA0, symSize: 0x40 }
  - { offsetInCU: 0x8480, offset: 0x1F5A6, size: 0x8, addend: 0x0, symName: __ZNSt3__122__compressed_pair_elemIRNS_9allocatorIfEELi1ELb0EEC2B7v160006IS3_vEEOT_, symObjAddr: 0x2E20, symBinAddr: 0x10000ABE0, symSize: 0x20 }
  - { offsetInCU: 0x84C0, offset: 0x1F5E6, size: 0x8, addend: 0x0, symName: __ZNSt3__19allocatorIfE8allocateB7v160006Em, symObjAddr: 0x2E40, symBinAddr: 0x10000AC00, symSize: 0x50 }
  - { offsetInCU: 0x84F2, offset: 0x1F618, size: 0x8, addend: 0x0, symName: __ZNSt3__117__compressed_pairIPfRNS_9allocatorIfEEE6secondB7v160006Ev, symObjAddr: 0x2F80, symBinAddr: 0x10000AC50, symSize: 0x20 }
  - { offsetInCU: 0x8516, offset: 0x1F63C, size: 0x8, addend: 0x0, symName: __ZNSt3__122__compressed_pair_elemIRNS_9allocatorIfEELi1ELb0EE5__getB7v160006Ev, symObjAddr: 0x2FA0, symBinAddr: 0x10000AC70, symSize: 0x20 }
  - { offsetInCU: 0x853A, offset: 0x1F660, size: 0x8, addend: 0x0, symName: __ZNSt3__117__compressed_pairIPfRNS_9allocatorIfEEE5firstB7v160006Ev, symObjAddr: 0x2FC0, symBinAddr: 0x10000AC90, symSize: 0x20 }
  - { offsetInCU: 0x855E, offset: 0x1F684, size: 0x8, addend: 0x0, symName: __ZNSt3__116reverse_iteratorIPfEC1B7v160006ES1_, symObjAddr: 0x3050, symBinAddr: 0x10000AD20, symSize: 0x30 }
  - { offsetInCU: 0x8594, offset: 0x1F6BA, size: 0x8, addend: 0x0, symName: __ZNKSt3__116reverse_iteratorIPfE4baseB7v160006Ev, symObjAddr: 0x3080, symBinAddr: 0x10000AD50, symSize: 0x20 }
  - { offsetInCU: 0x85B8, offset: 0x1F6DE, size: 0x8, addend: 0x0, symName: __ZNKSt3__16vectorIfNS_9allocatorIfEEE14__annotate_newB7v160006Em, symObjAddr: 0x30E0, symBinAddr: 0x10000ADB0, symSize: 0xB0 }
  - { offsetInCU: 0x860E, offset: 0x1F734, size: 0x8, addend: 0x0, symName: __ZNKSt3__111__move_loopINS_17_ClassicAlgPolicyEEclB7v160006INS_16reverse_iteratorIPfEES6_S6_EENS_4pairIT_T1_EES8_T0_S9_, symObjAddr: 0x35E0, symBinAddr: 0x10000B2B0, symSize: 0xA0 }
  - { offsetInCU: 0x867C, offset: 0x1F7A2, size: 0x8, addend: 0x0, symName: __ZNSt3__18_IterOpsINS_17_ClassicAlgPolicyEE11__iter_moveB7v160006IRNS_16reverse_iteratorIPfEEEENS_9enable_ifIXsr12is_referenceIDTdeclsr3stdE7declvalIRT_EEEEE5valueEDTclsr3stdE4movedeclsr3stdE7declvalISA_EEEEE4typeEOS9_, symObjAddr: 0x3800, symBinAddr: 0x10000B4D0, symSize: 0x20 }
  - { offsetInCU: 0x86A8, offset: 0x1F7CE, size: 0x8, addend: 0x0, symName: __ZNKSt3__116reverse_iteratorIPfEdeB7v160006Ev, symObjAddr: 0x3820, symBinAddr: 0x10000B4F0, symSize: 0x30 }
  - { offsetInCU: 0x86DB, offset: 0x1F801, size: 0x8, addend: 0x0, symName: __ZNSt3__116reverse_iteratorIPfEppB7v160006Ev, symObjAddr: 0x3850, symBinAddr: 0x10000B520, symSize: 0x20 }
  - { offsetInCU: 0x86FF, offset: 0x1F825, size: 0x8, addend: 0x0, symName: __ZNSt3__18_IterOpsINS_17_ClassicAlgPolicyEE25__validate_iter_referenceB7v160006IRNS_16reverse_iteratorIPfEEEEvv, symObjAddr: 0x3870, symBinAddr: 0x10000B540, symSize: 0x10 }
  - { offsetInCU: 0x871D, offset: 0x1F843, size: 0x8, addend: 0x0, symName: __ZNSt3__118__unwrap_iter_implINS_16reverse_iteratorIPfEELb0EE8__unwrapB7v160006ES3_, symObjAddr: 0x3880, symBinAddr: 0x10000B550, symSize: 0x20 }
  - { offsetInCU: 0x8745, offset: 0x1F86B, size: 0x8, addend: 0x0, symName: __ZNSt3__14pairINS_16reverse_iteratorIPfEES3_EC1B7v160006IS3_S3_LPv0EEEOT_OT0_, symObjAddr: 0x38A0, symBinAddr: 0x10000B570, symSize: 0x30 }
  - { offsetInCU: 0x87A2, offset: 0x1F8C8, size: 0x8, addend: 0x0, symName: __ZNSt3__14pairINS_16reverse_iteratorIPfEES3_EC2B7v160006IS3_S3_LPv0EEEOT_OT0_, symObjAddr: 0x38D0, symBinAddr: 0x10000B5A0, symSize: 0x40 }
  - { offsetInCU: 0x87FF, offset: 0x1F925, size: 0x8, addend: 0x0, symName: __ZNSt3__118__unwrap_iter_implINS_16reverse_iteratorIPfEELb0EE8__rewrapB7v160006ES3_S3_, symObjAddr: 0x3910, symBinAddr: 0x10000B5E0, symSize: 0x30 }
  - { offsetInCU: 0x882C, offset: 0x1F952, size: 0x8, addend: 0x0, symName: __ZNSt3__116reverse_iteratorIPfEC2B7v160006ES1_, symObjAddr: 0x3940, symBinAddr: 0x10000B610, symSize: 0x30 }
  - { offsetInCU: 0x8862, offset: 0x1F988, size: 0x8, addend: 0x0, symName: __ZNSt3__114__split_bufferIfRNS_9allocatorIfEEED2Ev, symObjAddr: 0x3970, symBinAddr: 0x10000B640, symSize: 0x70 }
  - { offsetInCU: 0x888D, offset: 0x1F9B3, size: 0x8, addend: 0x0, symName: __ZNSt3__114__split_bufferIfRNS_9allocatorIfEEE5clearB7v160006Ev, symObjAddr: 0x39E0, symBinAddr: 0x10000B6B0, symSize: 0x20 }
  - { offsetInCU: 0x88B1, offset: 0x1F9D7, size: 0x8, addend: 0x0, symName: __ZNKSt3__114__split_bufferIfRNS_9allocatorIfEEE8capacityB7v160006Ev, symObjAddr: 0x3A00, symBinAddr: 0x10000B6D0, symSize: 0x30 }
  - { offsetInCU: 0x88D5, offset: 0x1F9FB, size: 0x8, addend: 0x0, symName: __ZNSt3__114__split_bufferIfRNS_9allocatorIfEEE17__destruct_at_endB7v160006EPf, symObjAddr: 0x3A30, symBinAddr: 0x10000B700, symSize: 0x30 }
  - { offsetInCU: 0x8906, offset: 0x1FA2C, size: 0x8, addend: 0x0, symName: __ZNSt3__114__split_bufferIfRNS_9allocatorIfEEE17__destruct_at_endB7v160006EPfNS_17integral_constantIbLb0EEE, symObjAddr: 0x3A60, symBinAddr: 0x10000B730, symSize: 0x80 }
  - { offsetInCU: 0x8946, offset: 0x1FA6C, size: 0x8, addend: 0x0, symName: __ZNKSt3__114__split_bufferIfRNS_9allocatorIfEEE9__end_capB7v160006Ev, symObjAddr: 0x3AE0, symBinAddr: 0x10000B7B0, symSize: 0x20 }
  - { offsetInCU: 0x896A, offset: 0x1FA90, size: 0x8, addend: 0x0, symName: __ZNKSt3__117__compressed_pairIPfRNS_9allocatorIfEEE5firstB7v160006Ev, symObjAddr: 0x3B00, symBinAddr: 0x10000B7D0, symSize: 0x20 }
  - { offsetInCU: 0x898E, offset: 0x1FAB4, size: 0x8, addend: 0x0, symName: __ZNSt3__16vectorIfNS_9allocatorIfEEE22__construct_one_at_endB7v160006IJfEEEvDpOT_, symObjAddr: 0x3B20, symBinAddr: 0x10000B7F0, symSize: 0x90 }
  - { offsetInCU: 0x89DA, offset: 0x1FB00, size: 0x8, addend: 0x0, symName: __ZNSt3__16vectorIfNS_9allocatorIfEEE21__push_back_slow_pathIfEEvOT_, symObjAddr: 0x3BB0, symBinAddr: 0x10000B880, symSize: 0xD0 }
  - { offsetInCU: 0x8A38, offset: 0x1FB5E, size: 0x8, addend: 0x0, symName: __ZNSt3__116allocator_traitsINS_9allocatorIfEEE9constructB7v160006IfJfEvEEvRS2_PT_DpOT0_, symObjAddr: 0x3C80, symBinAddr: 0x10000B950, symSize: 0x30 }
  - { offsetInCU: 0x8A8F, offset: 0x1FBB5, size: 0x8, addend: 0x0, symName: __ZNSt3__19allocatorIfE9constructB7v160006IfJfEEEvPT_DpOT0_, symObjAddr: 0x3CB0, symBinAddr: 0x10000B980, symSize: 0x30 }
  - { offsetInCU: 0x8AE3, offset: 0x1FC09, size: 0x8, addend: 0x0, symName: __ZNSt3__16vectorIjNS_9allocatorIjEEE9__end_capB7v160006Ev, symObjAddr: 0x3CE0, symBinAddr: 0x10000B9B0, symSize: 0x20 }
  - { offsetInCU: 0x8B07, offset: 0x1FC2D, size: 0x8, addend: 0x0, symName: __ZNSt3__16vectorIjNS_9allocatorIjEEE22__construct_one_at_endB7v160006IJRKjEEEvDpOT_, symObjAddr: 0x3D00, symBinAddr: 0x10000B9D0, symSize: 0x90 }
  - { offsetInCU: 0x8B53, offset: 0x1FC79, size: 0x8, addend: 0x0, symName: __ZNSt3__16vectorIjNS_9allocatorIjEEE21__push_back_slow_pathIRKjEEvOT_, symObjAddr: 0x3D90, symBinAddr: 0x10000BA60, symSize: 0xD0 }
  - { offsetInCU: 0x8BB1, offset: 0x1FCD7, size: 0x8, addend: 0x0, symName: __ZNSt3__117__compressed_pairIPjNS_9allocatorIjEEE5firstB7v160006Ev, symObjAddr: 0x3E60, symBinAddr: 0x10000BB30, symSize: 0x20 }
  - { offsetInCU: 0x8BD5, offset: 0x1FCFB, size: 0x8, addend: 0x0, symName: __ZNSt3__122__compressed_pair_elemIPjLi0ELb0EE5__getB7v160006Ev, symObjAddr: 0x3E80, symBinAddr: 0x10000BB50, symSize: 0x10 }
  - { offsetInCU: 0x8C12, offset: 0x1FD38, size: 0x8, addend: 0x0, symName: __ZNSt3__16vectorIjNS_9allocatorIjEEE21_ConstructTransactionC1B7v160006ERS3_m, symObjAddr: 0x3E90, symBinAddr: 0x10000BB60, symSize: 0x30 }
  - { offsetInCU: 0x8C58, offset: 0x1FD7E, size: 0x8, addend: 0x0, symName: __ZNSt3__116allocator_traitsINS_9allocatorIjEEE9constructB7v160006IjJRKjEvEEvRS2_PT_DpOT0_, symObjAddr: 0x3EC0, symBinAddr: 0x10000BB90, symSize: 0x30 }
  - { offsetInCU: 0x8CAF, offset: 0x1FDD5, size: 0x8, addend: 0x0, symName: __ZNSt3__16vectorIjNS_9allocatorIjEEE21_ConstructTransactionD1B7v160006Ev, symObjAddr: 0x3EF0, symBinAddr: 0x10000BBC0, symSize: 0x20 }
  - { offsetInCU: 0x8CD7, offset: 0x1FDFD, size: 0x8, addend: 0x0, symName: __ZNSt3__16vectorIjNS_9allocatorIjEEE21_ConstructTransactionC2B7v160006ERS3_m, symObjAddr: 0x3F10, symBinAddr: 0x10000BBE0, symSize: 0x40 }
  - { offsetInCU: 0x8D1D, offset: 0x1FE43, size: 0x8, addend: 0x0, symName: __ZNSt3__19allocatorIjE9constructB7v160006IjJRKjEEEvPT_DpOT0_, symObjAddr: 0x3F50, symBinAddr: 0x10000BC20, symSize: 0x20 }
  - { offsetInCU: 0x8D71, offset: 0x1FE97, size: 0x8, addend: 0x0, symName: __ZNSt3__16vectorIjNS_9allocatorIjEEE21_ConstructTransactionD2B7v160006Ev, symObjAddr: 0x3F70, symBinAddr: 0x10000BC40, symSize: 0x20 }
  - { offsetInCU: 0x8D98, offset: 0x1FEBE, size: 0x8, addend: 0x0, symName: __ZNKSt3__16vectorIjNS_9allocatorIjEEE11__recommendB7v160006Em, symObjAddr: 0x3F90, symBinAddr: 0x10000BC60, symSize: 0xA0 }
  - { offsetInCU: 0x8DED, offset: 0x1FF13, size: 0x8, addend: 0x0, symName: __ZNSt3__114__split_bufferIjRNS_9allocatorIjEEEC1EmmS3_, symObjAddr: 0x4030, symBinAddr: 0x10000BD00, symSize: 0x40 }
  - { offsetInCU: 0x8E42, offset: 0x1FF68, size: 0x8, addend: 0x0, symName: __ZNSt3__114__split_bufferIjRNS_9allocatorIjEEED1Ev, symObjAddr: 0x41A0, symBinAddr: 0x10000BE70, symSize: 0x20 }
  - { offsetInCU: 0x8E6C, offset: 0x1FF92, size: 0x8, addend: 0x0, symName: __ZNKSt3__16vectorIjNS_9allocatorIjEEE8max_sizeEv, symObjAddr: 0x41C0, symBinAddr: 0x10000BE90, symSize: 0x60 }
  - { offsetInCU: 0x8E94, offset: 0x1FFBA, size: 0x8, addend: 0x0, symName: __ZNKSt3__16vectorIjNS_9allocatorIjEEE20__throw_length_errorB7v160006Ev, symObjAddr: 0x4220, symBinAddr: 0x10000BEF0, symSize: 0x20 }
  - { offsetInCU: 0x8EC2, offset: 0x1FFE8, size: 0x8, addend: 0x0, symName: __ZNSt3__116allocator_traitsINS_9allocatorIjEEE8max_sizeB7v160006IS2_vEEmRKS2_, symObjAddr: 0x4240, symBinAddr: 0x10000BF10, symSize: 0x20 }
  - { offsetInCU: 0x8EF0, offset: 0x20016, size: 0x8, addend: 0x0, symName: __ZNKSt3__16vectorIjNS_9allocatorIjEEE7__allocB7v160006Ev, symObjAddr: 0x4260, symBinAddr: 0x10000BF30, symSize: 0x20 }
  - { offsetInCU: 0x8F14, offset: 0x2003A, size: 0x8, addend: 0x0, symName: __ZNKSt3__19allocatorIjE8max_sizeB7v160006Ev, symObjAddr: 0x4280, symBinAddr: 0x10000BF50, symSize: 0x20 }
  - { offsetInCU: 0x8F38, offset: 0x2005E, size: 0x8, addend: 0x0, symName: __ZNKSt3__117__compressed_pairIPjNS_9allocatorIjEEE6secondB7v160006Ev, symObjAddr: 0x42A0, symBinAddr: 0x10000BF70, symSize: 0x20 }
  - { offsetInCU: 0x8F5C, offset: 0x20082, size: 0x8, addend: 0x0, symName: __ZNKSt3__122__compressed_pair_elemINS_9allocatorIjEELi1ELb1EE5__getB7v160006Ev, symObjAddr: 0x42C0, symBinAddr: 0x10000BF90, symSize: 0x10 }
  - { offsetInCU: 0x8F80, offset: 0x200A6, size: 0x8, addend: 0x0, symName: __ZNSt3__114__split_bufferIjRNS_9allocatorIjEEEC2EmmS3_, symObjAddr: 0x42D0, symBinAddr: 0x10000BFA0, symSize: 0xD0 }
  - { offsetInCU: 0x8FF3, offset: 0x20119, size: 0x8, addend: 0x0, symName: __ZNSt3__117__compressed_pairIPjRNS_9allocatorIjEEEC1B7v160006IDnS4_EEOT_OT0_, symObjAddr: 0x43A0, symBinAddr: 0x10000C070, symSize: 0x30 }
  - { offsetInCU: 0x9049, offset: 0x2016F, size: 0x8, addend: 0x0, symName: __ZNSt3__114__split_bufferIjRNS_9allocatorIjEEE7__allocB7v160006Ev, symObjAddr: 0x4410, symBinAddr: 0x10000C0E0, symSize: 0x20 }
  - { offsetInCU: 0x906D, offset: 0x20193, size: 0x8, addend: 0x0, symName: __ZNSt3__114__split_bufferIjRNS_9allocatorIjEEE9__end_capB7v160006Ev, symObjAddr: 0x4430, symBinAddr: 0x10000C100, symSize: 0x20 }
  - { offsetInCU: 0x9091, offset: 0x201B7, size: 0x8, addend: 0x0, symName: __ZNSt3__117__compressed_pairIPjRNS_9allocatorIjEEEC2B7v160006IDnS4_EEOT_OT0_, symObjAddr: 0x4450, symBinAddr: 0x10000C120, symSize: 0x40 }
  - { offsetInCU: 0x90E7, offset: 0x2020D, size: 0x8, addend: 0x0, symName: __ZNSt3__122__compressed_pair_elemIRNS_9allocatorIjEELi1ELb0EEC2B7v160006IS3_vEEOT_, symObjAddr: 0x4490, symBinAddr: 0x10000C160, symSize: 0x20 }
  - { offsetInCU: 0x9127, offset: 0x2024D, size: 0x8, addend: 0x0, symName: __ZNSt3__19allocatorIjE8allocateB7v160006Em, symObjAddr: 0x44B0, symBinAddr: 0x10000C180, symSize: 0x50 }
  - { offsetInCU: 0x9159, offset: 0x2027F, size: 0x8, addend: 0x0, symName: __ZNSt3__117__compressed_pairIPjRNS_9allocatorIjEEE6secondB7v160006Ev, symObjAddr: 0x4500, symBinAddr: 0x10000C1D0, symSize: 0x20 }
  - { offsetInCU: 0x917D, offset: 0x202A3, size: 0x8, addend: 0x0, symName: __ZNSt3__122__compressed_pair_elemIRNS_9allocatorIjEELi1ELb0EE5__getB7v160006Ev, symObjAddr: 0x4520, symBinAddr: 0x10000C1F0, symSize: 0x20 }
  - { offsetInCU: 0x91A1, offset: 0x202C7, size: 0x8, addend: 0x0, symName: __ZNSt3__117__compressed_pairIPjRNS_9allocatorIjEEE5firstB7v160006Ev, symObjAddr: 0x4540, symBinAddr: 0x10000C210, symSize: 0x20 }
  - { offsetInCU: 0x91C5, offset: 0x202EB, size: 0x8, addend: 0x0, symName: __ZNSt3__116reverse_iteratorIPjEC1B7v160006ES1_, symObjAddr: 0x45D0, symBinAddr: 0x10000C2A0, symSize: 0x30 }
  - { offsetInCU: 0x91FB, offset: 0x20321, size: 0x8, addend: 0x0, symName: __ZNKSt3__116reverse_iteratorIPjE4baseB7v160006Ev, symObjAddr: 0x4600, symBinAddr: 0x10000C2D0, symSize: 0x20 }
  - { offsetInCU: 0x921F, offset: 0x20345, size: 0x8, addend: 0x0, symName: __ZNKSt3__16vectorIjNS_9allocatorIjEEE14__annotate_newB7v160006Em, symObjAddr: 0x4660, symBinAddr: 0x10000C330, symSize: 0xB0 }
  - { offsetInCU: 0x926B, offset: 0x20391, size: 0x8, addend: 0x0, symName: __ZNKSt3__111__move_loopINS_17_ClassicAlgPolicyEEclB7v160006INS_16reverse_iteratorIPjEES6_S6_EENS_4pairIT_T1_EES8_T0_S9_, symObjAddr: 0x4B60, symBinAddr: 0x10000C830, symSize: 0xA0 }
  - { offsetInCU: 0x92D9, offset: 0x203FF, size: 0x8, addend: 0x0, symName: __ZNSt3__18_IterOpsINS_17_ClassicAlgPolicyEE11__iter_moveB7v160006IRNS_16reverse_iteratorIPjEEEENS_9enable_ifIXsr12is_referenceIDTdeclsr3stdE7declvalIRT_EEEEE5valueEDTclsr3stdE4movedeclsr3stdE7declvalISA_EEEEE4typeEOS9_, symObjAddr: 0x4D80, symBinAddr: 0x10000CA50, symSize: 0x20 }
  - { offsetInCU: 0x9305, offset: 0x2042B, size: 0x8, addend: 0x0, symName: __ZNKSt3__116reverse_iteratorIPjEdeB7v160006Ev, symObjAddr: 0x4DA0, symBinAddr: 0x10000CA70, symSize: 0x30 }
  - { offsetInCU: 0x9338, offset: 0x2045E, size: 0x8, addend: 0x0, symName: __ZNSt3__116reverse_iteratorIPjEppB7v160006Ev, symObjAddr: 0x4DD0, symBinAddr: 0x10000CAA0, symSize: 0x20 }
  - { offsetInCU: 0x935C, offset: 0x20482, size: 0x8, addend: 0x0, symName: __ZNSt3__18_IterOpsINS_17_ClassicAlgPolicyEE25__validate_iter_referenceB7v160006IRNS_16reverse_iteratorIPjEEEEvv, symObjAddr: 0x4DF0, symBinAddr: 0x10000CAC0, symSize: 0x10 }
  - { offsetInCU: 0x937A, offset: 0x204A0, size: 0x8, addend: 0x0, symName: __ZNSt3__118__unwrap_iter_implINS_16reverse_iteratorIPjEELb0EE8__unwrapB7v160006ES3_, symObjAddr: 0x4E00, symBinAddr: 0x10000CAD0, symSize: 0x20 }
  - { offsetInCU: 0x93A2, offset: 0x204C8, size: 0x8, addend: 0x0, symName: __ZNSt3__14pairINS_16reverse_iteratorIPjEES3_EC1B7v160006IS3_S3_LPv0EEEOT_OT0_, symObjAddr: 0x4E20, symBinAddr: 0x10000CAF0, symSize: 0x30 }
  - { offsetInCU: 0x93FF, offset: 0x20525, size: 0x8, addend: 0x0, symName: __ZNSt3__14pairINS_16reverse_iteratorIPjEES3_EC2B7v160006IS3_S3_LPv0EEEOT_OT0_, symObjAddr: 0x4E50, symBinAddr: 0x10000CB20, symSize: 0x40 }
  - { offsetInCU: 0x945C, offset: 0x20582, size: 0x8, addend: 0x0, symName: __ZNSt3__118__unwrap_iter_implINS_16reverse_iteratorIPjEELb0EE8__rewrapB7v160006ES3_S3_, symObjAddr: 0x4E90, symBinAddr: 0x10000CB60, symSize: 0x30 }
  - { offsetInCU: 0x9489, offset: 0x205AF, size: 0x8, addend: 0x0, symName: __ZNSt3__116reverse_iteratorIPjEC2B7v160006ES1_, symObjAddr: 0x4EC0, symBinAddr: 0x10000CB90, symSize: 0x30 }
  - { offsetInCU: 0x94BF, offset: 0x205E5, size: 0x8, addend: 0x0, symName: __ZNSt3__114__split_bufferIjRNS_9allocatorIjEEED2Ev, symObjAddr: 0x4EF0, symBinAddr: 0x10000CBC0, symSize: 0x70 }
  - { offsetInCU: 0x94EA, offset: 0x20610, size: 0x8, addend: 0x0, symName: __ZNSt3__114__split_bufferIjRNS_9allocatorIjEEE5clearB7v160006Ev, symObjAddr: 0x4F60, symBinAddr: 0x10000CC30, symSize: 0x20 }
  - { offsetInCU: 0x950E, offset: 0x20634, size: 0x8, addend: 0x0, symName: __ZNKSt3__114__split_bufferIjRNS_9allocatorIjEEE8capacityB7v160006Ev, symObjAddr: 0x4F80, symBinAddr: 0x10000CC50, symSize: 0x30 }
  - { offsetInCU: 0x9532, offset: 0x20658, size: 0x8, addend: 0x0, symName: __ZNSt3__114__split_bufferIjRNS_9allocatorIjEEE17__destruct_at_endB7v160006EPj, symObjAddr: 0x4FB0, symBinAddr: 0x10000CC80, symSize: 0x30 }
  - { offsetInCU: 0x9563, offset: 0x20689, size: 0x8, addend: 0x0, symName: __ZNSt3__114__split_bufferIjRNS_9allocatorIjEEE17__destruct_at_endB7v160006EPjNS_17integral_constantIbLb0EEE, symObjAddr: 0x4FE0, symBinAddr: 0x10000CCB0, symSize: 0x80 }
  - { offsetInCU: 0x95A3, offset: 0x206C9, size: 0x8, addend: 0x0, symName: __ZNKSt3__114__split_bufferIjRNS_9allocatorIjEEE9__end_capB7v160006Ev, symObjAddr: 0x5060, symBinAddr: 0x10000CD30, symSize: 0x20 }
  - { offsetInCU: 0x95C7, offset: 0x206ED, size: 0x8, addend: 0x0, symName: __ZNKSt3__117__compressed_pairIPjRNS_9allocatorIjEEE5firstB7v160006Ev, symObjAddr: 0x5080, symBinAddr: 0x10000CD50, symSize: 0x20 }
  - { offsetInCU: 0xC1FB, offset: 0x2C9C9, size: 0x8, addend: 0x0, symName: __ZNSt3__1lsB7v160006IcNS_11char_traitsIcEENS_9allocatorIcEEEERNS_13basic_ostreamIT_T0_EES9_RKNS_12basic_stringIS6_S7_T1_EE, symObjAddr: 0x950, symBinAddr: 0x10000D6A0, symSize: 0x50 }
  - { offsetInCU: 0xC253, offset: 0x2CA21, size: 0x8, addend: 0x0, symName: __ZNSt3__17getlineB7v160006IcNS_11char_traitsIcEENS_9allocatorIcEEEERNS_13basic_istreamIT_T0_EES9_RNS_12basic_stringIS6_S7_T1_EE, symObjAddr: 0xA50, symBinAddr: 0x10000D6F0, symSize: 0x50 }
  - { offsetInCU: 0xC2B6, offset: 0x2CA84, size: 0x8, addend: 0x0, symName: __ZNSt3__112__to_addressB7v160006IKcEEPT_S3_, symObjAddr: 0xF70, symBinAddr: 0x10000DA60, symSize: 0x10 }
  - { offsetInCU: 0xC31E, offset: 0x2CAEC, size: 0x8, addend: 0x0, symName: __ZNSt3__17getlineB7v160006IcNS_11char_traitsIcEENS_9allocatorIcEEEERNS_13basic_istreamIT_T0_EES9_RNS_12basic_stringIS6_S7_T1_EES6_, symObjAddr: 0x1BA0, symBinAddr: 0x10000DCE0, symSize: 0x220 }
  - { offsetInCU: 0xC3DC, offset: 0x2CBAA, size: 0x8, addend: 0x0, symName: __ZNSt3__125__debug_db_invalidate_allB7v160006INS_12basic_stringIcNS_11char_traitsIcEENS_9allocatorIcEEEEEEvPT_, symObjAddr: 0x2030, symBinAddr: 0x10000E170, symSize: 0x10 }
  - { offsetInCU: 0xED9E, offset: 0x2F56C, size: 0x8, addend: 0x0, symName: __ZN5ImageC2ENSt3__112basic_stringIcNS0_11char_traitsIcEENS0_9allocatorIcEEEE, symObjAddr: 0x0, symBinAddr: 0x10000CD70, symSize: 0x50 }
  - { offsetInCU: 0xEDD7, offset: 0x2F5A5, size: 0x8, addend: 0x0, symName: __ZN5ImageC1ENSt3__112basic_stringIcNS0_11char_traitsIcEENS0_9allocatorIcEEEE, symObjAddr: 0x70, symBinAddr: 0x10000CDC0, symSize: 0x20 }
  - { offsetInCU: 0xEE11, offset: 0x2F5DF, size: 0x8, addend: 0x0, symName: __ZN5ImageD2Ev, symObjAddr: 0x90, symBinAddr: 0x10000CDE0, symSize: 0x60 }
  - { offsetInCU: 0xEE3B, offset: 0x2F609, size: 0x8, addend: 0x0, symName: __ZN5ImageD1Ev, symObjAddr: 0xF0, symBinAddr: 0x10000CE40, symSize: 0x20 }
  - { offsetInCU: 0xEE65, offset: 0x2F633, size: 0x8, addend: 0x0, symName: __ZN5Image7LoadPPMEb, symObjAddr: 0x110, symBinAddr: 0x10000CE60, symSize: 0x690 }
  - { offsetInCU: 0xEF6D, offset: 0x2F73B, size: 0x8, addend: 0x0, symName: __ZNKSt3__112basic_stringIcNS_11char_traitsIcEENS_9allocatorIcEEE5c_strB7v160006Ev, symObjAddr: 0x7A0, symBinAddr: 0x10000D4F0, symSize: 0x20 }
  - { offsetInCU: 0xF0B2, offset: 0x2F880, size: 0x8, addend: 0x0, symName: __ZNSt3__114basic_ifstreamIcNS_11char_traitsIcEEEC1EPKcj, symObjAddr: 0x7C0, symBinAddr: 0x10000D510, symSize: 0x160 }
  - { offsetInCU: 0xF0FB, offset: 0x2F8C9, size: 0x8, addend: 0x0, symName: __ZNKSt3__114basic_ifstreamIcNS_11char_traitsIcEEE7is_openEv, symObjAddr: 0x920, symBinAddr: 0x10000D670, symSize: 0x30 }
  - { offsetInCU: 0xF122, offset: 0x2F8F0, size: 0x8, addend: 0x0, symName: __ZNKSt3__19basic_iosIcNS_11char_traitsIcEEEcvbB7v160006Ev, symObjAddr: 0xAA0, symBinAddr: 0x10000D740, symSize: 0x30 }
  - { offsetInCU: 0xF146, offset: 0x2F914, size: 0x8, addend: 0x0, symName: __ZNSt3__112basic_stringIcNS_11char_traitsIcEENS_9allocatorIcEEEixB7v160006Em, symObjAddr: 0xAD0, symBinAddr: 0x10000D770, symSize: 0x30 }
  - { offsetInCU: 0xF179, offset: 0x2F947, size: 0x8, addend: 0x0, symName: __ZNSt3__114basic_ifstreamIcNS_11char_traitsIcEEE5closeEv, symObjAddr: 0xB00, symBinAddr: 0x10000D7A0, symSize: 0x50 }
  - { offsetInCU: 0xF1A5, offset: 0x2F973, size: 0x8, addend: 0x0, symName: __ZNSt3__114basic_ifstreamIcNS_11char_traitsIcEEED1Ev, symObjAddr: 0xB50, symBinAddr: 0x10000D7F0, symSize: 0x40 }
  - { offsetInCU: 0xF1D1, offset: 0x2F99F, size: 0x8, addend: 0x0, symName: __ZN5Image8SetPixelEiihhh, symObjAddr: 0xB90, symBinAddr: 0x10000D830, symSize: 0xD0 }
  - { offsetInCU: 0xF23D, offset: 0x2FA0B, size: 0x8, addend: 0x0, symName: __ZN5Image11PrintPixelsEv, symObjAddr: 0xC60, symBinAddr: 0x10000D900, symSize: 0x90 }
  - { offsetInCU: 0xF281, offset: 0x2FA4F, size: 0x8, addend: 0x0, symName: __ZN5Image15GetPixelDataPtrEv, symObjAddr: 0xCF0, symBinAddr: 0x10000D990, symSize: 0x20 }
  - { offsetInCU: 0xF2A7, offset: 0x2FA75, size: 0x8, addend: 0x0, symName: __ZNSt3__114basic_ifstreamIcNS_11char_traitsIcEEED2Ev, symObjAddr: 0xD10, symBinAddr: 0x10000D9B0, symSize: 0x60 }
  - { offsetInCU: 0xF2DF, offset: 0x2FAAD, size: 0x8, addend: 0x0, symName: __ZTv0_n24_NSt3__114basic_ifstreamIcNS_11char_traitsIcEEED1Ev, symObjAddr: 0xD70, symBinAddr: 0x10000DA10, symSize: 0x20 }
  - { offsetInCU: 0xF2F6, offset: 0x2FAC4, size: 0x8, addend: 0x0, symName: __ZNKSt3__112basic_stringIcNS_11char_traitsIcEENS_9allocatorIcEEE4dataB7v160006Ev, symObjAddr: 0xF40, symBinAddr: 0x10000DA30, symSize: 0x30 }
  - { offsetInCU: 0xF31A, offset: 0x2FAE8, size: 0x8, addend: 0x0, symName: __ZNKSt3__112basic_stringIcNS_11char_traitsIcEENS_9allocatorIcEEE13__get_pointerB7v160006Ev, symObjAddr: 0xF80, symBinAddr: 0x10000DA70, symSize: 0x50 }
  - { offsetInCU: 0xF33E, offset: 0x2FB0C, size: 0x8, addend: 0x0, symName: __ZNKSt3__112basic_stringIcNS_11char_traitsIcEENS_9allocatorIcEEE18__get_long_pointerB7v160006Ev, symObjAddr: 0x1000, symBinAddr: 0x10000DAC0, symSize: 0x20 }
  - { offsetInCU: 0xF362, offset: 0x2FB30, size: 0x8, addend: 0x0, symName: __ZNKSt3__112basic_stringIcNS_11char_traitsIcEENS_9allocatorIcEEE19__get_short_pointerB7v160006Ev, symObjAddr: 0x1020, symBinAddr: 0x10000DAE0, symSize: 0x30 }
  - { offsetInCU: 0xF386, offset: 0x2FB54, size: 0x8, addend: 0x0, symName: __ZNSt3__114pointer_traitsIPKcE10pointer_toB7v160006ERS1_, symObjAddr: 0x1080, symBinAddr: 0x10000DB10, symSize: 0x10 }
  - { offsetInCU: 0xF3A9, offset: 0x2FB77, size: 0x8, addend: 0x0, symName: __ZNSt3__19basic_iosIcNS_11char_traitsIcEEEC2B7v160006Ev, symObjAddr: 0x1090, symBinAddr: 0x10000DB20, symSize: 0x40 }
  - { offsetInCU: 0xF3D1, offset: 0x2FB9F, size: 0x8, addend: 0x0, symName: __ZNSt3__113basic_istreamIcNS_11char_traitsIcEEEC2B7v160006EPNS_15basic_streambufIcS2_EE, symObjAddr: 0x10D0, symBinAddr: 0x10000DB60, symSize: 0x50 }
  - { offsetInCU: 0xF413, offset: 0x2FBE1, size: 0x8, addend: 0x0, symName: __ZNSt3__18ios_baseC2B7v160006Ev, symObjAddr: 0x1150, symBinAddr: 0x10000DBB0, symSize: 0x20 }
  - { offsetInCU: 0xF43B, offset: 0x2FC09, size: 0x8, addend: 0x0, symName: __ZNSt3__19basic_iosIcNS_11char_traitsIcEEE4initB7v160006EPNS_15basic_streambufIcS2_EE, symObjAddr: 0x1170, symBinAddr: 0x10000DBD0, symSize: 0x50 }
  - { offsetInCU: 0xF471, offset: 0x2FC3F, size: 0x8, addend: 0x0, symName: __ZNKSt3__113basic_filebufIcNS_11char_traitsIcEEE7is_openEv, symObjAddr: 0x1200, symBinAddr: 0x10000DC20, symSize: 0x20 }
  - { offsetInCU: 0xF4B6, offset: 0x2FC84, size: 0x8, addend: 0x0, symName: __ZNKSt3__112basic_stringIcNS_11char_traitsIcEENS_9allocatorIcEEE4sizeB7v160006Ev, symObjAddr: 0x1B00, symBinAddr: 0x10000DC40, symSize: 0x50 }
  - { offsetInCU: 0xF4DA, offset: 0x2FCA8, size: 0x8, addend: 0x0, symName: __ZNKSt3__112basic_stringIcNS_11char_traitsIcEENS_9allocatorIcEEE15__get_long_sizeB7v160006Ev, symObjAddr: 0x1B50, symBinAddr: 0x10000DC90, symSize: 0x20 }
  - { offsetInCU: 0xF4FE, offset: 0x2FCCC, size: 0x8, addend: 0x0, symName: __ZNKSt3__112basic_stringIcNS_11char_traitsIcEENS_9allocatorIcEEE16__get_short_sizeB7v160006Ev, symObjAddr: 0x1B70, symBinAddr: 0x10000DCB0, symSize: 0x30 }
  - { offsetInCU: 0xF540, offset: 0x2FD0E, size: 0x8, addend: 0x0, symName: __ZNKSt3__113basic_istreamIcNS_11char_traitsIcEEE6sentrycvbB7v160006Ev, symObjAddr: 0x1DC0, symBinAddr: 0x10000DF00, symSize: 0x20 }
  - { offsetInCU: 0xF564, offset: 0x2FD32, size: 0x8, addend: 0x0, symName: __ZNSt3__112basic_stringIcNS_11char_traitsIcEENS_9allocatorIcEEE5clearB7v160006Ev, symObjAddr: 0x1DE0, symBinAddr: 0x10000DF20, symSize: 0xA0 }
  - { offsetInCU: 0xF58B, offset: 0x2FD59, size: 0x8, addend: 0x0, symName: __ZNSt3__115basic_streambufIcNS_11char_traitsIcEEE6sbumpcB7v160006Ev, symObjAddr: 0x1E80, symBinAddr: 0x10000DFC0, symSize: 0x60 }
  - { offsetInCU: 0xF5AF, offset: 0x2FD7D, size: 0x8, addend: 0x0, symName: __ZNSt3__111char_traitsIcE12to_char_typeEi, symObjAddr: 0x1EE0, symBinAddr: 0x10000E020, symSize: 0x10 }
  - { offsetInCU: 0xF5D2, offset: 0x2FDA0, size: 0x8, addend: 0x0, symName: __ZNSt3__111char_traitsIcE2eqEcc, symObjAddr: 0x1EF0, symBinAddr: 0x10000E030, symSize: 0x30 }
  - { offsetInCU: 0xF603, offset: 0x2FDD1, size: 0x8, addend: 0x0, symName: __ZNKSt3__112basic_stringIcNS_11char_traitsIcEENS_9allocatorIcEEE8max_sizeB7v160006Ev, symObjAddr: 0x1F20, symBinAddr: 0x10000E060, symSize: 0xA0 }
  - { offsetInCU: 0xF654, offset: 0x2FE22, size: 0x8, addend: 0x0, symName: __ZNSt3__18ios_base18__setstate_nothrowB7v160006Ej, symObjAddr: 0x1FC0, symBinAddr: 0x10000E100, symSize: 0x50 }
  - { offsetInCU: 0xF687, offset: 0x2FE55, size: 0x8, addend: 0x0, symName: __ZNKSt3__19basic_iosIcNS_11char_traitsIcEEE10exceptionsB7v160006Ev, symObjAddr: 0x2010, symBinAddr: 0x10000E150, symSize: 0x20 }
  - { offsetInCU: 0xF6AB, offset: 0x2FE79, size: 0x8, addend: 0x0, symName: __ZNSt3__111char_traitsIcE6assignERcRKc, symObjAddr: 0x2040, symBinAddr: 0x10000E180, symSize: 0x20 }
  - { offsetInCU: 0xF6DC, offset: 0x2FEAA, size: 0x8, addend: 0x0, symName: __ZNSt3__112basic_stringIcNS_11char_traitsIcEENS_9allocatorIcEEE15__set_long_sizeB7v160006Em, symObjAddr: 0x2060, symBinAddr: 0x10000E1A0, symSize: 0x30 }
  - { offsetInCU: 0xF70F, offset: 0x2FEDD, size: 0x8, addend: 0x0, symName: __ZNSt3__112basic_stringIcNS_11char_traitsIcEENS_9allocatorIcEEE16__set_short_sizeB7v160006Em, symObjAddr: 0x2090, symBinAddr: 0x10000E1D0, symSize: 0x50 }
  - { offsetInCU: 0xF742, offset: 0x2FF10, size: 0x8, addend: 0x0, symName: __ZNSt3__111char_traitsIcE11to_int_typeEc, symObjAddr: 0x20E0, symBinAddr: 0x10000E220, symSize: 0x10 }
  - { offsetInCU: 0xF76F, offset: 0x2FF3D, size: 0x8, addend: 0x0, symName: __ZNSt3__116allocator_traitsINS_9allocatorIcEEE8max_sizeB7v160006IS2_vEEmRKS2_, symObjAddr: 0x20F0, symBinAddr: 0x10000E230, symSize: 0x20 }
  - { offsetInCU: 0xF79D, offset: 0x2FF6B, size: 0x8, addend: 0x0, symName: __ZNKSt3__112basic_stringIcNS_11char_traitsIcEENS_9allocatorIcEEE7__allocB7v160006Ev, symObjAddr: 0x2110, symBinAddr: 0x10000E250, symSize: 0x20 }
  - { offsetInCU: 0xF7C1, offset: 0x2FF8F, size: 0x8, addend: 0x0, symName: __ZNSt3__114numeric_limitsImE3maxB7v160006Ev, symObjAddr: 0x2130, symBinAddr: 0x10000E270, symSize: 0x10 }
  - { offsetInCU: 0xF7D5, offset: 0x2FFA3, size: 0x8, addend: 0x0, symName: __ZNKSt3__19allocatorIcE8max_sizeB7v160006Ev, symObjAddr: 0x2140, symBinAddr: 0x10000E280, symSize: 0x20 }
  - { offsetInCU: 0xF7F9, offset: 0x2FFC7, size: 0x8, addend: 0x0, symName: __ZNKSt3__117__compressed_pairINS_12basic_stringIcNS_11char_traitsIcEENS_9allocatorIcEEE5__repES5_E6secondB7v160006Ev, symObjAddr: 0x2160, symBinAddr: 0x10000E2A0, symSize: 0x20 }
  - { offsetInCU: 0xF81D, offset: 0x2FFEB, size: 0x8, addend: 0x0, symName: __ZNKSt3__122__compressed_pair_elemINS_9allocatorIcEELi1ELb1EE5__getB7v160006Ev, symObjAddr: 0x2180, symBinAddr: 0x10000E2C0, symSize: 0x10 }
  - { offsetInCU: 0xF841, offset: 0x3000F, size: 0x8, addend: 0x0, symName: __ZNSt3__123__libcpp_numeric_limitsImLb1EE3maxB7v160006Ev, symObjAddr: 0x2190, symBinAddr: 0x10000E2D0, symSize: 0x10 }
  - { offsetInCU: 0xF855, offset: 0x30023, size: 0x8, addend: 0x0, symName: __ZNKSt3__18ios_base10exceptionsB7v160006Ev, symObjAddr: 0x21A0, symBinAddr: 0x10000E2E0, symSize: 0x20 }
  - { offsetInCU: 0xF87C, offset: 0x3004A, size: 0x8, addend: 0x0, symName: __ZNKSt3__19basic_iosIcNS_11char_traitsIcEEE4failB7v160006Ev, symObjAddr: 0x21C0, symBinAddr: 0x10000E300, symSize: 0x20 }
  - { offsetInCU: 0xF8A0, offset: 0x3006E, size: 0x8, addend: 0x0, symName: __ZNKSt3__18ios_base4failB7v160006Ev, symObjAddr: 0x21E0, symBinAddr: 0x10000E320, symSize: 0x1F }
  - { offsetInCU: 0xF8F7, offset: 0x3F9DB, size: 0x8, addend: 0x0, symName: __ZNSt3__1rsB7v160006IcNS_11char_traitsIcEENS_9allocatorIcEEEERNS_13basic_istreamIT_T0_EES9_RNS_12basic_stringIS6_S7_T1_EE, symObjAddr: 0x1360, symBinAddr: 0x10000F350, symSize: 0x2F0 }
  - { offsetInCU: 0xFBCA, offset: 0x3FCAE, size: 0x8, addend: 0x0, symName: __ZNSt3__119__debug_db_insert_cB7v160006INS_6vectorIN3glm3vecILi3EfLNS2_9qualifierE0EEENS_9allocatorIS5_EEEEEEvPT_, symObjAddr: 0x4460, symBinAddr: 0x10000FC30, symSize: 0x10 }
  - { offsetInCU: 0xFBFB, offset: 0x3FCDF, size: 0x8, addend: 0x0, symName: __ZNSt3__119__debug_db_insert_cB7v160006INS_6vectorIN3glm3vecILi2EfLNS2_9qualifierE0EEENS_9allocatorIS5_EEEEEEvPT_, symObjAddr: 0x45B0, symBinAddr: 0x10000FD80, symSize: 0x10 }
  - { offsetInCU: 0xFC2C, offset: 0x3FD10, size: 0x8, addend: 0x0, symName: __ZNSt3__118__debug_db_erase_cB7v160006INS_6vectorIN3glm3vecILi3EfLNS2_9qualifierE0EEENS_9allocatorIS5_EEEEEEvPT_, symObjAddr: 0x4990, symBinAddr: 0x100010010, symSize: 0x10 }
  - { offsetInCU: 0xFC5D, offset: 0x3FD41, size: 0x8, addend: 0x0, symName: __ZNSt3__112__to_addressB7v160006IN3glm3vecILi3EfLNS1_9qualifierE0EEEEEPT_S6_, symObjAddr: 0x4AC0, symBinAddr: 0x100010140, symSize: 0x10 }
  - { offsetInCU: 0xFC92, offset: 0x3FD76, size: 0x8, addend: 0x0, symName: __ZNSt3__118__debug_db_erase_cB7v160006INS_6vectorIN3glm3vecILi2EfLNS2_9qualifierE0EEENS_9allocatorIS5_EEEEEEvPT_, symObjAddr: 0x4E30, symBinAddr: 0x1000104B0, symSize: 0x10 }
  - { offsetInCU: 0xFCC3, offset: 0x3FDA7, size: 0x8, addend: 0x0, symName: __ZNSt3__112__to_addressB7v160006IN3glm3vecILi2EfLNS1_9qualifierE0EEEEEPT_S6_, symObjAddr: 0x4F40, symBinAddr: 0x1000105C0, symSize: 0x10 }
  - { offsetInCU: 0xFCF8, offset: 0x3FDDC, size: 0x8, addend: 0x0, symName: __ZNSt3__115__debug_db_swapB7v160006INS_6vectorIfNS_9allocatorIfEEEEEEvPT_S6_, symObjAddr: 0x5C50, symBinAddr: 0x1000108D0, symSize: 0x10 }
  - { offsetInCU: 0xFD37, offset: 0x3FE1B, size: 0x8, addend: 0x0, symName: __ZNSt3__119__allocate_at_leastB7v160006INS_9allocatorIN3glm3vecILi3EfLNS2_9qualifierE0EEEEEEENS_19__allocation_resultINS_16allocator_traitsIT_E7pointerEEERS9_m, symObjAddr: 0x6470, symBinAddr: 0x1000110F0, symSize: 0x40 }
  - { offsetInCU: 0xFD7A, offset: 0x3FE5E, size: 0x8, addend: 0x0, symName: __ZNSt3__142__uninitialized_allocator_move_if_noexceptB7v160006INS_9allocatorIN3glm3vecILi3EfLNS2_9qualifierE0EEEEENS_16reverse_iteratorIPS5_EES9_S5_vEET1_RT_T0_SD_SA_, symObjAddr: 0x6600, symBinAddr: 0x100011280, symSize: 0x70 }
  - { offsetInCU: 0xFDF7, offset: 0x3FEDB, size: 0x8, addend: 0x0, symName: __ZNSt3__14swapB7v160006IPN3glm3vecILi3EfLNS1_9qualifierE0EEEEENS_9enable_ifIXaasr21is_move_constructibleIT_EE5valuesr18is_move_assignableIS7_EE5valueEvE4typeERS7_SA_, symObjAddr: 0x66C0, symBinAddr: 0x100011340, symSize: 0x40 }
  - { offsetInCU: 0xFE49, offset: 0x3FF2D, size: 0x8, addend: 0x0, symName: __ZNSt3__125__debug_db_invalidate_allB7v160006INS_6vectorIN3glm3vecILi3EfLNS2_9qualifierE0EEENS_9allocatorIS5_EEEEEEvPT_, symObjAddr: 0x67A0, symBinAddr: 0x100011420, symSize: 0x10 }
  - { offsetInCU: 0xFE7A, offset: 0x3FF5E, size: 0x8, addend: 0x0, symName: __ZNSt3__14moveB7v160006INS_16reverse_iteratorIPN3glm3vecILi3EfLNS2_9qualifierE0EEEEES7_EET0_T_S9_S8_, symObjAddr: 0x67B0, symBinAddr: 0x100011430, symSize: 0x80 }
  - { offsetInCU: 0xFED4, offset: 0x3FFB8, size: 0x8, addend: 0x0, symName: __ZNSt3__16__moveB7v160006INS_17_ClassicAlgPolicyENS_16reverse_iteratorIPN3glm3vecILi3EfLNS3_9qualifierE0EEEEES8_S8_EENS_4pairIT0_T2_EESA_T1_SB_, symObjAddr: 0x6830, symBinAddr: 0x1000114B0, symSize: 0x90 }
  - { offsetInCU: 0xFF40, offset: 0x40024, size: 0x8, addend: 0x0, symName: __ZNSt3__123__dispatch_copy_or_moveB7v160006INS_17_ClassicAlgPolicyENS_11__move_loopIS1_EENS_14__move_trivialENS_16reverse_iteratorIPN3glm3vecILi3EfLNS6_9qualifierE0EEEEESB_SB_EENS_4pairIT2_T4_EESD_T3_SE_, symObjAddr: 0x68C0, symBinAddr: 0x100011540, symSize: 0x90 }
  - { offsetInCU: 0xFFBE, offset: 0x400A2, size: 0x8, addend: 0x0, symName: __ZNSt3__121__unwrap_and_dispatchB7v160006INS_10__overloadINS_11__move_loopINS_17_ClassicAlgPolicyEEENS_14__move_trivialEEENS_16reverse_iteratorIPN3glm3vecILi3EfLNS8_9qualifierE0EEEEESD_SD_Li0EEENS_4pairIT0_T2_EESF_T1_SG_, symObjAddr: 0x6950, symBinAddr: 0x1000115D0, symSize: 0x210 }
  - { offsetInCU: 0x10050, offset: 0x40134, size: 0x8, addend: 0x0, symName: __ZNSt3__114__unwrap_rangeB7v160006INS_16reverse_iteratorIPN3glm3vecILi3EfLNS2_9qualifierE0EEEEES7_EENS_4pairIT0_S9_EET_SB_, symObjAddr: 0x6B60, symBinAddr: 0x1000117E0, symSize: 0x90 }
  - { offsetInCU: 0x10171, offset: 0x40255, size: 0x8, addend: 0x0, symName: __ZNSt3__113__unwrap_iterB7v160006INS_16reverse_iteratorIPN3glm3vecILi3EfLNS2_9qualifierE0EEEEENS_18__unwrap_iter_implIS7_Lb0EEELi0EEEDTclsrT0_8__unwrapclsr3stdE7declvalIT_EEEESB_, symObjAddr: 0x6C90, symBinAddr: 0x100011910, symSize: 0x40 }
  - { offsetInCU: 0x101B6, offset: 0x4029A, size: 0x8, addend: 0x0, symName: __ZNSt3__19make_pairB7v160006INS_16reverse_iteratorIPN3glm3vecILi3EfLNS2_9qualifierE0EEEEES7_EENS_4pairINS_18__unwrap_ref_decayIT_E4typeENS9_IT0_E4typeEEEOSA_OSD_, symObjAddr: 0x6CD0, symBinAddr: 0x100011950, symSize: 0x30 }
  - { offsetInCU: 0x10205, offset: 0x402E9, size: 0x8, addend: 0x0, symName: __ZNSt3__114__rewrap_rangeB7v160006INS_16reverse_iteratorIPN3glm3vecILi3EfLNS2_9qualifierE0EEEEES7_EET_S8_T0_, symObjAddr: 0x6D00, symBinAddr: 0x100011980, symSize: 0x60 }
  - { offsetInCU: 0x10251, offset: 0x40335, size: 0x8, addend: 0x0, symName: __ZNSt3__113__rewrap_iterB7v160006INS_16reverse_iteratorIPN3glm3vecILi3EfLNS2_9qualifierE0EEEEES7_NS_18__unwrap_iter_implIS7_Lb0EEEEET_SA_T0_, symObjAddr: 0x6D60, symBinAddr: 0x1000119E0, symSize: 0x70 }
  - { offsetInCU: 0x102A6, offset: 0x4038A, size: 0x8, addend: 0x0, symName: __ZNSt3__1neB7v160006IPN3glm3vecILi3EfLNS1_9qualifierE0EEES5_EEbRKNS_16reverse_iteratorIT_EERKNS6_IT0_EE, symObjAddr: 0x6DD0, symBinAddr: 0x100011A50, symSize: 0x40 }
  - { offsetInCU: 0x1035F, offset: 0x40443, size: 0x8, addend: 0x0, symName: __ZNSt3__119__allocate_at_leastB7v160006INS_9allocatorIN3glm3vecILi2EfLNS2_9qualifierE0EEEEEEENS_19__allocation_resultINS_16allocator_traitsIT_E7pointerEEERS9_m, symObjAddr: 0x7830, symBinAddr: 0x1000124B0, symSize: 0x40 }
  - { offsetInCU: 0x103A2, offset: 0x40486, size: 0x8, addend: 0x0, symName: __ZNSt3__142__uninitialized_allocator_move_if_noexceptB7v160006INS_9allocatorIN3glm3vecILi2EfLNS2_9qualifierE0EEEEENS_16reverse_iteratorIPS5_EES9_S5_vEET1_RT_T0_SD_SA_, symObjAddr: 0x79C0, symBinAddr: 0x100012640, symSize: 0x70 }
  - { offsetInCU: 0x1041F, offset: 0x40503, size: 0x8, addend: 0x0, symName: __ZNSt3__14swapB7v160006IPN3glm3vecILi2EfLNS1_9qualifierE0EEEEENS_9enable_ifIXaasr21is_move_constructibleIT_EE5valuesr18is_move_assignableIS7_EE5valueEvE4typeERS7_SA_, symObjAddr: 0x7A80, symBinAddr: 0x100012700, symSize: 0x40 }
  - { offsetInCU: 0x10471, offset: 0x40555, size: 0x8, addend: 0x0, symName: __ZNSt3__125__debug_db_invalidate_allB7v160006INS_6vectorIN3glm3vecILi2EfLNS2_9qualifierE0EEENS_9allocatorIS5_EEEEEEvPT_, symObjAddr: 0x7B70, symBinAddr: 0x1000127F0, symSize: 0x10 }
  - { offsetInCU: 0x104A2, offset: 0x40586, size: 0x8, addend: 0x0, symName: __ZNSt3__14moveB7v160006INS_16reverse_iteratorIPN3glm3vecILi2EfLNS2_9qualifierE0EEEEES7_EET0_T_S9_S8_, symObjAddr: 0x7B80, symBinAddr: 0x100012800, symSize: 0x80 }
  - { offsetInCU: 0x104FC, offset: 0x405E0, size: 0x8, addend: 0x0, symName: __ZNSt3__16__moveB7v160006INS_17_ClassicAlgPolicyENS_16reverse_iteratorIPN3glm3vecILi2EfLNS3_9qualifierE0EEEEES8_S8_EENS_4pairIT0_T2_EESA_T1_SB_, symObjAddr: 0x7C00, symBinAddr: 0x100012880, symSize: 0x90 }
  - { offsetInCU: 0x10568, offset: 0x4064C, size: 0x8, addend: 0x0, symName: __ZNSt3__123__dispatch_copy_or_moveB7v160006INS_17_ClassicAlgPolicyENS_11__move_loopIS1_EENS_14__move_trivialENS_16reverse_iteratorIPN3glm3vecILi2EfLNS6_9qualifierE0EEEEESB_SB_EENS_4pairIT2_T4_EESD_T3_SE_, symObjAddr: 0x7C90, symBinAddr: 0x100012910, symSize: 0x90 }
  - { offsetInCU: 0x105E6, offset: 0x406CA, size: 0x8, addend: 0x0, symName: __ZNSt3__121__unwrap_and_dispatchB7v160006INS_10__overloadINS_11__move_loopINS_17_ClassicAlgPolicyEEENS_14__move_trivialEEENS_16reverse_iteratorIPN3glm3vecILi2EfLNS8_9qualifierE0EEEEESD_SD_Li0EEENS_4pairIT0_T2_EESF_T1_SG_, symObjAddr: 0x7D20, symBinAddr: 0x1000129A0, symSize: 0x210 }
  - { offsetInCU: 0x10678, offset: 0x4075C, size: 0x8, addend: 0x0, symName: __ZNSt3__114__unwrap_rangeB7v160006INS_16reverse_iteratorIPN3glm3vecILi2EfLNS2_9qualifierE0EEEEES7_EENS_4pairIT0_S9_EET_SB_, symObjAddr: 0x7F30, symBinAddr: 0x100012BB0, symSize: 0x90 }
  - { offsetInCU: 0x10799, offset: 0x4087D, size: 0x8, addend: 0x0, symName: __ZNSt3__113__unwrap_iterB7v160006INS_16reverse_iteratorIPN3glm3vecILi2EfLNS2_9qualifierE0EEEEENS_18__unwrap_iter_implIS7_Lb0EEELi0EEEDTclsrT0_8__unwrapclsr3stdE7declvalIT_EEEESB_, symObjAddr: 0x8060, symBinAddr: 0x100012CE0, symSize: 0x40 }
  - { offsetInCU: 0x107DE, offset: 0x408C2, size: 0x8, addend: 0x0, symName: __ZNSt3__19make_pairB7v160006INS_16reverse_iteratorIPN3glm3vecILi2EfLNS2_9qualifierE0EEEEES7_EENS_4pairINS_18__unwrap_ref_decayIT_E4typeENS9_IT0_E4typeEEEOSA_OSD_, symObjAddr: 0x80A0, symBinAddr: 0x100012D20, symSize: 0x30 }
  - { offsetInCU: 0x1082D, offset: 0x40911, size: 0x8, addend: 0x0, symName: __ZNSt3__114__rewrap_rangeB7v160006INS_16reverse_iteratorIPN3glm3vecILi2EfLNS2_9qualifierE0EEEEES7_EET_S8_T0_, symObjAddr: 0x80D0, symBinAddr: 0x100012D50, symSize: 0x60 }
  - { offsetInCU: 0x10879, offset: 0x4095D, size: 0x8, addend: 0x0, symName: __ZNSt3__113__rewrap_iterB7v160006INS_16reverse_iteratorIPN3glm3vecILi2EfLNS2_9qualifierE0EEEEES7_NS_18__unwrap_iter_implIS7_Lb0EEEEET_SA_T0_, symObjAddr: 0x8130, symBinAddr: 0x100012DB0, symSize: 0x70 }
  - { offsetInCU: 0x108CE, offset: 0x409B2, size: 0x8, addend: 0x0, symName: __ZNSt3__1neB7v160006IPN3glm3vecILi2EfLNS1_9qualifierE0EEES5_EEbRKNS_16reverse_iteratorIT_EERKNS6_IT0_EE, symObjAddr: 0x81A0, symBinAddr: 0x100012E20, symSize: 0x40 }
  - { offsetInCU: 0x10987, offset: 0x40A6B, size: 0x8, addend: 0x0, symName: __ZNSt3__110__str_findB7v160006IcmNS_11char_traitsIcEELm18446744073709551615EEET0_PKT_S3_S6_S3_S3_, symObjAddr: 0x88F0, symBinAddr: 0x100013520, symSize: 0xB0 }
  - { offsetInCU: 0x10A2E, offset: 0x40B12, size: 0x8, addend: 0x0, symName: __ZNSt3__118__search_substringB7v160006IcNS_11char_traitsIcEEEEPKT_S5_S5_S5_S5_, symObjAddr: 0x89D0, symBinAddr: 0x1000135D0, symSize: 0x120 }
  - { offsetInCU: 0x10AC8, offset: 0x40BAC, size: 0x8, addend: 0x0, symName: __ZNSt3__123__constexpr_char_memchrB7v160006EPKcim, symObjAddr: 0x8BC0, symBinAddr: 0x1000137C0, symSize: 0x30 }
  - { offsetInCU: 0x10B10, offset: 0x40BF4, size: 0x8, addend: 0x0, symName: __ZNSt3__118__constexpr_memcmpB7v160006IcEEiPKT_S3_m, symObjAddr: 0x8BF0, symBinAddr: 0x1000137F0, symSize: 0x30 }
  - { offsetInCU: 0x11551, offset: 0x41635, size: 0x8, addend: 0x0, symName: __ZNSt3__16vectorIN3glm3vecILi3EfLNS1_9qualifierE0EEENS_9allocatorIS4_EEE26__swap_out_circular_bufferERNS_14__split_bufferIS4_RS6_EE, symObjAddr: 0x6120, symBinAddr: 0x100010DA0, symSize: 0x130 }
  - { offsetInCU: 0x115A7, offset: 0x4168B, size: 0x8, addend: 0x0, symName: __ZNSt3__16vectorIN3glm3vecILi2EfLNS1_9qualifierE0EEENS_9allocatorIS4_EEE26__swap_out_circular_bufferERNS_14__split_bufferIS4_RS6_EE, symObjAddr: 0x74D0, symBinAddr: 0x100012150, symSize: 0x130 }
  - { offsetInCU: 0x13451, offset: 0x43535, size: 0x8, addend: 0x0, symName: __ZN13ObjFileLoaderC2EPKc, symObjAddr: 0x0, symBinAddr: 0x10000E340, symSize: 0xBC0 }
  - { offsetInCU: 0x135A9, offset: 0x4368D, size: 0x8, addend: 0x0, symName: __ZNSt3__16vectorIN3glm3vecILi3EfLNS1_9qualifierE0EEENS_9allocatorIS4_EEEC1B7v160006Ev, symObjAddr: 0xBC0, symBinAddr: 0x10000EF00, symSize: 0x20 }
  - { offsetInCU: 0x135D1, offset: 0x436B5, size: 0x8, addend: 0x0, symName: __ZNSt3__16vectorIN3glm3vecILi2EfLNS1_9qualifierE0EEENS_9allocatorIS4_EEEC1B7v160006Ev, symObjAddr: 0xBE0, symBinAddr: 0x10000EF20, symSize: 0x20 }
  - { offsetInCU: 0x136CF, offset: 0x437B3, size: 0x8, addend: 0x0, symName: __ZN13ObjFileLoader11parseCoordsENSt3__112basic_stringIcNS0_11char_traitsIcEENS0_9allocatorIcEEEE, symObjAddr: 0xEA0, symBinAddr: 0x10000EF40, symSize: 0x1B0 }
  - { offsetInCU: 0x13733, offset: 0x43817, size: 0x8, addend: 0x0, symName: __ZNKSt3__112basic_stringIcNS_11char_traitsIcEENS_9allocatorIcEEE6substrB7v160006Emm, symObjAddr: 0x1050, symBinAddr: 0x10000F0F0, symSize: 0x70 }
  - { offsetInCU: 0x13775, offset: 0x43859, size: 0x8, addend: 0x0, symName: __ZNSt3__16vectorIfNS_9allocatorIfEEEaSB7v160006EOS3_, symObjAddr: 0x10C0, symBinAddr: 0x10000F160, symSize: 0x30 }
  - { offsetInCU: 0x137AB, offset: 0x4388F, size: 0x8, addend: 0x0, symName: __ZNSt3__16vectorIN3glm3vecILi3EfLNS1_9qualifierE0EEENS_9allocatorIS4_EEE9push_backB7v160006EOS4_, symObjAddr: 0x1110, symBinAddr: 0x10000F190, symSize: 0x60 }
  - { offsetInCU: 0x137E1, offset: 0x438C5, size: 0x8, addend: 0x0, symName: __ZNSt3__16vectorIN3glm3vecILi2EfLNS1_9qualifierE0EEENS_9allocatorIS4_EEE9push_backB7v160006EOS4_, symObjAddr: 0x11D0, symBinAddr: 0x10000F1F0, symSize: 0x60 }
  - { offsetInCU: 0x13876, offset: 0x4395A, size: 0x8, addend: 0x0, symName: __ZNSt3__118basic_stringstreamIcNS_11char_traitsIcEENS_9allocatorIcEEEC1B7v160006ERKNS_12basic_stringIcS2_S4_EEj, symObjAddr: 0x1260, symBinAddr: 0x10000F250, symSize: 0x100 }
  - { offsetInCU: 0x138BC, offset: 0x439A0, size: 0x8, addend: 0x0, symName: __ZNKSt3__112basic_stringIcNS_11char_traitsIcEENS_9allocatorIcEEE4findB7v160006EPKcm, symObjAddr: 0x1650, symBinAddr: 0x10000F640, symSize: 0x70 }
  - { offsetInCU: 0x13901, offset: 0x439E5, size: 0x8, addend: 0x0, symName: __ZNSt3__112basic_stringIcNS_11char_traitsIcEENS_9allocatorIcEEEaSB7v160006EOS5_, symObjAddr: 0x16C0, symBinAddr: 0x10000F6B0, symSize: 0x30 }
  - { offsetInCU: 0x13934, offset: 0x43A18, size: 0x8, addend: 0x0, symName: __ZNSt3__16vectorIjNS_9allocatorIjEEE9push_backB7v160006EOj, symObjAddr: 0x1750, symBinAddr: 0x10000F6E0, symSize: 0x60 }
  - { offsetInCU: 0x1396F, offset: 0x43A53, size: 0x8, addend: 0x0, symName: __ZNSt3__118basic_stringstreamIcNS_11char_traitsIcEENS_9allocatorIcEEED1Ev, symObjAddr: 0x17B0, symBinAddr: 0x10000F740, symSize: 0x40 }
  - { offsetInCU: 0x139A0, offset: 0x43A84, size: 0x8, addend: 0x0, symName: __ZNSt3__16vectorIN3glm3vecILi3EfLNS1_9qualifierE0EEENS_9allocatorIS4_EEED1B7v160006Ev, symObjAddr: 0x18A0, symBinAddr: 0x10000F780, symSize: 0x20 }
  - { offsetInCU: 0x139C8, offset: 0x43AAC, size: 0x8, addend: 0x0, symName: __ZNSt3__16vectorIN3glm3vecILi2EfLNS1_9qualifierE0EEENS_9allocatorIS4_EEED1B7v160006Ev, symObjAddr: 0x18C0, symBinAddr: 0x10000F7A0, symSize: 0x20 }
  - { offsetInCU: 0x139F0, offset: 0x43AD4, size: 0x8, addend: 0x0, symName: __ZN13ObjFileLoaderC1EPKc, symObjAddr: 0x18E0, symBinAddr: 0x10000F7C0, symSize: 0x30 }
  - { offsetInCU: 0x13A28, offset: 0x43B0C, size: 0x8, addend: 0x0, symName: __ZN13ObjFileLoaderD2Ev, symObjAddr: 0x1910, symBinAddr: 0x10000F7F0, symSize: 0x70 }
  - { offsetInCU: 0x13A52, offset: 0x43B36, size: 0x8, addend: 0x0, symName: __ZN13ObjFileLoaderD1Ev, symObjAddr: 0x1980, symBinAddr: 0x10000F860, symSize: 0x20 }
  - { offsetInCU: 0x13A7C, offset: 0x43B60, size: 0x8, addend: 0x0, symName: __ZNSt3__118basic_stringstreamIcNS_11char_traitsIcEENS_9allocatorIcEEED2Ev, symObjAddr: 0x1A10, symBinAddr: 0x10000F880, symSize: 0x60 }
  - { offsetInCU: 0x13AB4, offset: 0x43B98, size: 0x8, addend: 0x0, symName: __ZThn16_NSt3__118basic_stringstreamIcNS_11char_traitsIcEENS_9allocatorIcEEED1Ev, symObjAddr: 0x1A70, symBinAddr: 0x10000F8E0, symSize: 0x20 }
  - { offsetInCU: 0x13ACB, offset: 0x43BAF, size: 0x8, addend: 0x0, symName: __ZTv0_n24_NSt3__118basic_stringstreamIcNS_11char_traitsIcEENS_9allocatorIcEEED1Ev, symObjAddr: 0x1A90, symBinAddr: 0x10000F900, symSize: 0x20 }
  - { offsetInCU: 0x13AE7, offset: 0x43BCB, size: 0x8, addend: 0x0, symName: __ZNSt3__115basic_stringbufIcNS_11char_traitsIcEENS_9allocatorIcEEED1Ev, symObjAddr: 0x1AB0, symBinAddr: 0x10000F920, symSize: 0x20 }
  - { offsetInCU: 0x13B13, offset: 0x43BF7, size: 0x8, addend: 0x0, symName: __ZNSt3__115basic_stringbufIcNS_11char_traitsIcEENS_9allocatorIcEEED2Ev, symObjAddr: 0x1AD0, symBinAddr: 0x10000F940, symSize: 0x40 }
  - { offsetInCU: 0x13B8F, offset: 0x43C73, size: 0x8, addend: 0x0, symName: __ZNSt3__112basic_stringIcNS_11char_traitsIcEENS_9allocatorIcEEE13__move_assignB7v160006ERS5_NS_17integral_constantIbLb1EEE, symObjAddr: 0x40C0, symBinAddr: 0x10000F980, symSize: 0xD0 }
  - { offsetInCU: 0x13BD1, offset: 0x43CB5, size: 0x8, addend: 0x0, symName: __ZNSt3__116allocator_traitsINS_9allocatorIcEEE10deallocateB7v160006ERS2_Pcm, symObjAddr: 0x4190, symBinAddr: 0x10000FA50, symSize: 0x30 }
  - { offsetInCU: 0x13C13, offset: 0x43CF7, size: 0x8, addend: 0x0, symName: __ZNSt3__112basic_stringIcNS_11char_traitsIcEENS_9allocatorIcEEE7__allocB7v160006Ev, symObjAddr: 0x41C0, symBinAddr: 0x10000FA80, symSize: 0x20 }
  - { offsetInCU: 0x13C37, offset: 0x43D1B, size: 0x8, addend: 0x0, symName: __ZNKSt3__112basic_stringIcNS_11char_traitsIcEENS_9allocatorIcEEE14__get_long_capB7v160006Ev, symObjAddr: 0x41E0, symBinAddr: 0x10000FAA0, symSize: 0x30 }
  - { offsetInCU: 0x13C5B, offset: 0x43D3F, size: 0x8, addend: 0x0, symName: __ZNSt3__112basic_stringIcNS_11char_traitsIcEENS_9allocatorIcEEE19__move_assign_allocB7v160006ERS5_, symObjAddr: 0x4210, symBinAddr: 0x10000FAD0, symSize: 0x30 }
  - { offsetInCU: 0x13C8E, offset: 0x43D72, size: 0x8, addend: 0x0, symName: __ZNSt3__19allocatorIcE10deallocateB7v160006EPcm, symObjAddr: 0x4240, symBinAddr: 0x10000FB00, symSize: 0x40 }
  - { offsetInCU: 0x13CCE, offset: 0x43DB2, size: 0x8, addend: 0x0, symName: __ZNSt3__117__compressed_pairINS_12basic_stringIcNS_11char_traitsIcEENS_9allocatorIcEEE5__repES5_E6secondB7v160006Ev, symObjAddr: 0x4280, symBinAddr: 0x10000FB40, symSize: 0x20 }
  - { offsetInCU: 0x13CF2, offset: 0x43DD6, size: 0x8, addend: 0x0, symName: __ZNSt3__122__compressed_pair_elemINS_9allocatorIcEELi1ELb1EE5__getB7v160006Ev, symObjAddr: 0x42A0, symBinAddr: 0x10000FB60, symSize: 0x10 }
  - { offsetInCU: 0x13D16, offset: 0x43DFA, size: 0x8, addend: 0x0, symName: __ZNSt3__112basic_stringIcNS_11char_traitsIcEENS_9allocatorIcEEE19__move_assign_allocB7v160006ERS5_NS_17integral_constantIbLb1EEE, symObjAddr: 0x42B0, symBinAddr: 0x10000FB70, symSize: 0x30 }
  - { offsetInCU: 0x13D55, offset: 0x43E39, size: 0x8, addend: 0x0, symName: __ZNSt3__16vectorIN3glm3vecILi3EfLNS1_9qualifierE0EEENS_9allocatorIS4_EEEC2B7v160006Ev, symObjAddr: 0x43D0, symBinAddr: 0x10000FBA0, symSize: 0x60 }
  - { offsetInCU: 0x13D7D, offset: 0x43E61, size: 0x8, addend: 0x0, symName: __ZNSt3__117__compressed_pairIPN3glm3vecILi3EfLNS1_9qualifierE0EEENS_9allocatorIS4_EEEC1B7v160006IDnNS_18__default_init_tagEEEOT_OT0_, symObjAddr: 0x4430, symBinAddr: 0x10000FC00, symSize: 0x30 }
  - { offsetInCU: 0x13DD3, offset: 0x43EB7, size: 0x8, addend: 0x0, symName: __ZNSt3__117__compressed_pairIPN3glm3vecILi3EfLNS1_9qualifierE0EEENS_9allocatorIS4_EEEC2B7v160006IDnNS_18__default_init_tagEEEOT_OT0_, symObjAddr: 0x4470, symBinAddr: 0x10000FC40, symSize: 0x40 }
  - { offsetInCU: 0x13E29, offset: 0x43F0D, size: 0x8, addend: 0x0, symName: __ZNSt3__122__compressed_pair_elemIPN3glm3vecILi3EfLNS1_9qualifierE0EEELi0ELb0EEC2B7v160006IDnvEEOT_, symObjAddr: 0x44B0, symBinAddr: 0x10000FC80, symSize: 0x20 }
  - { offsetInCU: 0x13E69, offset: 0x43F4D, size: 0x8, addend: 0x0, symName: __ZNSt3__122__compressed_pair_elemINS_9allocatorIN3glm3vecILi3EfLNS2_9qualifierE0EEEEELi1ELb1EEC2B7v160006ENS_18__default_init_tagE, symObjAddr: 0x44D0, symBinAddr: 0x10000FCA0, symSize: 0x20 }
  - { offsetInCU: 0x13E9B, offset: 0x43F7F, size: 0x8, addend: 0x0, symName: __ZNSt3__19allocatorIN3glm3vecILi3EfLNS1_9qualifierE0EEEEC2B7v160006Ev, symObjAddr: 0x44F0, symBinAddr: 0x10000FCC0, symSize: 0x20 }
  - { offsetInCU: 0x13EC3, offset: 0x43FA7, size: 0x8, addend: 0x0, symName: __ZNSt3__116__non_trivial_ifILb1ENS_9allocatorIN3glm3vecILi3EfLNS2_9qualifierE0EEEEEEC2B7v160006Ev, symObjAddr: 0x4510, symBinAddr: 0x10000FCE0, symSize: 0x10 }
  - { offsetInCU: 0x13EEB, offset: 0x43FCF, size: 0x8, addend: 0x0, symName: __ZNSt3__16vectorIN3glm3vecILi2EfLNS1_9qualifierE0EEENS_9allocatorIS4_EEEC2B7v160006Ev, symObjAddr: 0x4520, symBinAddr: 0x10000FCF0, symSize: 0x60 }
  - { offsetInCU: 0x13F13, offset: 0x43FF7, size: 0x8, addend: 0x0, symName: __ZNSt3__117__compressed_pairIPN3glm3vecILi2EfLNS1_9qualifierE0EEENS_9allocatorIS4_EEEC1B7v160006IDnNS_18__default_init_tagEEEOT_OT0_, symObjAddr: 0x4580, symBinAddr: 0x10000FD50, symSize: 0x30 }
  - { offsetInCU: 0x13F69, offset: 0x4404D, size: 0x8, addend: 0x0, symName: __ZNSt3__117__compressed_pairIPN3glm3vecILi2EfLNS1_9qualifierE0EEENS_9allocatorIS4_EEEC2B7v160006IDnNS_18__default_init_tagEEEOT_OT0_, symObjAddr: 0x45C0, symBinAddr: 0x10000FD90, symSize: 0x40 }
  - { offsetInCU: 0x13FBF, offset: 0x440A3, size: 0x8, addend: 0x0, symName: __ZNSt3__122__compressed_pair_elemIPN3glm3vecILi2EfLNS1_9qualifierE0EEELi0ELb0EEC2B7v160006IDnvEEOT_, symObjAddr: 0x4600, symBinAddr: 0x10000FDD0, symSize: 0x20 }
  - { offsetInCU: 0x13FFF, offset: 0x440E3, size: 0x8, addend: 0x0, symName: __ZNSt3__122__compressed_pair_elemINS_9allocatorIN3glm3vecILi2EfLNS2_9qualifierE0EEEEELi1ELb1EEC2B7v160006ENS_18__default_init_tagE, symObjAddr: 0x4620, symBinAddr: 0x10000FDF0, symSize: 0x20 }
  - { offsetInCU: 0x14031, offset: 0x44115, size: 0x8, addend: 0x0, symName: __ZNSt3__19allocatorIN3glm3vecILi2EfLNS1_9qualifierE0EEEEC2B7v160006Ev, symObjAddr: 0x4640, symBinAddr: 0x10000FE10, symSize: 0x20 }
  - { offsetInCU: 0x14059, offset: 0x4413D, size: 0x8, addend: 0x0, symName: __ZNSt3__116__non_trivial_ifILb1ENS_9allocatorIN3glm3vecILi2EfLNS2_9qualifierE0EEEEEEC2B7v160006Ev, symObjAddr: 0x4660, symBinAddr: 0x10000FE30, symSize: 0x10 }
  - { offsetInCU: 0x14081, offset: 0x44165, size: 0x8, addend: 0x0, symName: __ZNSt3__16vectorIN3glm3vecILi3EfLNS1_9qualifierE0EEENS_9allocatorIS4_EEED2B7v160006Ev, symObjAddr: 0x47C0, symBinAddr: 0x10000FE40, symSize: 0x40 }
  - { offsetInCU: 0x140A9, offset: 0x4418D, size: 0x8, addend: 0x0, symName: __ZNSt3__16vectorIN3glm3vecILi3EfLNS1_9qualifierE0EEENS_9allocatorIS4_EEE16__destroy_vectorC1ERS7_, symObjAddr: 0x4800, symBinAddr: 0x10000FE80, symSize: 0x30 }
  - { offsetInCU: 0x140E0, offset: 0x441C4, size: 0x8, addend: 0x0, symName: __ZNSt3__16vectorIN3glm3vecILi3EfLNS1_9qualifierE0EEENS_9allocatorIS4_EEE16__destroy_vectorclB7v160006Ev, symObjAddr: 0x4830, symBinAddr: 0x10000FEB0, symSize: 0x90 }
  - { offsetInCU: 0x14104, offset: 0x441E8, size: 0x8, addend: 0x0, symName: __ZNSt3__16vectorIN3glm3vecILi3EfLNS1_9qualifierE0EEENS_9allocatorIS4_EEE16__destroy_vectorC2ERS7_, symObjAddr: 0x48C0, symBinAddr: 0x10000FF40, symSize: 0x20 }
  - { offsetInCU: 0x1413B, offset: 0x4421F, size: 0x8, addend: 0x0, symName: __ZNKSt3__16vectorIN3glm3vecILi3EfLNS1_9qualifierE0EEENS_9allocatorIS4_EEE17__annotate_deleteB7v160006Ev, symObjAddr: 0x48E0, symBinAddr: 0x10000FF60, symSize: 0xB0 }
  - { offsetInCU: 0x1415F, offset: 0x44243, size: 0x8, addend: 0x0, symName: __ZNSt3__16vectorIN3glm3vecILi3EfLNS1_9qualifierE0EEENS_9allocatorIS4_EEE7__clearB7v160006Ev, symObjAddr: 0x49A0, symBinAddr: 0x100010020, symSize: 0x20 }
  - { offsetInCU: 0x14183, offset: 0x44267, size: 0x8, addend: 0x0, symName: __ZNSt3__116allocator_traitsINS_9allocatorIN3glm3vecILi3EfLNS2_9qualifierE0EEEEEE10deallocateB7v160006ERS6_PS5_m, symObjAddr: 0x49C0, symBinAddr: 0x100010040, symSize: 0x30 }
  - { offsetInCU: 0x141C5, offset: 0x442A9, size: 0x8, addend: 0x0, symName: __ZNSt3__16vectorIN3glm3vecILi3EfLNS1_9qualifierE0EEENS_9allocatorIS4_EEE7__allocB7v160006Ev, symObjAddr: 0x49F0, symBinAddr: 0x100010070, symSize: 0x20 }
  - { offsetInCU: 0x141E9, offset: 0x442CD, size: 0x8, addend: 0x0, symName: __ZNKSt3__16vectorIN3glm3vecILi3EfLNS1_9qualifierE0EEENS_9allocatorIS4_EEE8capacityB7v160006Ev, symObjAddr: 0x4A10, symBinAddr: 0x100010090, symSize: 0x40 }
  - { offsetInCU: 0x1420D, offset: 0x442F1, size: 0x8, addend: 0x0, symName: __ZNKSt3__16vectorIN3glm3vecILi3EfLNS1_9qualifierE0EEENS_9allocatorIS4_EEE31__annotate_contiguous_containerB7v160006EPKvS9_S9_S9_, symObjAddr: 0x4A50, symBinAddr: 0x1000100D0, symSize: 0x20 }
  - { offsetInCU: 0x14261, offset: 0x44345, size: 0x8, addend: 0x0, symName: __ZNKSt3__16vectorIN3glm3vecILi3EfLNS1_9qualifierE0EEENS_9allocatorIS4_EEE4dataB7v160006Ev, symObjAddr: 0x4A70, symBinAddr: 0x1000100F0, symSize: 0x20 }
  - { offsetInCU: 0x14285, offset: 0x44369, size: 0x8, addend: 0x0, symName: __ZNKSt3__16vectorIN3glm3vecILi3EfLNS1_9qualifierE0EEENS_9allocatorIS4_EEE4sizeB7v160006Ev, symObjAddr: 0x4A90, symBinAddr: 0x100010110, symSize: 0x30 }
  - { offsetInCU: 0x142A9, offset: 0x4438D, size: 0x8, addend: 0x0, symName: __ZNSt3__16vectorIN3glm3vecILi3EfLNS1_9qualifierE0EEENS_9allocatorIS4_EEE22__base_destruct_at_endB7v160006EPS4_, symObjAddr: 0x4AD0, symBinAddr: 0x100010150, symSize: 0x80 }
  - { offsetInCU: 0x142EB, offset: 0x443CF, size: 0x8, addend: 0x0, symName: __ZNSt3__116allocator_traitsINS_9allocatorIN3glm3vecILi3EfLNS2_9qualifierE0EEEEEE7destroyB7v160006IS5_vEEvRS6_PT_, symObjAddr: 0x4B50, symBinAddr: 0x1000101D0, symSize: 0x30 }
  - { offsetInCU: 0x14328, offset: 0x4440C, size: 0x8, addend: 0x0, symName: __ZNSt3__19allocatorIN3glm3vecILi3EfLNS1_9qualifierE0EEEE7destroyB7v160006EPS4_, symObjAddr: 0x4B80, symBinAddr: 0x100010200, symSize: 0x10 }
  - { offsetInCU: 0x1435A, offset: 0x4443E, size: 0x8, addend: 0x0, symName: __ZNSt3__19allocatorIN3glm3vecILi3EfLNS1_9qualifierE0EEEE10deallocateB7v160006EPS4_m, symObjAddr: 0x4B90, symBinAddr: 0x100010210, symSize: 0x50 }
  - { offsetInCU: 0x1439A, offset: 0x4447E, size: 0x8, addend: 0x0, symName: __ZNSt3__117__compressed_pairIPN3glm3vecILi3EfLNS1_9qualifierE0EEENS_9allocatorIS4_EEE6secondB7v160006Ev, symObjAddr: 0x4BE0, symBinAddr: 0x100010260, symSize: 0x20 }
  - { offsetInCU: 0x143BE, offset: 0x444A2, size: 0x8, addend: 0x0, symName: __ZNSt3__122__compressed_pair_elemINS_9allocatorIN3glm3vecILi3EfLNS2_9qualifierE0EEEEELi1ELb1EE5__getB7v160006Ev, symObjAddr: 0x4C00, symBinAddr: 0x100010280, symSize: 0x10 }
  - { offsetInCU: 0x143E2, offset: 0x444C6, size: 0x8, addend: 0x0, symName: __ZNKSt3__16vectorIN3glm3vecILi3EfLNS1_9qualifierE0EEENS_9allocatorIS4_EEE9__end_capB7v160006Ev, symObjAddr: 0x4C10, symBinAddr: 0x100010290, symSize: 0x20 }
  - { offsetInCU: 0x14406, offset: 0x444EA, size: 0x8, addend: 0x0, symName: __ZNKSt3__117__compressed_pairIPN3glm3vecILi3EfLNS1_9qualifierE0EEENS_9allocatorIS4_EEE5firstB7v160006Ev, symObjAddr: 0x4C30, symBinAddr: 0x1000102B0, symSize: 0x20 }
  - { offsetInCU: 0x1442A, offset: 0x4450E, size: 0x8, addend: 0x0, symName: __ZNKSt3__122__compressed_pair_elemIPN3glm3vecILi3EfLNS1_9qualifierE0EEELi0ELb0EE5__getB7v160006Ev, symObjAddr: 0x4C50, symBinAddr: 0x1000102D0, symSize: 0x10 }
  - { offsetInCU: 0x1444E, offset: 0x44532, size: 0x8, addend: 0x0, symName: __ZNSt3__16vectorIN3glm3vecILi2EfLNS1_9qualifierE0EEENS_9allocatorIS4_EEED2B7v160006Ev, symObjAddr: 0x4C60, symBinAddr: 0x1000102E0, symSize: 0x40 }
  - { offsetInCU: 0x14476, offset: 0x4455A, size: 0x8, addend: 0x0, symName: __ZNSt3__16vectorIN3glm3vecILi2EfLNS1_9qualifierE0EEENS_9allocatorIS4_EEE16__destroy_vectorC1ERS7_, symObjAddr: 0x4CA0, symBinAddr: 0x100010320, symSize: 0x30 }
  - { offsetInCU: 0x144AD, offset: 0x44591, size: 0x8, addend: 0x0, symName: __ZNSt3__16vectorIN3glm3vecILi2EfLNS1_9qualifierE0EEENS_9allocatorIS4_EEE16__destroy_vectorclB7v160006Ev, symObjAddr: 0x4CD0, symBinAddr: 0x100010350, symSize: 0x90 }
  - { offsetInCU: 0x144D1, offset: 0x445B5, size: 0x8, addend: 0x0, symName: __ZNSt3__16vectorIN3glm3vecILi2EfLNS1_9qualifierE0EEENS_9allocatorIS4_EEE16__destroy_vectorC2ERS7_, symObjAddr: 0x4D60, symBinAddr: 0x1000103E0, symSize: 0x20 }
  - { offsetInCU: 0x14508, offset: 0x445EC, size: 0x8, addend: 0x0, symName: __ZNKSt3__16vectorIN3glm3vecILi2EfLNS1_9qualifierE0EEENS_9allocatorIS4_EEE17__annotate_deleteB7v160006Ev, symObjAddr: 0x4D80, symBinAddr: 0x100010400, symSize: 0xB0 }
  - { offsetInCU: 0x1452C, offset: 0x44610, size: 0x8, addend: 0x0, symName: __ZNSt3__16vectorIN3glm3vecILi2EfLNS1_9qualifierE0EEENS_9allocatorIS4_EEE7__clearB7v160006Ev, symObjAddr: 0x4E40, symBinAddr: 0x1000104C0, symSize: 0x20 }
  - { offsetInCU: 0x14550, offset: 0x44634, size: 0x8, addend: 0x0, symName: __ZNSt3__116allocator_traitsINS_9allocatorIN3glm3vecILi2EfLNS2_9qualifierE0EEEEEE10deallocateB7v160006ERS6_PS5_m, symObjAddr: 0x4E60, symBinAddr: 0x1000104E0, symSize: 0x30 }
  - { offsetInCU: 0x14592, offset: 0x44676, size: 0x8, addend: 0x0, symName: __ZNSt3__16vectorIN3glm3vecILi2EfLNS1_9qualifierE0EEENS_9allocatorIS4_EEE7__allocB7v160006Ev, symObjAddr: 0x4E90, symBinAddr: 0x100010510, symSize: 0x20 }
  - { offsetInCU: 0x145B6, offset: 0x4469A, size: 0x8, addend: 0x0, symName: __ZNKSt3__16vectorIN3glm3vecILi2EfLNS1_9qualifierE0EEENS_9allocatorIS4_EEE8capacityB7v160006Ev, symObjAddr: 0x4EB0, symBinAddr: 0x100010530, symSize: 0x30 }
  - { offsetInCU: 0x145DA, offset: 0x446BE, size: 0x8, addend: 0x0, symName: __ZNKSt3__16vectorIN3glm3vecILi2EfLNS1_9qualifierE0EEENS_9allocatorIS4_EEE31__annotate_contiguous_containerB7v160006EPKvS9_S9_S9_, symObjAddr: 0x4EE0, symBinAddr: 0x100010560, symSize: 0x20 }
  - { offsetInCU: 0x1462E, offset: 0x44712, size: 0x8, addend: 0x0, symName: __ZNKSt3__16vectorIN3glm3vecILi2EfLNS1_9qualifierE0EEENS_9allocatorIS4_EEE4dataB7v160006Ev, symObjAddr: 0x4F00, symBinAddr: 0x100010580, symSize: 0x20 }
  - { offsetInCU: 0x14652, offset: 0x44736, size: 0x8, addend: 0x0, symName: __ZNKSt3__16vectorIN3glm3vecILi2EfLNS1_9qualifierE0EEENS_9allocatorIS4_EEE4sizeB7v160006Ev, symObjAddr: 0x4F20, symBinAddr: 0x1000105A0, symSize: 0x20 }
  - { offsetInCU: 0x14676, offset: 0x4475A, size: 0x8, addend: 0x0, symName: __ZNSt3__16vectorIN3glm3vecILi2EfLNS1_9qualifierE0EEENS_9allocatorIS4_EEE22__base_destruct_at_endB7v160006EPS4_, symObjAddr: 0x4F50, symBinAddr: 0x1000105D0, symSize: 0x80 }
  - { offsetInCU: 0x146B8, offset: 0x4479C, size: 0x8, addend: 0x0, symName: __ZNSt3__116allocator_traitsINS_9allocatorIN3glm3vecILi2EfLNS2_9qualifierE0EEEEEE7destroyB7v160006IS5_vEEvRS6_PT_, symObjAddr: 0x4FD0, symBinAddr: 0x100010650, symSize: 0x30 }
  - { offsetInCU: 0x146F5, offset: 0x447D9, size: 0x8, addend: 0x0, symName: __ZNSt3__19allocatorIN3glm3vecILi2EfLNS1_9qualifierE0EEEE7destroyB7v160006EPS4_, symObjAddr: 0x5000, symBinAddr: 0x100010680, symSize: 0x10 }
  - { offsetInCU: 0x14727, offset: 0x4480B, size: 0x8, addend: 0x0, symName: __ZNSt3__19allocatorIN3glm3vecILi2EfLNS1_9qualifierE0EEEE10deallocateB7v160006EPS4_m, symObjAddr: 0x5010, symBinAddr: 0x100010690, symSize: 0x40 }
  - { offsetInCU: 0x14767, offset: 0x4484B, size: 0x8, addend: 0x0, symName: __ZNSt3__117__compressed_pairIPN3glm3vecILi2EfLNS1_9qualifierE0EEENS_9allocatorIS4_EEE6secondB7v160006Ev, symObjAddr: 0x5050, symBinAddr: 0x1000106D0, symSize: 0x20 }
  - { offsetInCU: 0x1478B, offset: 0x4486F, size: 0x8, addend: 0x0, symName: __ZNSt3__122__compressed_pair_elemINS_9allocatorIN3glm3vecILi2EfLNS2_9qualifierE0EEEEELi1ELb1EE5__getB7v160006Ev, symObjAddr: 0x5070, symBinAddr: 0x1000106F0, symSize: 0x10 }
  - { offsetInCU: 0x147AF, offset: 0x44893, size: 0x8, addend: 0x0, symName: __ZNKSt3__16vectorIN3glm3vecILi2EfLNS1_9qualifierE0EEENS_9allocatorIS4_EEE9__end_capB7v160006Ev, symObjAddr: 0x5080, symBinAddr: 0x100010700, symSize: 0x20 }
  - { offsetInCU: 0x147D3, offset: 0x448B7, size: 0x8, addend: 0x0, symName: __ZNKSt3__117__compressed_pairIPN3glm3vecILi2EfLNS1_9qualifierE0EEENS_9allocatorIS4_EEE5firstB7v160006Ev, symObjAddr: 0x50A0, symBinAddr: 0x100010720, symSize: 0x20 }
  - { offsetInCU: 0x147F7, offset: 0x448DB, size: 0x8, addend: 0x0, symName: __ZNKSt3__122__compressed_pair_elemIPN3glm3vecILi2EfLNS1_9qualifierE0EEELi0ELb0EE5__getB7v160006Ev, symObjAddr: 0x50C0, symBinAddr: 0x100010740, symSize: 0x10 }
  - { offsetInCU: 0x14820, offset: 0x44904, size: 0x8, addend: 0x0, symName: __ZNSt3__19allocatorIcEC1B7v160006Ev, symObjAddr: 0x5AD0, symBinAddr: 0x100010750, symSize: 0x20 }
  - { offsetInCU: 0x14848, offset: 0x4492C, size: 0x8, addend: 0x0, symName: __ZNSt3__16vectorIfNS_9allocatorIfEEE13__move_assignERS3_NS_17integral_constantIbLb1EEE, symObjAddr: 0x5AF0, symBinAddr: 0x100010770, symSize: 0xB0 }
  - { offsetInCU: 0x1488A, offset: 0x4496E, size: 0x8, addend: 0x0, symName: __ZNSt3__16vectorIfNS_9allocatorIfEEE13__vdeallocateEv, symObjAddr: 0x5BA0, symBinAddr: 0x100010820, symSize: 0x80 }
  - { offsetInCU: 0x148B1, offset: 0x44995, size: 0x8, addend: 0x0, symName: __ZNSt3__16vectorIfNS_9allocatorIfEEE19__move_assign_allocB7v160006ERS3_, symObjAddr: 0x5C20, symBinAddr: 0x1000108A0, symSize: 0x30 }
  - { offsetInCU: 0x148E4, offset: 0x449C8, size: 0x8, addend: 0x0, symName: __ZNSt3__16vectorIfNS_9allocatorIfEEE5clearB7v160006Ev, symObjAddr: 0x5C60, symBinAddr: 0x1000108E0, symSize: 0x50 }
  - { offsetInCU: 0x14917, offset: 0x449FB, size: 0x8, addend: 0x0, symName: __ZNKSt3__16vectorIfNS_9allocatorIfEEE17__annotate_shrinkB7v160006Em, symObjAddr: 0x5CB0, symBinAddr: 0x100010930, symSize: 0xA0 }
  - { offsetInCU: 0x1494A, offset: 0x44A2E, size: 0x8, addend: 0x0, symName: __ZNSt3__16vectorIfNS_9allocatorIfEEE19__move_assign_allocB7v160006ERS3_NS_17integral_constantIbLb1EEE, symObjAddr: 0x5D50, symBinAddr: 0x1000109D0, symSize: 0x30 }
  - { offsetInCU: 0x14989, offset: 0x44A6D, size: 0x8, addend: 0x0, symName: __ZNSt3__16vectorIN3glm3vecILi3EfLNS1_9qualifierE0EEENS_9allocatorIS4_EEE9__end_capB7v160006Ev, symObjAddr: 0x5D80, symBinAddr: 0x100010A00, symSize: 0x20 }
  - { offsetInCU: 0x149B2, offset: 0x44A96, size: 0x8, addend: 0x0, symName: __ZNSt3__16vectorIN3glm3vecILi3EfLNS1_9qualifierE0EEENS_9allocatorIS4_EEE22__construct_one_at_endB7v160006IJS4_EEEvDpOT_, symObjAddr: 0x5DA0, symBinAddr: 0x100010A20, symSize: 0x90 }
  - { offsetInCU: 0x149FF, offset: 0x44AE3, size: 0x8, addend: 0x0, symName: __ZNSt3__16vectorIN3glm3vecILi3EfLNS1_9qualifierE0EEENS_9allocatorIS4_EEE21__push_back_slow_pathIS4_EEvOT_, symObjAddr: 0x5E30, symBinAddr: 0x100010AB0, symSize: 0xD0 }
  - { offsetInCU: 0x14A5C, offset: 0x44B40, size: 0x8, addend: 0x0, symName: __ZNSt3__117__compressed_pairIPN3glm3vecILi3EfLNS1_9qualifierE0EEENS_9allocatorIS4_EEE5firstB7v160006Ev, symObjAddr: 0x5F00, symBinAddr: 0x100010B80, symSize: 0x20 }
  - { offsetInCU: 0x14A80, offset: 0x44B64, size: 0x8, addend: 0x0, symName: __ZNSt3__122__compressed_pair_elemIPN3glm3vecILi3EfLNS1_9qualifierE0EEELi0ELb0EE5__getB7v160006Ev, symObjAddr: 0x5F20, symBinAddr: 0x100010BA0, symSize: 0x10 }
  - { offsetInCU: 0x14ABD, offset: 0x44BA1, size: 0x8, addend: 0x0, symName: __ZNSt3__16vectorIN3glm3vecILi3EfLNS1_9qualifierE0EEENS_9allocatorIS4_EEE21_ConstructTransactionC1B7v160006ERS7_m, symObjAddr: 0x5F30, symBinAddr: 0x100010BB0, symSize: 0x30 }
  - { offsetInCU: 0x14B03, offset: 0x44BE7, size: 0x8, addend: 0x0, symName: __ZNSt3__116allocator_traitsINS_9allocatorIN3glm3vecILi3EfLNS2_9qualifierE0EEEEEE9constructB7v160006IS5_JS5_EvEEvRS6_PT_DpOT0_, symObjAddr: 0x5F60, symBinAddr: 0x100010BE0, symSize: 0x30 }
  - { offsetInCU: 0x14B5A, offset: 0x44C3E, size: 0x8, addend: 0x0, symName: __ZNSt3__16vectorIN3glm3vecILi3EfLNS1_9qualifierE0EEENS_9allocatorIS4_EEE21_ConstructTransactionD1B7v160006Ev, symObjAddr: 0x5F90, symBinAddr: 0x100010C10, symSize: 0x20 }
  - { offsetInCU: 0x14B82, offset: 0x44C66, size: 0x8, addend: 0x0, symName: __ZNSt3__16vectorIN3glm3vecILi3EfLNS1_9qualifierE0EEENS_9allocatorIS4_EEE21_ConstructTransactionC2B7v160006ERS7_m, symObjAddr: 0x5FB0, symBinAddr: 0x100010C30, symSize: 0x40 }
  - { offsetInCU: 0x14BC8, offset: 0x44CAC, size: 0x8, addend: 0x0, symName: __ZNSt3__19allocatorIN3glm3vecILi3EfLNS1_9qualifierE0EEEE9constructB7v160006IS4_JS4_EEEvPT_DpOT0_, symObjAddr: 0x5FF0, symBinAddr: 0x100010C70, symSize: 0x30 }
  - { offsetInCU: 0x14C1C, offset: 0x44D00, size: 0x8, addend: 0x0, symName: __ZNSt3__16vectorIN3glm3vecILi3EfLNS1_9qualifierE0EEENS_9allocatorIS4_EEE21_ConstructTransactionD2B7v160006Ev, symObjAddr: 0x6020, symBinAddr: 0x100010CA0, symSize: 0x20 }
  - { offsetInCU: 0x14C44, offset: 0x44D28, size: 0x8, addend: 0x0, symName: __ZNKSt3__16vectorIN3glm3vecILi3EfLNS1_9qualifierE0EEENS_9allocatorIS4_EEE11__recommendB7v160006Em, symObjAddr: 0x6040, symBinAddr: 0x100010CC0, symSize: 0xA0 }
  - { offsetInCU: 0x14C98, offset: 0x44D7C, size: 0x8, addend: 0x0, symName: __ZNSt3__114__split_bufferIN3glm3vecILi3EfLNS1_9qualifierE0EEERNS_9allocatorIS4_EEEC1EmmS7_, symObjAddr: 0x60E0, symBinAddr: 0x100010D60, symSize: 0x40 }
  - { offsetInCU: 0x14CED, offset: 0x44DD1, size: 0x8, addend: 0x0, symName: __ZNSt3__114__split_bufferIN3glm3vecILi3EfLNS1_9qualifierE0EEERNS_9allocatorIS4_EEED1Ev, symObjAddr: 0x6250, symBinAddr: 0x100010ED0, symSize: 0x20 }
  - { offsetInCU: 0x14D18, offset: 0x44DFC, size: 0x8, addend: 0x0, symName: __ZNKSt3__16vectorIN3glm3vecILi3EfLNS1_9qualifierE0EEENS_9allocatorIS4_EEE8max_sizeEv, symObjAddr: 0x6270, symBinAddr: 0x100010EF0, symSize: 0x60 }
  - { offsetInCU: 0x14D3F, offset: 0x44E23, size: 0x8, addend: 0x0, symName: __ZNKSt3__16vectorIN3glm3vecILi3EfLNS1_9qualifierE0EEENS_9allocatorIS4_EEE20__throw_length_errorB7v160006Ev, symObjAddr: 0x62D0, symBinAddr: 0x100010F50, symSize: 0x20 }
  - { offsetInCU: 0x14D6D, offset: 0x44E51, size: 0x8, addend: 0x0, symName: __ZNSt3__116allocator_traitsINS_9allocatorIN3glm3vecILi3EfLNS2_9qualifierE0EEEEEE8max_sizeB7v160006IS6_vEEmRKS6_, symObjAddr: 0x62F0, symBinAddr: 0x100010F70, symSize: 0x20 }
  - { offsetInCU: 0x14D9B, offset: 0x44E7F, size: 0x8, addend: 0x0, symName: __ZNKSt3__16vectorIN3glm3vecILi3EfLNS1_9qualifierE0EEENS_9allocatorIS4_EEE7__allocB7v160006Ev, symObjAddr: 0x6310, symBinAddr: 0x100010F90, symSize: 0x20 }
  - { offsetInCU: 0x14DBF, offset: 0x44EA3, size: 0x8, addend: 0x0, symName: __ZNKSt3__19allocatorIN3glm3vecILi3EfLNS1_9qualifierE0EEEE8max_sizeB7v160006Ev, symObjAddr: 0x6330, symBinAddr: 0x100010FB0, symSize: 0x20 }
  - { offsetInCU: 0x14DE3, offset: 0x44EC7, size: 0x8, addend: 0x0, symName: __ZNKSt3__117__compressed_pairIPN3glm3vecILi3EfLNS1_9qualifierE0EEENS_9allocatorIS4_EEE6secondB7v160006Ev, symObjAddr: 0x6350, symBinAddr: 0x100010FD0, symSize: 0x20 }
  - { offsetInCU: 0x14E07, offset: 0x44EEB, size: 0x8, addend: 0x0, symName: __ZNKSt3__122__compressed_pair_elemINS_9allocatorIN3glm3vecILi3EfLNS2_9qualifierE0EEEEELi1ELb1EE5__getB7v160006Ev, symObjAddr: 0x6370, symBinAddr: 0x100010FF0, symSize: 0x10 }
  - { offsetInCU: 0x14E2B, offset: 0x44F0F, size: 0x8, addend: 0x0, symName: __ZNSt3__114__split_bufferIN3glm3vecILi3EfLNS1_9qualifierE0EEERNS_9allocatorIS4_EEEC2EmmS7_, symObjAddr: 0x6380, symBinAddr: 0x100011000, symSize: 0xC0 }
  - { offsetInCU: 0x14E9E, offset: 0x44F82, size: 0x8, addend: 0x0, symName: __ZNSt3__117__compressed_pairIPN3glm3vecILi3EfLNS1_9qualifierE0EEERNS_9allocatorIS4_EEEC1B7v160006IDnS8_EEOT_OT0_, symObjAddr: 0x6440, symBinAddr: 0x1000110C0, symSize: 0x30 }
  - { offsetInCU: 0x14EF4, offset: 0x44FD8, size: 0x8, addend: 0x0, symName: __ZNSt3__114__split_bufferIN3glm3vecILi3EfLNS1_9qualifierE0EEERNS_9allocatorIS4_EEE7__allocB7v160006Ev, symObjAddr: 0x64B0, symBinAddr: 0x100011130, symSize: 0x20 }
  - { offsetInCU: 0x14F18, offset: 0x44FFC, size: 0x8, addend: 0x0, symName: __ZNSt3__114__split_bufferIN3glm3vecILi3EfLNS1_9qualifierE0EEERNS_9allocatorIS4_EEE9__end_capB7v160006Ev, symObjAddr: 0x64D0, symBinAddr: 0x100011150, symSize: 0x20 }
  - { offsetInCU: 0x14F3C, offset: 0x45020, size: 0x8, addend: 0x0, symName: __ZNSt3__117__compressed_pairIPN3glm3vecILi3EfLNS1_9qualifierE0EEERNS_9allocatorIS4_EEEC2B7v160006IDnS8_EEOT_OT0_, symObjAddr: 0x64F0, symBinAddr: 0x100011170, symSize: 0x40 }
  - { offsetInCU: 0x14F92, offset: 0x45076, size: 0x8, addend: 0x0, symName: __ZNSt3__122__compressed_pair_elemIRNS_9allocatorIN3glm3vecILi3EfLNS2_9qualifierE0EEEEELi1ELb0EEC2B7v160006IS7_vEEOT_, symObjAddr: 0x6530, symBinAddr: 0x1000111B0, symSize: 0x20 }
  - { offsetInCU: 0x14FD2, offset: 0x450B6, size: 0x8, addend: 0x0, symName: __ZNSt3__19allocatorIN3glm3vecILi3EfLNS1_9qualifierE0EEEE8allocateB7v160006Em, symObjAddr: 0x6550, symBinAddr: 0x1000111D0, symSize: 0x50 }
  - { offsetInCU: 0x15004, offset: 0x450E8, size: 0x8, addend: 0x0, symName: __ZNSt3__117__compressed_pairIPN3glm3vecILi3EfLNS1_9qualifierE0EEERNS_9allocatorIS4_EEE6secondB7v160006Ev, symObjAddr: 0x65A0, symBinAddr: 0x100011220, symSize: 0x20 }
  - { offsetInCU: 0x15028, offset: 0x4510C, size: 0x8, addend: 0x0, symName: __ZNSt3__122__compressed_pair_elemIRNS_9allocatorIN3glm3vecILi3EfLNS2_9qualifierE0EEEEELi1ELb0EE5__getB7v160006Ev, symObjAddr: 0x65C0, symBinAddr: 0x100011240, symSize: 0x20 }
  - { offsetInCU: 0x1504C, offset: 0x45130, size: 0x8, addend: 0x0, symName: __ZNSt3__117__compressed_pairIPN3glm3vecILi3EfLNS1_9qualifierE0EEERNS_9allocatorIS4_EEE5firstB7v160006Ev, symObjAddr: 0x65E0, symBinAddr: 0x100011260, symSize: 0x20 }
  - { offsetInCU: 0x15070, offset: 0x45154, size: 0x8, addend: 0x0, symName: __ZNSt3__116reverse_iteratorIPN3glm3vecILi3EfLNS1_9qualifierE0EEEEC1B7v160006ES5_, symObjAddr: 0x6670, symBinAddr: 0x1000112F0, symSize: 0x30 }
  - { offsetInCU: 0x150A6, offset: 0x4518A, size: 0x8, addend: 0x0, symName: __ZNKSt3__116reverse_iteratorIPN3glm3vecILi3EfLNS1_9qualifierE0EEEE4baseB7v160006Ev, symObjAddr: 0x66A0, symBinAddr: 0x100011320, symSize: 0x20 }
  - { offsetInCU: 0x150CA, offset: 0x451AE, size: 0x8, addend: 0x0, symName: __ZNKSt3__16vectorIN3glm3vecILi3EfLNS1_9qualifierE0EEENS_9allocatorIS4_EEE14__annotate_newB7v160006Em, symObjAddr: 0x6700, symBinAddr: 0x100011380, symSize: 0xA0 }
  - { offsetInCU: 0x15116, offset: 0x451FA, size: 0x8, addend: 0x0, symName: __ZNKSt3__111__move_loopINS_17_ClassicAlgPolicyEEclB7v160006INS_16reverse_iteratorIPN3glm3vecILi3EfLNS5_9qualifierE0EEEEESA_SA_EENS_4pairIT_T1_EESC_T0_SD_, symObjAddr: 0x6BF0, symBinAddr: 0x100011870, symSize: 0xA0 }
  - { offsetInCU: 0x1517F, offset: 0x45263, size: 0x8, addend: 0x0, symName: __ZNSt3__18_IterOpsINS_17_ClassicAlgPolicyEE11__iter_moveB7v160006IRNS_16reverse_iteratorIPN3glm3vecILi3EfLNS5_9qualifierE0EEEEEEENS_9enable_ifIXsr12is_referenceIDTdeclsr3stdE7declvalIRT_EEEEE5valueEDTclsr3stdE4movedeclsr3stdE7declvalISE_EEEEE4typeEOSD_, symObjAddr: 0x6E10, symBinAddr: 0x100011A90, symSize: 0x20 }
  - { offsetInCU: 0x151AB, offset: 0x4528F, size: 0x8, addend: 0x0, symName: __ZNKSt3__116reverse_iteratorIPN3glm3vecILi3EfLNS1_9qualifierE0EEEEdeB7v160006Ev, symObjAddr: 0x6E30, symBinAddr: 0x100011AB0, symSize: 0x30 }
  - { offsetInCU: 0x151DE, offset: 0x452C2, size: 0x8, addend: 0x0, symName: __ZNSt3__116reverse_iteratorIPN3glm3vecILi3EfLNS1_9qualifierE0EEEEppB7v160006Ev, symObjAddr: 0x6E60, symBinAddr: 0x100011AE0, symSize: 0x20 }
  - { offsetInCU: 0x15202, offset: 0x452E6, size: 0x8, addend: 0x0, symName: __ZNSt3__18_IterOpsINS_17_ClassicAlgPolicyEE25__validate_iter_referenceB7v160006IRNS_16reverse_iteratorIPN3glm3vecILi3EfLNS5_9qualifierE0EEEEEEEvv, symObjAddr: 0x6E80, symBinAddr: 0x100011B00, symSize: 0x10 }
  - { offsetInCU: 0x15220, offset: 0x45304, size: 0x8, addend: 0x0, symName: __ZNSt3__118__unwrap_iter_implINS_16reverse_iteratorIPN3glm3vecILi3EfLNS2_9qualifierE0EEEEELb0EE8__unwrapB7v160006ES7_, symObjAddr: 0x6E90, symBinAddr: 0x100011B10, symSize: 0x20 }
  - { offsetInCU: 0x15248, offset: 0x4532C, size: 0x8, addend: 0x0, symName: __ZNSt3__14pairINS_16reverse_iteratorIPN3glm3vecILi3EfLNS2_9qualifierE0EEEEES7_EC1B7v160006IS7_S7_LPv0EEEOT_OT0_, symObjAddr: 0x6EB0, symBinAddr: 0x100011B30, symSize: 0x30 }
  - { offsetInCU: 0x152A5, offset: 0x45389, size: 0x8, addend: 0x0, symName: __ZNSt3__14pairINS_16reverse_iteratorIPN3glm3vecILi3EfLNS2_9qualifierE0EEEEES7_EC2B7v160006IS7_S7_LPv0EEEOT_OT0_, symObjAddr: 0x6EE0, symBinAddr: 0x100011B60, symSize: 0x40 }
  - { offsetInCU: 0x15302, offset: 0x453E6, size: 0x8, addend: 0x0, symName: __ZNSt3__118__unwrap_iter_implINS_16reverse_iteratorIPN3glm3vecILi3EfLNS2_9qualifierE0EEEEELb0EE8__rewrapB7v160006ES7_S7_, symObjAddr: 0x6F20, symBinAddr: 0x100011BA0, symSize: 0x30 }
  - { offsetInCU: 0x1532F, offset: 0x45413, size: 0x8, addend: 0x0, symName: __ZNSt3__116reverse_iteratorIPN3glm3vecILi3EfLNS1_9qualifierE0EEEEC2B7v160006ES5_, symObjAddr: 0x6F50, symBinAddr: 0x100011BD0, symSize: 0x30 }
  - { offsetInCU: 0x15365, offset: 0x45449, size: 0x8, addend: 0x0, symName: __ZNSt3__114__split_bufferIN3glm3vecILi3EfLNS1_9qualifierE0EEERNS_9allocatorIS4_EEED2Ev, symObjAddr: 0x6F80, symBinAddr: 0x100011C00, symSize: 0x70 }
  - { offsetInCU: 0x15390, offset: 0x45474, size: 0x8, addend: 0x0, symName: __ZNSt3__114__split_bufferIN3glm3vecILi3EfLNS1_9qualifierE0EEERNS_9allocatorIS4_EEE5clearB7v160006Ev, symObjAddr: 0x6FF0, symBinAddr: 0x100011C70, symSize: 0x20 }
  - { offsetInCU: 0x153B4, offset: 0x45498, size: 0x8, addend: 0x0, symName: __ZNKSt3__114__split_bufferIN3glm3vecILi3EfLNS1_9qualifierE0EEERNS_9allocatorIS4_EEE8capacityB7v160006Ev, symObjAddr: 0x7010, symBinAddr: 0x100011C90, symSize: 0x40 }
  - { offsetInCU: 0x153D8, offset: 0x454BC, size: 0x8, addend: 0x0, symName: __ZNSt3__114__split_bufferIN3glm3vecILi3EfLNS1_9qualifierE0EEERNS_9allocatorIS4_EEE17__destruct_at_endB7v160006EPS4_, symObjAddr: 0x7050, symBinAddr: 0x100011CD0, symSize: 0x30 }
  - { offsetInCU: 0x1540A, offset: 0x454EE, size: 0x8, addend: 0x0, symName: __ZNSt3__114__split_bufferIN3glm3vecILi3EfLNS1_9qualifierE0EEERNS_9allocatorIS4_EEE17__destruct_at_endB7v160006EPS4_NS_17integral_constantIbLb0EEE, symObjAddr: 0x7080, symBinAddr: 0x100011D00, symSize: 0x80 }
  - { offsetInCU: 0x15449, offset: 0x4552D, size: 0x8, addend: 0x0, symName: __ZNKSt3__114__split_bufferIN3glm3vecILi3EfLNS1_9qualifierE0EEERNS_9allocatorIS4_EEE9__end_capB7v160006Ev, symObjAddr: 0x7100, symBinAddr: 0x100011D80, symSize: 0x20 }
  - { offsetInCU: 0x1546D, offset: 0x45551, size: 0x8, addend: 0x0, symName: __ZNKSt3__117__compressed_pairIPN3glm3vecILi3EfLNS1_9qualifierE0EEERNS_9allocatorIS4_EEE5firstB7v160006Ev, symObjAddr: 0x7120, symBinAddr: 0x100011DA0, symSize: 0x20 }
  - { offsetInCU: 0x15491, offset: 0x45575, size: 0x8, addend: 0x0, symName: __ZNSt3__16vectorIN3glm3vecILi2EfLNS1_9qualifierE0EEENS_9allocatorIS4_EEE9__end_capB7v160006Ev, symObjAddr: 0x7140, symBinAddr: 0x100011DC0, symSize: 0x20 }
  - { offsetInCU: 0x154BA, offset: 0x4559E, size: 0x8, addend: 0x0, symName: __ZNSt3__16vectorIN3glm3vecILi2EfLNS1_9qualifierE0EEENS_9allocatorIS4_EEE22__construct_one_at_endB7v160006IJS4_EEEvDpOT_, symObjAddr: 0x7160, symBinAddr: 0x100011DE0, symSize: 0x90 }
  - { offsetInCU: 0x15507, offset: 0x455EB, size: 0x8, addend: 0x0, symName: __ZNSt3__16vectorIN3glm3vecILi2EfLNS1_9qualifierE0EEENS_9allocatorIS4_EEE21__push_back_slow_pathIS4_EEvOT_, symObjAddr: 0x71F0, symBinAddr: 0x100011E70, symSize: 0xD0 }
  - { offsetInCU: 0x15564, offset: 0x45648, size: 0x8, addend: 0x0, symName: __ZNSt3__117__compressed_pairIPN3glm3vecILi2EfLNS1_9qualifierE0EEENS_9allocatorIS4_EEE5firstB7v160006Ev, symObjAddr: 0x72C0, symBinAddr: 0x100011F40, symSize: 0x20 }
  - { offsetInCU: 0x15588, offset: 0x4566C, size: 0x8, addend: 0x0, symName: __ZNSt3__122__compressed_pair_elemIPN3glm3vecILi2EfLNS1_9qualifierE0EEELi0ELb0EE5__getB7v160006Ev, symObjAddr: 0x72E0, symBinAddr: 0x100011F60, symSize: 0x10 }
  - { offsetInCU: 0x155C5, offset: 0x456A9, size: 0x8, addend: 0x0, symName: __ZNSt3__16vectorIN3glm3vecILi2EfLNS1_9qualifierE0EEENS_9allocatorIS4_EEE21_ConstructTransactionC1B7v160006ERS7_m, symObjAddr: 0x72F0, symBinAddr: 0x100011F70, symSize: 0x30 }
  - { offsetInCU: 0x1560B, offset: 0x456EF, size: 0x8, addend: 0x0, symName: __ZNSt3__116allocator_traitsINS_9allocatorIN3glm3vecILi2EfLNS2_9qualifierE0EEEEEE9constructB7v160006IS5_JS5_EvEEvRS6_PT_DpOT0_, symObjAddr: 0x7320, symBinAddr: 0x100011FA0, symSize: 0x30 }
  - { offsetInCU: 0x15662, offset: 0x45746, size: 0x8, addend: 0x0, symName: __ZNSt3__16vectorIN3glm3vecILi2EfLNS1_9qualifierE0EEENS_9allocatorIS4_EEE21_ConstructTransactionD1B7v160006Ev, symObjAddr: 0x7350, symBinAddr: 0x100011FD0, symSize: 0x20 }
  - { offsetInCU: 0x1568A, offset: 0x4576E, size: 0x8, addend: 0x0, symName: __ZNSt3__16vectorIN3glm3vecILi2EfLNS1_9qualifierE0EEENS_9allocatorIS4_EEE21_ConstructTransactionC2B7v160006ERS7_m, symObjAddr: 0x7370, symBinAddr: 0x100011FF0, symSize: 0x40 }
  - { offsetInCU: 0x156D0, offset: 0x457B4, size: 0x8, addend: 0x0, symName: __ZNSt3__19allocatorIN3glm3vecILi2EfLNS1_9qualifierE0EEEE9constructB7v160006IS4_JS4_EEEvPT_DpOT0_, symObjAddr: 0x73B0, symBinAddr: 0x100012030, symSize: 0x20 }
  - { offsetInCU: 0x15724, offset: 0x45808, size: 0x8, addend: 0x0, symName: __ZNSt3__16vectorIN3glm3vecILi2EfLNS1_9qualifierE0EEENS_9allocatorIS4_EEE21_ConstructTransactionD2B7v160006Ev, symObjAddr: 0x73D0, symBinAddr: 0x100012050, symSize: 0x20 }
  - { offsetInCU: 0x1574C, offset: 0x45830, size: 0x8, addend: 0x0, symName: __ZNKSt3__16vectorIN3glm3vecILi2EfLNS1_9qualifierE0EEENS_9allocatorIS4_EEE11__recommendB7v160006Em, symObjAddr: 0x73F0, symBinAddr: 0x100012070, symSize: 0xA0 }
  - { offsetInCU: 0x157A0, offset: 0x45884, size: 0x8, addend: 0x0, symName: __ZNSt3__114__split_bufferIN3glm3vecILi2EfLNS1_9qualifierE0EEERNS_9allocatorIS4_EEEC1EmmS7_, symObjAddr: 0x7490, symBinAddr: 0x100012110, symSize: 0x40 }
  - { offsetInCU: 0x157F5, offset: 0x458D9, size: 0x8, addend: 0x0, symName: __ZNSt3__114__split_bufferIN3glm3vecILi2EfLNS1_9qualifierE0EEERNS_9allocatorIS4_EEED1Ev, symObjAddr: 0x7600, symBinAddr: 0x100012280, symSize: 0x20 }
  - { offsetInCU: 0x15820, offset: 0x45904, size: 0x8, addend: 0x0, symName: __ZNKSt3__16vectorIN3glm3vecILi2EfLNS1_9qualifierE0EEENS_9allocatorIS4_EEE8max_sizeEv, symObjAddr: 0x7620, symBinAddr: 0x1000122A0, symSize: 0x60 }
  - { offsetInCU: 0x15847, offset: 0x4592B, size: 0x8, addend: 0x0, symName: __ZNKSt3__16vectorIN3glm3vecILi2EfLNS1_9qualifierE0EEENS_9allocatorIS4_EEE20__throw_length_errorB7v160006Ev, symObjAddr: 0x7680, symBinAddr: 0x100012300, symSize: 0x20 }
  - { offsetInCU: 0x15875, offset: 0x45959, size: 0x8, addend: 0x0, symName: __ZNSt3__116allocator_traitsINS_9allocatorIN3glm3vecILi2EfLNS2_9qualifierE0EEEEEE8max_sizeB7v160006IS6_vEEmRKS6_, symObjAddr: 0x76A0, symBinAddr: 0x100012320, symSize: 0x20 }
  - { offsetInCU: 0x158A3, offset: 0x45987, size: 0x8, addend: 0x0, symName: __ZNKSt3__16vectorIN3glm3vecILi2EfLNS1_9qualifierE0EEENS_9allocatorIS4_EEE7__allocB7v160006Ev, symObjAddr: 0x76C0, symBinAddr: 0x100012340, symSize: 0x20 }
  - { offsetInCU: 0x158C7, offset: 0x459AB, size: 0x8, addend: 0x0, symName: __ZNKSt3__19allocatorIN3glm3vecILi2EfLNS1_9qualifierE0EEEE8max_sizeB7v160006Ev, symObjAddr: 0x76E0, symBinAddr: 0x100012360, symSize: 0x20 }
  - { offsetInCU: 0x158EB, offset: 0x459CF, size: 0x8, addend: 0x0, symName: __ZNKSt3__117__compressed_pairIPN3glm3vecILi2EfLNS1_9qualifierE0EEENS_9allocatorIS4_EEE6secondB7v160006Ev, symObjAddr: 0x7700, symBinAddr: 0x100012380, symSize: 0x20 }
  - { offsetInCU: 0x1590F, offset: 0x459F3, size: 0x8, addend: 0x0, symName: __ZNKSt3__122__compressed_pair_elemINS_9allocatorIN3glm3vecILi2EfLNS2_9qualifierE0EEEEELi1ELb1EE5__getB7v160006Ev, symObjAddr: 0x7720, symBinAddr: 0x1000123A0, symSize: 0x10 }
  - { offsetInCU: 0x15933, offset: 0x45A17, size: 0x8, addend: 0x0, symName: __ZNSt3__114__split_bufferIN3glm3vecILi2EfLNS1_9qualifierE0EEERNS_9allocatorIS4_EEEC2EmmS7_, symObjAddr: 0x7730, symBinAddr: 0x1000123B0, symSize: 0xD0 }
  - { offsetInCU: 0x159A6, offset: 0x45A8A, size: 0x8, addend: 0x0, symName: __ZNSt3__117__compressed_pairIPN3glm3vecILi2EfLNS1_9qualifierE0EEERNS_9allocatorIS4_EEEC1B7v160006IDnS8_EEOT_OT0_, symObjAddr: 0x7800, symBinAddr: 0x100012480, symSize: 0x30 }
  - { offsetInCU: 0x159FC, offset: 0x45AE0, size: 0x8, addend: 0x0, symName: __ZNSt3__114__split_bufferIN3glm3vecILi2EfLNS1_9qualifierE0EEERNS_9allocatorIS4_EEE7__allocB7v160006Ev, symObjAddr: 0x7870, symBinAddr: 0x1000124F0, symSize: 0x20 }
  - { offsetInCU: 0x15A20, offset: 0x45B04, size: 0x8, addend: 0x0, symName: __ZNSt3__114__split_bufferIN3glm3vecILi2EfLNS1_9qualifierE0EEERNS_9allocatorIS4_EEE9__end_capB7v160006Ev, symObjAddr: 0x7890, symBinAddr: 0x100012510, symSize: 0x20 }
  - { offsetInCU: 0x15A44, offset: 0x45B28, size: 0x8, addend: 0x0, symName: __ZNSt3__117__compressed_pairIPN3glm3vecILi2EfLNS1_9qualifierE0EEERNS_9allocatorIS4_EEEC2B7v160006IDnS8_EEOT_OT0_, symObjAddr: 0x78B0, symBinAddr: 0x100012530, symSize: 0x40 }
  - { offsetInCU: 0x15A9A, offset: 0x45B7E, size: 0x8, addend: 0x0, symName: __ZNSt3__122__compressed_pair_elemIRNS_9allocatorIN3glm3vecILi2EfLNS2_9qualifierE0EEEEELi1ELb0EEC2B7v160006IS7_vEEOT_, symObjAddr: 0x78F0, symBinAddr: 0x100012570, symSize: 0x20 }
  - { offsetInCU: 0x15ADA, offset: 0x45BBE, size: 0x8, addend: 0x0, symName: __ZNSt3__19allocatorIN3glm3vecILi2EfLNS1_9qualifierE0EEEE8allocateB7v160006Em, symObjAddr: 0x7910, symBinAddr: 0x100012590, symSize: 0x50 }
  - { offsetInCU: 0x15B0C, offset: 0x45BF0, size: 0x8, addend: 0x0, symName: __ZNSt3__117__compressed_pairIPN3glm3vecILi2EfLNS1_9qualifierE0EEERNS_9allocatorIS4_EEE6secondB7v160006Ev, symObjAddr: 0x7960, symBinAddr: 0x1000125E0, symSize: 0x20 }
  - { offsetInCU: 0x15B30, offset: 0x45C14, size: 0x8, addend: 0x0, symName: __ZNSt3__122__compressed_pair_elemIRNS_9allocatorIN3glm3vecILi2EfLNS2_9qualifierE0EEEEELi1ELb0EE5__getB7v160006Ev, symObjAddr: 0x7980, symBinAddr: 0x100012600, symSize: 0x20 }
  - { offsetInCU: 0x15B54, offset: 0x45C38, size: 0x8, addend: 0x0, symName: __ZNSt3__117__compressed_pairIPN3glm3vecILi2EfLNS1_9qualifierE0EEERNS_9allocatorIS4_EEE5firstB7v160006Ev, symObjAddr: 0x79A0, symBinAddr: 0x100012620, symSize: 0x20 }
  - { offsetInCU: 0x15B78, offset: 0x45C5C, size: 0x8, addend: 0x0, symName: __ZNSt3__116reverse_iteratorIPN3glm3vecILi2EfLNS1_9qualifierE0EEEEC1B7v160006ES5_, symObjAddr: 0x7A30, symBinAddr: 0x1000126B0, symSize: 0x30 }
  - { offsetInCU: 0x15BAE, offset: 0x45C92, size: 0x8, addend: 0x0, symName: __ZNKSt3__116reverse_iteratorIPN3glm3vecILi2EfLNS1_9qualifierE0EEEE4baseB7v160006Ev, symObjAddr: 0x7A60, symBinAddr: 0x1000126E0, symSize: 0x20 }
  - { offsetInCU: 0x15BD2, offset: 0x45CB6, size: 0x8, addend: 0x0, symName: __ZNKSt3__16vectorIN3glm3vecILi2EfLNS1_9qualifierE0EEENS_9allocatorIS4_EEE14__annotate_newB7v160006Em, symObjAddr: 0x7AC0, symBinAddr: 0x100012740, symSize: 0xB0 }
  - { offsetInCU: 0x15C1E, offset: 0x45D02, size: 0x8, addend: 0x0, symName: __ZNKSt3__111__move_loopINS_17_ClassicAlgPolicyEEclB7v160006INS_16reverse_iteratorIPN3glm3vecILi2EfLNS5_9qualifierE0EEEEESA_SA_EENS_4pairIT_T1_EESC_T0_SD_, symObjAddr: 0x7FC0, symBinAddr: 0x100012C40, symSize: 0xA0 }
  - { offsetInCU: 0x15C87, offset: 0x45D6B, size: 0x8, addend: 0x0, symName: __ZNSt3__18_IterOpsINS_17_ClassicAlgPolicyEE11__iter_moveB7v160006IRNS_16reverse_iteratorIPN3glm3vecILi2EfLNS5_9qualifierE0EEEEEEENS_9enable_ifIXsr12is_referenceIDTdeclsr3stdE7declvalIRT_EEEEE5valueEDTclsr3stdE4movedeclsr3stdE7declvalISE_EEEEE4typeEOSD_, symObjAddr: 0x81E0, symBinAddr: 0x100012E60, symSize: 0x20 }
  - { offsetInCU: 0x15CB3, offset: 0x45D97, size: 0x8, addend: 0x0, symName: __ZNKSt3__116reverse_iteratorIPN3glm3vecILi2EfLNS1_9qualifierE0EEEEdeB7v160006Ev, symObjAddr: 0x8200, symBinAddr: 0x100012E80, symSize: 0x30 }
  - { offsetInCU: 0x15CE6, offset: 0x45DCA, size: 0x8, addend: 0x0, symName: __ZNSt3__116reverse_iteratorIPN3glm3vecILi2EfLNS1_9qualifierE0EEEEppB7v160006Ev, symObjAddr: 0x8230, symBinAddr: 0x100012EB0, symSize: 0x20 }
  - { offsetInCU: 0x15D0A, offset: 0x45DEE, size: 0x8, addend: 0x0, symName: __ZNSt3__18_IterOpsINS_17_ClassicAlgPolicyEE25__validate_iter_referenceB7v160006IRNS_16reverse_iteratorIPN3glm3vecILi2EfLNS5_9qualifierE0EEEEEEEvv, symObjAddr: 0x8250, symBinAddr: 0x100012ED0, symSize: 0x10 }
  - { offsetInCU: 0x15D28, offset: 0x45E0C, size: 0x8, addend: 0x0, symName: __ZNSt3__118__unwrap_iter_implINS_16reverse_iteratorIPN3glm3vecILi2EfLNS2_9qualifierE0EEEEELb0EE8__unwrapB7v160006ES7_, symObjAddr: 0x8260, symBinAddr: 0x100012EE0, symSize: 0x20 }
  - { offsetInCU: 0x15D50, offset: 0x45E34, size: 0x8, addend: 0x0, symName: __ZNSt3__14pairINS_16reverse_iteratorIPN3glm3vecILi2EfLNS2_9qualifierE0EEEEES7_EC1B7v160006IS7_S7_LPv0EEEOT_OT0_, symObjAddr: 0x8280, symBinAddr: 0x100012F00, symSize: 0x30 }
  - { offsetInCU: 0x15DAD, offset: 0x45E91, size: 0x8, addend: 0x0, symName: __ZNSt3__14pairINS_16reverse_iteratorIPN3glm3vecILi2EfLNS2_9qualifierE0EEEEES7_EC2B7v160006IS7_S7_LPv0EEEOT_OT0_, symObjAddr: 0x82B0, symBinAddr: 0x100012F30, symSize: 0x40 }
  - { offsetInCU: 0x15E0A, offset: 0x45EEE, size: 0x8, addend: 0x0, symName: __ZNSt3__118__unwrap_iter_implINS_16reverse_iteratorIPN3glm3vecILi2EfLNS2_9qualifierE0EEEEELb0EE8__rewrapB7v160006ES7_S7_, symObjAddr: 0x82F0, symBinAddr: 0x100012F70, symSize: 0x30 }
  - { offsetInCU: 0x15E37, offset: 0x45F1B, size: 0x8, addend: 0x0, symName: __ZNSt3__116reverse_iteratorIPN3glm3vecILi2EfLNS1_9qualifierE0EEEEC2B7v160006ES5_, symObjAddr: 0x8320, symBinAddr: 0x100012FA0, symSize: 0x30 }
  - { offsetInCU: 0x15E6D, offset: 0x45F51, size: 0x8, addend: 0x0, symName: __ZNSt3__114__split_bufferIN3glm3vecILi2EfLNS1_9qualifierE0EEERNS_9allocatorIS4_EEED2Ev, symObjAddr: 0x8350, symBinAddr: 0x100012FD0, symSize: 0x70 }
  - { offsetInCU: 0x15E98, offset: 0x45F7C, size: 0x8, addend: 0x0, symName: __ZNSt3__114__split_bufferIN3glm3vecILi2EfLNS1_9qualifierE0EEERNS_9allocatorIS4_EEE5clearB7v160006Ev, symObjAddr: 0x83C0, symBinAddr: 0x100013040, symSize: 0x20 }
  - { offsetInCU: 0x15EBC, offset: 0x45FA0, size: 0x8, addend: 0x0, symName: __ZNKSt3__114__split_bufferIN3glm3vecILi2EfLNS1_9qualifierE0EEERNS_9allocatorIS4_EEE8capacityB7v160006Ev, symObjAddr: 0x83E0, symBinAddr: 0x100013060, symSize: 0x30 }
  - { offsetInCU: 0x15EE0, offset: 0x45FC4, size: 0x8, addend: 0x0, symName: __ZNSt3__114__split_bufferIN3glm3vecILi2EfLNS1_9qualifierE0EEERNS_9allocatorIS4_EEE17__destruct_at_endB7v160006EPS4_, symObjAddr: 0x8410, symBinAddr: 0x100013090, symSize: 0x30 }
  - { offsetInCU: 0x15F12, offset: 0x45FF6, size: 0x8, addend: 0x0, symName: __ZNSt3__114__split_bufferIN3glm3vecILi2EfLNS1_9qualifierE0EEERNS_9allocatorIS4_EEE17__destruct_at_endB7v160006EPS4_NS_17integral_constantIbLb0EEE, symObjAddr: 0x8440, symBinAddr: 0x1000130C0, symSize: 0x80 }
  - { offsetInCU: 0x15F51, offset: 0x46035, size: 0x8, addend: 0x0, symName: __ZNKSt3__114__split_bufferIN3glm3vecILi2EfLNS1_9qualifierE0EEERNS_9allocatorIS4_EEE9__end_capB7v160006Ev, symObjAddr: 0x84C0, symBinAddr: 0x100013140, symSize: 0x20 }
  - { offsetInCU: 0x15F75, offset: 0x46059, size: 0x8, addend: 0x0, symName: __ZNKSt3__117__compressed_pairIPN3glm3vecILi2EfLNS1_9qualifierE0EEERNS_9allocatorIS4_EEE5firstB7v160006Ev, symObjAddr: 0x84E0, symBinAddr: 0x100013160, symSize: 0x20 }
  - { offsetInCU: 0x15F99, offset: 0x4607D, size: 0x8, addend: 0x0, symName: __ZNSt3__114basic_iostreamIcNS_11char_traitsIcEEEC2B7v160006EPNS_15basic_streambufIcS2_EE, symObjAddr: 0x8500, symBinAddr: 0x100013180, symSize: 0xA0 }
  - { offsetInCU: 0x15FDC, offset: 0x460C0, size: 0x8, addend: 0x0, symName: __ZNSt3__115basic_stringbufIcNS_11char_traitsIcEENS_9allocatorIcEEEC1B7v160006ERKNS_12basic_stringIcS2_S4_EEj, symObjAddr: 0x85A0, symBinAddr: 0x100013220, symSize: 0x30 }
  - { offsetInCU: 0x16020, offset: 0x46104, size: 0x8, addend: 0x0, symName: __ZNSt3__113basic_ostreamIcNS_11char_traitsIcEEEC2B7v160006Ev, symObjAddr: 0x85D0, symBinAddr: 0x100013250, symSize: 0x30 }
  - { offsetInCU: 0x16054, offset: 0x46138, size: 0x8, addend: 0x0, symName: __ZNSt3__115basic_stringbufIcNS_11char_traitsIcEENS_9allocatorIcEEEC2B7v160006ERKNS_12basic_stringIcS2_S4_EEj, symObjAddr: 0x8600, symBinAddr: 0x100013280, symSize: 0xA0 }
  - { offsetInCU: 0x16098, offset: 0x4617C, size: 0x8, addend: 0x0, symName: __ZNKSt3__112basic_stringIcNS_11char_traitsIcEENS_9allocatorIcEEE13get_allocatorB7v160006Ev, symObjAddr: 0x86A0, symBinAddr: 0x100013320, symSize: 0x20 }
  - { offsetInCU: 0x160BC, offset: 0x461A0, size: 0x8, addend: 0x0, symName: __ZNSt3__112basic_stringIcNS_11char_traitsIcEENS_9allocatorIcEEEC1B7v160006ERKS4_, symObjAddr: 0x86C0, symBinAddr: 0x100013340, symSize: 0x30 }
  - { offsetInCU: 0x160F3, offset: 0x461D7, size: 0x8, addend: 0x0, symName: __ZNSt3__112basic_stringIcNS_11char_traitsIcEENS_9allocatorIcEEEC2B7v160006ERKS4_, symObjAddr: 0x86F0, symBinAddr: 0x100013370, symSize: 0x50 }
  - { offsetInCU: 0x1612A, offset: 0x4620E, size: 0x8, addend: 0x0, symName: __ZNSt3__117__compressed_pairINS_12basic_stringIcNS_11char_traitsIcEENS_9allocatorIcEEE5__repES5_EC1B7v160006INS_18__default_init_tagERKS5_EEOT_OT0_, symObjAddr: 0x8740, symBinAddr: 0x1000133C0, symSize: 0x30 }
  - { offsetInCU: 0x16180, offset: 0x46264, size: 0x8, addend: 0x0, symName: __ZNSt3__117__compressed_pairINS_12basic_stringIcNS_11char_traitsIcEENS_9allocatorIcEEE5__repES5_EC2B7v160006INS_18__default_init_tagERKS5_EEOT_OT0_, symObjAddr: 0x8770, symBinAddr: 0x1000133F0, symSize: 0x40 }
  - { offsetInCU: 0x161D6, offset: 0x462BA, size: 0x8, addend: 0x0, symName: __ZNSt3__122__compressed_pair_elemINS_9allocatorIcEELi1ELb1EEC2B7v160006IRKS2_vEEOT_, symObjAddr: 0x87B0, symBinAddr: 0x100013430, symSize: 0x10 }
  - { offsetInCU: 0x16216, offset: 0x462FA, size: 0x8, addend: 0x0, symName: __ZNSt3__115basic_streambufIcNS_11char_traitsIcEEE5sgetcB7v160006Ev, symObjAddr: 0x87E0, symBinAddr: 0x100013440, symSize: 0x50 }
  - { offsetInCU: 0x1623A, offset: 0x4631E, size: 0x8, addend: 0x0, symName: __ZNKSt3__15ctypeIcE2isB7v160006Ejc, symObjAddr: 0x8830, symBinAddr: 0x100013490, symSize: 0x70 }
  - { offsetInCU: 0x1627B, offset: 0x4635F, size: 0x8, addend: 0x0, symName: __Z7isasciii, symObjAddr: 0x88D0, symBinAddr: 0x100013500, symSize: 0x20 }
  - { offsetInCU: 0x162A8, offset: 0x4638C, size: 0x8, addend: 0x0, symName: __ZNSt3__111char_traitsIcE4findEPKcmRS2_, symObjAddr: 0x8AF0, symBinAddr: 0x1000136F0, symSize: 0x70 }
  - { offsetInCU: 0x162E7, offset: 0x463CB, size: 0x8, addend: 0x0, symName: __ZNSt3__111char_traitsIcE7compareEPKcS3_m, symObjAddr: 0x8B60, symBinAddr: 0x100013760, symSize: 0x60 }
  - { offsetInCU: 0x16349, offset: 0x4642D, size: 0x8, addend: 0x0, symName: __ZNSt3__16vectorIjNS_9allocatorIjEEE22__construct_one_at_endB7v160006IJjEEEvDpOT_, symObjAddr: 0x92B0, symBinAddr: 0x100013820, symSize: 0x90 }
  - { offsetInCU: 0x16396, offset: 0x4647A, size: 0x8, addend: 0x0, symName: __ZNSt3__16vectorIjNS_9allocatorIjEEE21__push_back_slow_pathIjEEvOT_, symObjAddr: 0x9340, symBinAddr: 0x1000138B0, symSize: 0xD0 }
  - { offsetInCU: 0x1640C, offset: 0x464F0, size: 0x8, addend: 0x0, symName: __ZNSt3__116allocator_traitsINS_9allocatorIjEEE9constructB7v160006IjJjEvEEvRS2_PT_DpOT0_, symObjAddr: 0x9470, symBinAddr: 0x100013980, symSize: 0x30 }
  - { offsetInCU: 0x16463, offset: 0x46547, size: 0x8, addend: 0x0, symName: __ZNSt3__19allocatorIjE9constructB7v160006IjJjEEEvPT_DpOT0_, symObjAddr: 0x9500, symBinAddr: 0x1000139B0, symSize: 0x20 }
  - { offsetInCU: 0x6194, offset: 0x4C842, size: 0x8, addend: 0x0, symName: __ZN6ObjectC2Ev, symObjAddr: 0x0, symBinAddr: 0x1000139D0, symSize: 0x100 }
  - { offsetInCU: 0x61BE, offset: 0x4C86C, size: 0x8, addend: 0x0, symName: __ZN6ObjectC1Ev, symObjAddr: 0x100, symBinAddr: 0x100013AD0, symSize: 0x20 }
  - { offsetInCU: 0x61E8, offset: 0x4C896, size: 0x8, addend: 0x0, symName: __ZN6ObjectD2Ev, symObjAddr: 0x120, symBinAddr: 0x100013AF0, symSize: 0x70 }
  - { offsetInCU: 0x6212, offset: 0x4C8C0, size: 0x8, addend: 0x0, symName: __ZN6ObjectD1Ev, symObjAddr: 0x190, symBinAddr: 0x100013B60, symSize: 0x20 }
  - { offsetInCU: 0x623C, offset: 0x4C8EA, size: 0x8, addend: 0x0, symName: __ZN6Object4BindEv, symObjAddr: 0x1B0, symBinAddr: 0x100013B80, symSize: 0x40 }
  - { offsetInCU: 0x6262, offset: 0x4C910, size: 0x8, addend: 0x0, symName: __ZN6Object6RenderEv, symObjAddr: 0x1F0, symBinAddr: 0x100013BC0, symSize: 0x60 }
  - { offsetInCU: 0x6288, offset: 0x4C936, size: 0x8, addend: 0x0, symName: __ZN6Object6UpdateEN3glm3matILi4ELi4EfLNS0_9qualifierE0EEEP6Camera, symObjAddr: 0x250, symBinAddr: 0x100013C20, symSize: 0x40 }
  - { offsetInCU: 0x641A, offset: 0x52D97, size: 0x8, addend: 0x0, symName: __ZNSt3__119__debug_db_insert_cB7v160006INS_6vectorIP6ObjectNS_9allocatorIS3_EEEEEEvPT_, symObjAddr: 0x6E0, symBinAddr: 0x100014330, symSize: 0x10 }
  - { offsetInCU: 0x644B, offset: 0x52DC8, size: 0x8, addend: 0x0, symName: __ZNSt3__119__debug_db_insert_cB7v160006INS_6vectorIP9SceneNodeNS_9allocatorIS3_EEEEEEvPT_, symObjAddr: 0x830, symBinAddr: 0x100014480, symSize: 0x10 }
  - { offsetInCU: 0x647C, offset: 0x52DF9, size: 0x8, addend: 0x0, symName: __ZNSt3__118__debug_db_erase_cB7v160006INS_6vectorIP6ObjectNS_9allocatorIS3_EEEEEEvPT_, symObjAddr: 0xAC0, symBinAddr: 0x100014710, symSize: 0x10 }
  - { offsetInCU: 0x64AD, offset: 0x52E2A, size: 0x8, addend: 0x0, symName: __ZNSt3__112__to_addressB7v160006IP6ObjectEEPT_S4_, symObjAddr: 0xBB0, symBinAddr: 0x100014800, symSize: 0x10 }
  - { offsetInCU: 0x64E2, offset: 0x52E5F, size: 0x8, addend: 0x0, symName: __ZNSt3__118__debug_db_erase_cB7v160006INS_6vectorIP9SceneNodeNS_9allocatorIS3_EEEEEEvPT_, symObjAddr: 0x1030, symBinAddr: 0x100014B60, symSize: 0x10 }
  - { offsetInCU: 0x6513, offset: 0x52E90, size: 0x8, addend: 0x0, symName: __ZNSt3__112__to_addressB7v160006IP9SceneNodeEEPT_S4_, symObjAddr: 0x1120, symBinAddr: 0x100014C50, symSize: 0x10 }
  - { offsetInCU: 0x6548, offset: 0x52EC5, size: 0x8, addend: 0x0, symName: __ZNSt3__119__allocate_at_leastB7v160006INS_9allocatorIP9SceneNodeEEEENS_19__allocation_resultINS_16allocator_traitsIT_E7pointerEEERS7_m, symObjAddr: 0x1BD0, symBinAddr: 0x1000154D0, symSize: 0x40 }
  - { offsetInCU: 0x658B, offset: 0x52F08, size: 0x8, addend: 0x0, symName: __ZNSt3__142__uninitialized_allocator_move_if_noexceptB7v160006INS_9allocatorIP9SceneNodeEENS_16reverse_iteratorIPS3_EES7_S3_vEET1_RT_T0_SB_S8_, symObjAddr: 0x1E50, symBinAddr: 0x100015660, symSize: 0x70 }
  - { offsetInCU: 0x6608, offset: 0x52F85, size: 0x8, addend: 0x0, symName: __ZNSt3__14swapB7v160006IPP9SceneNodeEENS_9enable_ifIXaasr21is_move_constructibleIT_EE5valuesr18is_move_assignableIS5_EE5valueEvE4typeERS5_S8_, symObjAddr: 0x1F10, symBinAddr: 0x100015720, symSize: 0x40 }
  - { offsetInCU: 0x665A, offset: 0x52FD7, size: 0x8, addend: 0x0, symName: __ZNSt3__125__debug_db_invalidate_allB7v160006INS_6vectorIP9SceneNodeNS_9allocatorIS3_EEEEEEvPT_, symObjAddr: 0x2000, symBinAddr: 0x100015810, symSize: 0x10 }
  - { offsetInCU: 0x668B, offset: 0x53008, size: 0x8, addend: 0x0, symName: __ZNSt3__14moveB7v160006INS_16reverse_iteratorIPP9SceneNodeEES5_EET0_T_S7_S6_, symObjAddr: 0x2010, symBinAddr: 0x100015820, symSize: 0x80 }
  - { offsetInCU: 0x66E5, offset: 0x53062, size: 0x8, addend: 0x0, symName: __ZNSt3__16__moveB7v160006INS_17_ClassicAlgPolicyENS_16reverse_iteratorIPP9SceneNodeEES6_S6_EENS_4pairIT0_T2_EES8_T1_S9_, symObjAddr: 0x2090, symBinAddr: 0x1000158A0, symSize: 0x90 }
  - { offsetInCU: 0x6751, offset: 0x530CE, size: 0x8, addend: 0x0, symName: __ZNSt3__123__dispatch_copy_or_moveB7v160006INS_17_ClassicAlgPolicyENS_11__move_loopIS1_EENS_14__move_trivialENS_16reverse_iteratorIPP9SceneNodeEES9_S9_EENS_4pairIT2_T4_EESB_T3_SC_, symObjAddr: 0x2120, symBinAddr: 0x100015930, symSize: 0x90 }
  - { offsetInCU: 0x67CF, offset: 0x5314C, size: 0x8, addend: 0x0, symName: __ZNSt3__121__unwrap_and_dispatchB7v160006INS_10__overloadINS_11__move_loopINS_17_ClassicAlgPolicyEEENS_14__move_trivialEEENS_16reverse_iteratorIPP9SceneNodeEESB_SB_Li0EEENS_4pairIT0_T2_EESD_T1_SE_, symObjAddr: 0x21B0, symBinAddr: 0x1000159C0, symSize: 0x210 }
  - { offsetInCU: 0x6861, offset: 0x531DE, size: 0x8, addend: 0x0, symName: __ZNSt3__114__unwrap_rangeB7v160006INS_16reverse_iteratorIPP9SceneNodeEES5_EENS_4pairIT0_S7_EET_S9_, symObjAddr: 0x23C0, symBinAddr: 0x100015BD0, symSize: 0x90 }
  - { offsetInCU: 0x69D4, offset: 0x53351, size: 0x8, addend: 0x0, symName: __ZNSt3__113__unwrap_iterB7v160006INS_16reverse_iteratorIPP9SceneNodeEENS_18__unwrap_iter_implIS5_Lb0EEELi0EEEDTclsrT0_8__unwrapclsr3stdE7declvalIT_EEEES9_, symObjAddr: 0x24F0, symBinAddr: 0x100015D00, symSize: 0x40 }
  - { offsetInCU: 0x6A19, offset: 0x53396, size: 0x8, addend: 0x0, symName: __ZNSt3__19make_pairB7v160006INS_16reverse_iteratorIPP9SceneNodeEES5_EENS_4pairINS_18__unwrap_ref_decayIT_E4typeENS7_IT0_E4typeEEEOS8_OSB_, symObjAddr: 0x2530, symBinAddr: 0x100015D40, symSize: 0x30 }
  - { offsetInCU: 0x6A68, offset: 0x533E5, size: 0x8, addend: 0x0, symName: __ZNSt3__114__rewrap_rangeB7v160006INS_16reverse_iteratorIPP9SceneNodeEES5_EET_S6_T0_, symObjAddr: 0x2560, symBinAddr: 0x100015D70, symSize: 0x60 }
  - { offsetInCU: 0x6AB4, offset: 0x53431, size: 0x8, addend: 0x0, symName: __ZNSt3__113__rewrap_iterB7v160006INS_16reverse_iteratorIPP9SceneNodeEES5_NS_18__unwrap_iter_implIS5_Lb0EEEEET_S8_T0_, symObjAddr: 0x25C0, symBinAddr: 0x100015DD0, symSize: 0x70 }
  - { offsetInCU: 0x6B09, offset: 0x53486, size: 0x8, addend: 0x0, symName: __ZNSt3__1neB7v160006IPP9SceneNodeS3_EEbRKNS_16reverse_iteratorIT_EERKNS4_IT0_EE, symObjAddr: 0x2630, symBinAddr: 0x100015E40, symSize: 0x40 }
  - { offsetInCU: 0x7D06, offset: 0x54683, size: 0x8, addend: 0x0, symName: __ZN13ObjectManager8InstanceEv, symObjAddr: 0x120, symBinAddr: 0x100013D80, symSize: 0x90 }
  - { offsetInCU: 0x7D28, offset: 0x546A5, size: 0x8, addend: 0x0, symName: __ZZN13ObjectManager8InstanceEvE8instance, symObjAddr: 0x30F78, symBinAddr: 0x100031C48, symSize: 0x0 }
  - { offsetInCU: 0x7D43, offset: 0x546C0, size: 0x8, addend: 0x0, symName: __ZNSt3__16vectorIP9SceneNodeNS_9allocatorIS2_EEE26__swap_out_circular_bufferERNS_14__split_bufferIS2_RS4_EE, symObjAddr: 0x1640, symBinAddr: 0x100015170, symSize: 0x130 }
  - { offsetInCU: 0x9B18, offset: 0x56495, size: 0x8, addend: 0x0, symName: __ZN13ObjectManagerC2Ev, symObjAddr: 0x0, symBinAddr: 0x100013C60, symSize: 0x30 }
  - { offsetInCU: 0x9B42, offset: 0x564BF, size: 0x8, addend: 0x0, symName: __ZNSt3__16vectorIP6ObjectNS_9allocatorIS2_EEEC1B7v160006Ev, symObjAddr: 0x30, symBinAddr: 0x100013C90, symSize: 0x20 }
  - { offsetInCU: 0x9B6A, offset: 0x564E7, size: 0x8, addend: 0x0, symName: __ZNSt3__16vectorIP9SceneNodeNS_9allocatorIS2_EEEC1B7v160006Ev, symObjAddr: 0x50, symBinAddr: 0x100013CB0, symSize: 0x20 }
  - { offsetInCU: 0x9B92, offset: 0x5650F, size: 0x8, addend: 0x0, symName: __ZN13ObjectManagerC1Ev, symObjAddr: 0x70, symBinAddr: 0x100013CD0, symSize: 0x20 }
  - { offsetInCU: 0x9BBC, offset: 0x56539, size: 0x8, addend: 0x0, symName: __ZN13ObjectManagerD2Ev, symObjAddr: 0x90, symBinAddr: 0x100013CF0, symSize: 0x30 }
  - { offsetInCU: 0x9BE6, offset: 0x56563, size: 0x8, addend: 0x0, symName: __ZNSt3__16vectorIP9SceneNodeNS_9allocatorIS2_EEED1B7v160006Ev, symObjAddr: 0xC0, symBinAddr: 0x100013D20, symSize: 0x20 }
  - { offsetInCU: 0x9C0E, offset: 0x5658B, size: 0x8, addend: 0x0, symName: __ZNSt3__16vectorIP6ObjectNS_9allocatorIS2_EEED1B7v160006Ev, symObjAddr: 0xE0, symBinAddr: 0x100013D40, symSize: 0x20 }
  - { offsetInCU: 0x9C36, offset: 0x565B3, size: 0x8, addend: 0x0, symName: __ZN13ObjectManagerD1Ev, symObjAddr: 0x100, symBinAddr: 0x100013D60, symSize: 0x20 }
  - { offsetInCU: 0x9C60, offset: 0x565DD, size: 0x8, addend: 0x0, symName: __ZN13ObjectManager9GetObjectEj, symObjAddr: 0x1B0, symBinAddr: 0x100013E10, symSize: 0x30 }
  - { offsetInCU: 0x9C93, offset: 0x56610, size: 0x8, addend: 0x0, symName: __ZNSt3__16vectorIP6ObjectNS_9allocatorIS2_EEEixB7v160006Em, symObjAddr: 0x1E0, symBinAddr: 0x100013E40, symSize: 0x20 }
  - { offsetInCU: 0x9CCA, offset: 0x56647, size: 0x8, addend: 0x0, symName: __ZN13ObjectManager12AddSceneNodeERP9SceneNode, symObjAddr: 0x200, symBinAddr: 0x100013E60, symSize: 0x30 }
  - { offsetInCU: 0x9CFD, offset: 0x5667A, size: 0x8, addend: 0x0, symName: __ZNSt3__16vectorIP9SceneNodeNS_9allocatorIS2_EEE9push_backB7v160006ERKS2_, symObjAddr: 0x230, symBinAddr: 0x100013E90, symSize: 0x60 }
  - { offsetInCU: 0x9D34, offset: 0x566B1, size: 0x8, addend: 0x0, symName: __ZN13ObjectManager9RemoveAllEv, symObjAddr: 0x290, symBinAddr: 0x100013EF0, symSize: 0x100 }
  - { offsetInCU: 0x9D96, offset: 0x56713, size: 0x8, addend: 0x0, symName: __ZNKSt3__16vectorIP6ObjectNS_9allocatorIS2_EEE4sizeB7v160006Ev, symObjAddr: 0x390, symBinAddr: 0x100013FF0, symSize: 0x20 }
  - { offsetInCU: 0x9DBA, offset: 0x56737, size: 0x8, addend: 0x0, symName: __ZNKSt3__16vectorIP9SceneNodeNS_9allocatorIS2_EEE4sizeB7v160006Ev, symObjAddr: 0x3B0, symBinAddr: 0x100014010, symSize: 0x20 }
  - { offsetInCU: 0x9DDD, offset: 0x5675A, size: 0x8, addend: 0x0, symName: __ZNSt3__16vectorIP9SceneNodeNS_9allocatorIS2_EEEixB7v160006Em, symObjAddr: 0x3D0, symBinAddr: 0x100014030, symSize: 0x20 }
  - { offsetInCU: 0x9E14, offset: 0x56791, size: 0x8, addend: 0x0, symName: __ZN13ObjectManager9UpdateAllEN3glm3matILi4ELi4EfLNS0_9qualifierE0EEEP6Camera, symObjAddr: 0x3F0, symBinAddr: 0x100014050, symSize: 0x190 }
  - { offsetInCU: 0x9E93, offset: 0x56810, size: 0x8, addend: 0x0, symName: __ZN13ObjectManager9RenderAllEv, symObjAddr: 0x580, symBinAddr: 0x1000141E0, symSize: 0xC0 }
  - { offsetInCU: 0x9EF5, offset: 0x56872, size: 0x8, addend: 0x0, symName: __ZNSt3__16vectorIP6ObjectNS_9allocatorIS2_EEEC2B7v160006Ev, symObjAddr: 0x640, symBinAddr: 0x1000142A0, symSize: 0x60 }
  - { offsetInCU: 0x9F27, offset: 0x568A4, size: 0x8, addend: 0x0, symName: __ZNSt3__117__compressed_pairIPP6ObjectNS_9allocatorIS2_EEEC1B7v160006IDnNS_18__default_init_tagEEEOT_OT0_, symObjAddr: 0x6A0, symBinAddr: 0x100014300, symSize: 0x30 }
  - { offsetInCU: 0x9F7D, offset: 0x568FA, size: 0x8, addend: 0x0, symName: __ZNSt3__117__compressed_pairIPP6ObjectNS_9allocatorIS2_EEEC2B7v160006IDnNS_18__default_init_tagEEEOT_OT0_, symObjAddr: 0x6F0, symBinAddr: 0x100014340, symSize: 0x40 }
  - { offsetInCU: 0x9FD3, offset: 0x56950, size: 0x8, addend: 0x0, symName: __ZNSt3__122__compressed_pair_elemIPP6ObjectLi0ELb0EEC2B7v160006IDnvEEOT_, symObjAddr: 0x730, symBinAddr: 0x100014380, symSize: 0x20 }
  - { offsetInCU: 0xA013, offset: 0x56990, size: 0x8, addend: 0x0, symName: __ZNSt3__122__compressed_pair_elemINS_9allocatorIP6ObjectEELi1ELb1EEC2B7v160006ENS_18__default_init_tagE, symObjAddr: 0x750, symBinAddr: 0x1000143A0, symSize: 0x20 }
  - { offsetInCU: 0xA045, offset: 0x569C2, size: 0x8, addend: 0x0, symName: __ZNSt3__19allocatorIP6ObjectEC2B7v160006Ev, symObjAddr: 0x770, symBinAddr: 0x1000143C0, symSize: 0x20 }
  - { offsetInCU: 0xA06D, offset: 0x569EA, size: 0x8, addend: 0x0, symName: __ZNSt3__116__non_trivial_ifILb1ENS_9allocatorIP6ObjectEEEC2B7v160006Ev, symObjAddr: 0x790, symBinAddr: 0x1000143E0, symSize: 0x10 }
  - { offsetInCU: 0xA095, offset: 0x56A12, size: 0x8, addend: 0x0, symName: __ZNSt3__16vectorIP9SceneNodeNS_9allocatorIS2_EEEC2B7v160006Ev, symObjAddr: 0x7A0, symBinAddr: 0x1000143F0, symSize: 0x60 }
  - { offsetInCU: 0xA0BD, offset: 0x56A3A, size: 0x8, addend: 0x0, symName: __ZNSt3__117__compressed_pairIPP9SceneNodeNS_9allocatorIS2_EEEC1B7v160006IDnNS_18__default_init_tagEEEOT_OT0_, symObjAddr: 0x800, symBinAddr: 0x100014450, symSize: 0x30 }
  - { offsetInCU: 0xA113, offset: 0x56A90, size: 0x8, addend: 0x0, symName: __ZNSt3__117__compressed_pairIPP9SceneNodeNS_9allocatorIS2_EEEC2B7v160006IDnNS_18__default_init_tagEEEOT_OT0_, symObjAddr: 0x840, symBinAddr: 0x100014490, symSize: 0x40 }
  - { offsetInCU: 0xA169, offset: 0x56AE6, size: 0x8, addend: 0x0, symName: __ZNSt3__122__compressed_pair_elemIPP9SceneNodeLi0ELb0EEC2B7v160006IDnvEEOT_, symObjAddr: 0x880, symBinAddr: 0x1000144D0, symSize: 0x20 }
  - { offsetInCU: 0xA1A9, offset: 0x56B26, size: 0x8, addend: 0x0, symName: __ZNSt3__122__compressed_pair_elemINS_9allocatorIP9SceneNodeEELi1ELb1EEC2B7v160006ENS_18__default_init_tagE, symObjAddr: 0x8A0, symBinAddr: 0x1000144F0, symSize: 0x20 }
  - { offsetInCU: 0xA1DB, offset: 0x56B58, size: 0x8, addend: 0x0, symName: __ZNSt3__19allocatorIP9SceneNodeEC2B7v160006Ev, symObjAddr: 0x8C0, symBinAddr: 0x100014510, symSize: 0x20 }
  - { offsetInCU: 0xA203, offset: 0x56B80, size: 0x8, addend: 0x0, symName: __ZNSt3__116__non_trivial_ifILb1ENS_9allocatorIP9SceneNodeEEEC2B7v160006Ev, symObjAddr: 0x8E0, symBinAddr: 0x100014530, symSize: 0x10 }
  - { offsetInCU: 0xA22B, offset: 0x56BA8, size: 0x8, addend: 0x0, symName: __ZNSt3__16vectorIP6ObjectNS_9allocatorIS2_EEED2B7v160006Ev, symObjAddr: 0x8F0, symBinAddr: 0x100014540, symSize: 0x40 }
  - { offsetInCU: 0xA253, offset: 0x56BD0, size: 0x8, addend: 0x0, symName: __ZNSt3__16vectorIP6ObjectNS_9allocatorIS2_EEE16__destroy_vectorC1ERS5_, symObjAddr: 0x930, symBinAddr: 0x100014580, symSize: 0x30 }
  - { offsetInCU: 0xA28A, offset: 0x56C07, size: 0x8, addend: 0x0, symName: __ZNSt3__16vectorIP6ObjectNS_9allocatorIS2_EEE16__destroy_vectorclB7v160006Ev, symObjAddr: 0x960, symBinAddr: 0x1000145B0, symSize: 0x90 }
  - { offsetInCU: 0xA2AE, offset: 0x56C2B, size: 0x8, addend: 0x0, symName: __ZNSt3__16vectorIP6ObjectNS_9allocatorIS2_EEE16__destroy_vectorC2ERS5_, symObjAddr: 0x9F0, symBinAddr: 0x100014640, symSize: 0x20 }
  - { offsetInCU: 0xA2E5, offset: 0x56C62, size: 0x8, addend: 0x0, symName: __ZNKSt3__16vectorIP6ObjectNS_9allocatorIS2_EEE17__annotate_deleteB7v160006Ev, symObjAddr: 0xA10, symBinAddr: 0x100014660, symSize: 0xB0 }
  - { offsetInCU: 0xA309, offset: 0x56C86, size: 0x8, addend: 0x0, symName: __ZNSt3__16vectorIP6ObjectNS_9allocatorIS2_EEE7__clearB7v160006Ev, symObjAddr: 0xAD0, symBinAddr: 0x100014720, symSize: 0x20 }
  - { offsetInCU: 0xA32D, offset: 0x56CAA, size: 0x8, addend: 0x0, symName: __ZNSt3__116allocator_traitsINS_9allocatorIP6ObjectEEE10deallocateB7v160006ERS4_PS3_m, symObjAddr: 0xAF0, symBinAddr: 0x100014740, symSize: 0x30 }
  - { offsetInCU: 0xA36F, offset: 0x56CEC, size: 0x8, addend: 0x0, symName: __ZNSt3__16vectorIP6ObjectNS_9allocatorIS2_EEE7__allocB7v160006Ev, symObjAddr: 0xB20, symBinAddr: 0x100014770, symSize: 0x20 }
  - { offsetInCU: 0xA393, offset: 0x56D10, size: 0x8, addend: 0x0, symName: __ZNKSt3__16vectorIP6ObjectNS_9allocatorIS2_EEE8capacityB7v160006Ev, symObjAddr: 0xB40, symBinAddr: 0x100014790, symSize: 0x30 }
  - { offsetInCU: 0xA3B7, offset: 0x56D34, size: 0x8, addend: 0x0, symName: __ZNKSt3__16vectorIP6ObjectNS_9allocatorIS2_EEE31__annotate_contiguous_containerB7v160006EPKvS7_S7_S7_, symObjAddr: 0xB70, symBinAddr: 0x1000147C0, symSize: 0x20 }
  - { offsetInCU: 0xA40B, offset: 0x56D88, size: 0x8, addend: 0x0, symName: __ZNKSt3__16vectorIP6ObjectNS_9allocatorIS2_EEE4dataB7v160006Ev, symObjAddr: 0xB90, symBinAddr: 0x1000147E0, symSize: 0x20 }
  - { offsetInCU: 0xA42F, offset: 0x56DAC, size: 0x8, addend: 0x0, symName: __ZNSt3__16vectorIP6ObjectNS_9allocatorIS2_EEE22__base_destruct_at_endB7v160006EPS2_, symObjAddr: 0xBC0, symBinAddr: 0x100014810, symSize: 0x80 }
  - { offsetInCU: 0xA471, offset: 0x56DEE, size: 0x8, addend: 0x0, symName: __ZNSt3__116allocator_traitsINS_9allocatorIP6ObjectEEE7destroyB7v160006IS3_vEEvRS4_PT_, symObjAddr: 0xC40, symBinAddr: 0x100014890, symSize: 0x30 }
  - { offsetInCU: 0xA4AE, offset: 0x56E2B, size: 0x8, addend: 0x0, symName: __ZNSt3__19allocatorIP6ObjectE7destroyB7v160006EPS2_, symObjAddr: 0xC70, symBinAddr: 0x1000148C0, symSize: 0x10 }
  - { offsetInCU: 0xA4E0, offset: 0x56E5D, size: 0x8, addend: 0x0, symName: __ZNSt3__19allocatorIP6ObjectE10deallocateB7v160006EPS2_m, symObjAddr: 0xC80, symBinAddr: 0x1000148D0, symSize: 0x40 }
  - { offsetInCU: 0xA520, offset: 0x56E9D, size: 0x8, addend: 0x0, symName: __ZNSt3__117__compressed_pairIPP6ObjectNS_9allocatorIS2_EEE6secondB7v160006Ev, symObjAddr: 0xDE0, symBinAddr: 0x100014910, symSize: 0x20 }
  - { offsetInCU: 0xA544, offset: 0x56EC1, size: 0x8, addend: 0x0, symName: __ZNSt3__122__compressed_pair_elemINS_9allocatorIP6ObjectEELi1ELb1EE5__getB7v160006Ev, symObjAddr: 0xE00, symBinAddr: 0x100014930, symSize: 0x10 }
  - { offsetInCU: 0xA568, offset: 0x56EE5, size: 0x8, addend: 0x0, symName: __ZNKSt3__16vectorIP6ObjectNS_9allocatorIS2_EEE9__end_capB7v160006Ev, symObjAddr: 0xE10, symBinAddr: 0x100014940, symSize: 0x20 }
  - { offsetInCU: 0xA58C, offset: 0x56F09, size: 0x8, addend: 0x0, symName: __ZNKSt3__117__compressed_pairIPP6ObjectNS_9allocatorIS2_EEE5firstB7v160006Ev, symObjAddr: 0xE30, symBinAddr: 0x100014960, symSize: 0x20 }
  - { offsetInCU: 0xA5B0, offset: 0x56F2D, size: 0x8, addend: 0x0, symName: __ZNKSt3__122__compressed_pair_elemIPP6ObjectLi0ELb0EE5__getB7v160006Ev, symObjAddr: 0xE50, symBinAddr: 0x100014980, symSize: 0x10 }
  - { offsetInCU: 0xA5D4, offset: 0x56F51, size: 0x8, addend: 0x0, symName: __ZNSt3__16vectorIP9SceneNodeNS_9allocatorIS2_EEED2B7v160006Ev, symObjAddr: 0xE60, symBinAddr: 0x100014990, symSize: 0x40 }
  - { offsetInCU: 0xA5FC, offset: 0x56F79, size: 0x8, addend: 0x0, symName: __ZNSt3__16vectorIP9SceneNodeNS_9allocatorIS2_EEE16__destroy_vectorC1ERS5_, symObjAddr: 0xEA0, symBinAddr: 0x1000149D0, symSize: 0x30 }
  - { offsetInCU: 0xA633, offset: 0x56FB0, size: 0x8, addend: 0x0, symName: __ZNSt3__16vectorIP9SceneNodeNS_9allocatorIS2_EEE16__destroy_vectorclB7v160006Ev, symObjAddr: 0xED0, symBinAddr: 0x100014A00, symSize: 0x90 }
  - { offsetInCU: 0xA657, offset: 0x56FD4, size: 0x8, addend: 0x0, symName: __ZNSt3__16vectorIP9SceneNodeNS_9allocatorIS2_EEE16__destroy_vectorC2ERS5_, symObjAddr: 0xF60, symBinAddr: 0x100014A90, symSize: 0x20 }
  - { offsetInCU: 0xA68E, offset: 0x5700B, size: 0x8, addend: 0x0, symName: __ZNKSt3__16vectorIP9SceneNodeNS_9allocatorIS2_EEE17__annotate_deleteB7v160006Ev, symObjAddr: 0xF80, symBinAddr: 0x100014AB0, symSize: 0xB0 }
  - { offsetInCU: 0xA6B2, offset: 0x5702F, size: 0x8, addend: 0x0, symName: __ZNSt3__16vectorIP9SceneNodeNS_9allocatorIS2_EEE7__clearB7v160006Ev, symObjAddr: 0x1040, symBinAddr: 0x100014B70, symSize: 0x20 }
  - { offsetInCU: 0xA6D6, offset: 0x57053, size: 0x8, addend: 0x0, symName: __ZNSt3__116allocator_traitsINS_9allocatorIP9SceneNodeEEE10deallocateB7v160006ERS4_PS3_m, symObjAddr: 0x1060, symBinAddr: 0x100014B90, symSize: 0x30 }
  - { offsetInCU: 0xA718, offset: 0x57095, size: 0x8, addend: 0x0, symName: __ZNSt3__16vectorIP9SceneNodeNS_9allocatorIS2_EEE7__allocB7v160006Ev, symObjAddr: 0x1090, symBinAddr: 0x100014BC0, symSize: 0x20 }
  - { offsetInCU: 0xA73C, offset: 0x570B9, size: 0x8, addend: 0x0, symName: __ZNKSt3__16vectorIP9SceneNodeNS_9allocatorIS2_EEE8capacityB7v160006Ev, symObjAddr: 0x10B0, symBinAddr: 0x100014BE0, symSize: 0x30 }
  - { offsetInCU: 0xA760, offset: 0x570DD, size: 0x8, addend: 0x0, symName: __ZNKSt3__16vectorIP9SceneNodeNS_9allocatorIS2_EEE31__annotate_contiguous_containerB7v160006EPKvS7_S7_S7_, symObjAddr: 0x10E0, symBinAddr: 0x100014C10, symSize: 0x20 }
  - { offsetInCU: 0xA7B4, offset: 0x57131, size: 0x8, addend: 0x0, symName: __ZNKSt3__16vectorIP9SceneNodeNS_9allocatorIS2_EEE4dataB7v160006Ev, symObjAddr: 0x1100, symBinAddr: 0x100014C30, symSize: 0x20 }
  - { offsetInCU: 0xA7D8, offset: 0x57155, size: 0x8, addend: 0x0, symName: __ZNSt3__16vectorIP9SceneNodeNS_9allocatorIS2_EEE22__base_destruct_at_endB7v160006EPS2_, symObjAddr: 0x1130, symBinAddr: 0x100014C60, symSize: 0x80 }
  - { offsetInCU: 0xA81A, offset: 0x57197, size: 0x8, addend: 0x0, symName: __ZNSt3__116allocator_traitsINS_9allocatorIP9SceneNodeEEE7destroyB7v160006IS3_vEEvRS4_PT_, symObjAddr: 0x11B0, symBinAddr: 0x100014CE0, symSize: 0x30 }
  - { offsetInCU: 0xA857, offset: 0x571D4, size: 0x8, addend: 0x0, symName: __ZNSt3__19allocatorIP9SceneNodeE7destroyB7v160006EPS2_, symObjAddr: 0x11E0, symBinAddr: 0x100014D10, symSize: 0x10 }
  - { offsetInCU: 0xA889, offset: 0x57206, size: 0x8, addend: 0x0, symName: __ZNSt3__19allocatorIP9SceneNodeE10deallocateB7v160006EPS2_m, symObjAddr: 0x11F0, symBinAddr: 0x100014D20, symSize: 0x40 }
  - { offsetInCU: 0xA8C9, offset: 0x57246, size: 0x8, addend: 0x0, symName: __ZNSt3__117__compressed_pairIPP9SceneNodeNS_9allocatorIS2_EEE6secondB7v160006Ev, symObjAddr: 0x1230, symBinAddr: 0x100014D60, symSize: 0x20 }
  - { offsetInCU: 0xA8ED, offset: 0x5726A, size: 0x8, addend: 0x0, symName: __ZNSt3__122__compressed_pair_elemINS_9allocatorIP9SceneNodeEELi1ELb1EE5__getB7v160006Ev, symObjAddr: 0x1250, symBinAddr: 0x100014D80, symSize: 0x10 }
  - { offsetInCU: 0xA911, offset: 0x5728E, size: 0x8, addend: 0x0, symName: __ZNKSt3__16vectorIP9SceneNodeNS_9allocatorIS2_EEE9__end_capB7v160006Ev, symObjAddr: 0x1260, symBinAddr: 0x100014D90, symSize: 0x20 }
  - { offsetInCU: 0xA935, offset: 0x572B2, size: 0x8, addend: 0x0, symName: __ZNKSt3__117__compressed_pairIPP9SceneNodeNS_9allocatorIS2_EEE5firstB7v160006Ev, symObjAddr: 0x1280, symBinAddr: 0x100014DB0, symSize: 0x20 }
  - { offsetInCU: 0xA959, offset: 0x572D6, size: 0x8, addend: 0x0, symName: __ZNKSt3__122__compressed_pair_elemIPP9SceneNodeLi0ELb0EE5__getB7v160006Ev, symObjAddr: 0x12A0, symBinAddr: 0x100014DD0, symSize: 0x10 }
  - { offsetInCU: 0xA97D, offset: 0x572FA, size: 0x8, addend: 0x0, symName: __ZNSt3__16vectorIP9SceneNodeNS_9allocatorIS2_EEE9__end_capB7v160006Ev, symObjAddr: 0x12B0, symBinAddr: 0x100014DE0, symSize: 0x20 }
  - { offsetInCU: 0xA9A1, offset: 0x5731E, size: 0x8, addend: 0x0, symName: __ZNSt3__16vectorIP9SceneNodeNS_9allocatorIS2_EEE22__construct_one_at_endB7v160006IJRKS2_EEEvDpOT_, symObjAddr: 0x12D0, symBinAddr: 0x100014E00, symSize: 0x90 }
  - { offsetInCU: 0xA9ED, offset: 0x5736A, size: 0x8, addend: 0x0, symName: __ZNSt3__16vectorIP9SceneNodeNS_9allocatorIS2_EEE21__push_back_slow_pathIRKS2_EEvOT_, symObjAddr: 0x1360, symBinAddr: 0x100014E90, symSize: 0xD0 }
  - { offsetInCU: 0xAA4B, offset: 0x573C8, size: 0x8, addend: 0x0, symName: __ZNSt3__117__compressed_pairIPP9SceneNodeNS_9allocatorIS2_EEE5firstB7v160006Ev, symObjAddr: 0x1430, symBinAddr: 0x100014F60, symSize: 0x20 }
  - { offsetInCU: 0xAA6F, offset: 0x573EC, size: 0x8, addend: 0x0, symName: __ZNSt3__122__compressed_pair_elemIPP9SceneNodeLi0ELb0EE5__getB7v160006Ev, symObjAddr: 0x1450, symBinAddr: 0x100014F80, symSize: 0x10 }
  - { offsetInCU: 0xAAAC, offset: 0x57429, size: 0x8, addend: 0x0, symName: __ZNSt3__16vectorIP9SceneNodeNS_9allocatorIS2_EEE21_ConstructTransactionC1B7v160006ERS5_m, symObjAddr: 0x1460, symBinAddr: 0x100014F90, symSize: 0x30 }
  - { offsetInCU: 0xAAF2, offset: 0x5746F, size: 0x8, addend: 0x0, symName: __ZNSt3__116allocator_traitsINS_9allocatorIP9SceneNodeEEE9constructB7v160006IS3_JRKS3_EvEEvRS4_PT_DpOT0_, symObjAddr: 0x1490, symBinAddr: 0x100014FC0, symSize: 0x30 }
  - { offsetInCU: 0xAB49, offset: 0x574C6, size: 0x8, addend: 0x0, symName: __ZNSt3__16vectorIP9SceneNodeNS_9allocatorIS2_EEE21_ConstructTransactionD1B7v160006Ev, symObjAddr: 0x14C0, symBinAddr: 0x100014FF0, symSize: 0x20 }
  - { offsetInCU: 0xAB71, offset: 0x574EE, size: 0x8, addend: 0x0, symName: __ZNSt3__16vectorIP9SceneNodeNS_9allocatorIS2_EEE21_ConstructTransactionC2B7v160006ERS5_m, symObjAddr: 0x14E0, symBinAddr: 0x100015010, symSize: 0x40 }
  - { offsetInCU: 0xABB7, offset: 0x57534, size: 0x8, addend: 0x0, symName: __ZNSt3__19allocatorIP9SceneNodeE9constructB7v160006IS2_JRKS2_EEEvPT_DpOT0_, symObjAddr: 0x1520, symBinAddr: 0x100015050, symSize: 0x20 }
  - { offsetInCU: 0xAC0B, offset: 0x57588, size: 0x8, addend: 0x0, symName: __ZNSt3__16vectorIP9SceneNodeNS_9allocatorIS2_EEE21_ConstructTransactionD2B7v160006Ev, symObjAddr: 0x1540, symBinAddr: 0x100015070, symSize: 0x20 }
  - { offsetInCU: 0xAC32, offset: 0x575AF, size: 0x8, addend: 0x0, symName: __ZNKSt3__16vectorIP9SceneNodeNS_9allocatorIS2_EEE11__recommendB7v160006Em, symObjAddr: 0x1560, symBinAddr: 0x100015090, symSize: 0xA0 }
  - { offsetInCU: 0xAC87, offset: 0x57604, size: 0x8, addend: 0x0, symName: __ZNSt3__114__split_bufferIP9SceneNodeRNS_9allocatorIS2_EEEC1EmmS5_, symObjAddr: 0x1600, symBinAddr: 0x100015130, symSize: 0x40 }
  - { offsetInCU: 0xACDC, offset: 0x57659, size: 0x8, addend: 0x0, symName: __ZNSt3__114__split_bufferIP9SceneNodeRNS_9allocatorIS2_EEED1Ev, symObjAddr: 0x1770, symBinAddr: 0x1000152A0, symSize: 0x20 }
  - { offsetInCU: 0xAD06, offset: 0x57683, size: 0x8, addend: 0x0, symName: __ZNKSt3__16vectorIP9SceneNodeNS_9allocatorIS2_EEE8max_sizeEv, symObjAddr: 0x1790, symBinAddr: 0x1000152C0, symSize: 0x60 }
  - { offsetInCU: 0xAD2E, offset: 0x576AB, size: 0x8, addend: 0x0, symName: __ZNKSt3__16vectorIP9SceneNodeNS_9allocatorIS2_EEE20__throw_length_errorB7v160006Ev, symObjAddr: 0x17F0, symBinAddr: 0x100015320, symSize: 0x20 }
  - { offsetInCU: 0xAD5C, offset: 0x576D9, size: 0x8, addend: 0x0, symName: __ZNSt3__116allocator_traitsINS_9allocatorIP9SceneNodeEEE8max_sizeB7v160006IS4_vEEmRKS4_, symObjAddr: 0x1870, symBinAddr: 0x100015340, symSize: 0x20 }
  - { offsetInCU: 0xAD8A, offset: 0x57707, size: 0x8, addend: 0x0, symName: __ZNKSt3__16vectorIP9SceneNodeNS_9allocatorIS2_EEE7__allocB7v160006Ev, symObjAddr: 0x1890, symBinAddr: 0x100015360, symSize: 0x20 }
  - { offsetInCU: 0xADAE, offset: 0x5772B, size: 0x8, addend: 0x0, symName: __ZNKSt3__19allocatorIP9SceneNodeE8max_sizeB7v160006Ev, symObjAddr: 0x1940, symBinAddr: 0x100015380, symSize: 0x20 }
  - { offsetInCU: 0xADD2, offset: 0x5774F, size: 0x8, addend: 0x0, symName: __ZNKSt3__117__compressed_pairIPP9SceneNodeNS_9allocatorIS2_EEE6secondB7v160006Ev, symObjAddr: 0x1960, symBinAddr: 0x1000153A0, symSize: 0x20 }
  - { offsetInCU: 0xADF6, offset: 0x57773, size: 0x8, addend: 0x0, symName: __ZNKSt3__122__compressed_pair_elemINS_9allocatorIP9SceneNodeEELi1ELb1EE5__getB7v160006Ev, symObjAddr: 0x1980, symBinAddr: 0x1000153C0, symSize: 0x10 }
  - { offsetInCU: 0xAE1A, offset: 0x57797, size: 0x8, addend: 0x0, symName: __ZNSt3__114__split_bufferIP9SceneNodeRNS_9allocatorIS2_EEEC2EmmS5_, symObjAddr: 0x1AD0, symBinAddr: 0x1000153D0, symSize: 0xD0 }
  - { offsetInCU: 0xAE8D, offset: 0x5780A, size: 0x8, addend: 0x0, symName: __ZNSt3__117__compressed_pairIPP9SceneNodeRNS_9allocatorIS2_EEEC1B7v160006IDnS6_EEOT_OT0_, symObjAddr: 0x1BA0, symBinAddr: 0x1000154A0, symSize: 0x30 }
  - { offsetInCU: 0xAEE3, offset: 0x57860, size: 0x8, addend: 0x0, symName: __ZNSt3__114__split_bufferIP9SceneNodeRNS_9allocatorIS2_EEE7__allocB7v160006Ev, symObjAddr: 0x1C10, symBinAddr: 0x100015510, symSize: 0x20 }
  - { offsetInCU: 0xAF07, offset: 0x57884, size: 0x8, addend: 0x0, symName: __ZNSt3__114__split_bufferIP9SceneNodeRNS_9allocatorIS2_EEE9__end_capB7v160006Ev, symObjAddr: 0x1C30, symBinAddr: 0x100015530, symSize: 0x20 }
  - { offsetInCU: 0xAF2B, offset: 0x578A8, size: 0x8, addend: 0x0, symName: __ZNSt3__117__compressed_pairIPP9SceneNodeRNS_9allocatorIS2_EEEC2B7v160006IDnS6_EEOT_OT0_, symObjAddr: 0x1C50, symBinAddr: 0x100015550, symSize: 0x40 }
  - { offsetInCU: 0xAF81, offset: 0x578FE, size: 0x8, addend: 0x0, symName: __ZNSt3__122__compressed_pair_elemIRNS_9allocatorIP9SceneNodeEELi1ELb0EEC2B7v160006IS5_vEEOT_, symObjAddr: 0x1C90, symBinAddr: 0x100015590, symSize: 0x20 }
  - { offsetInCU: 0xAFC1, offset: 0x5793E, size: 0x8, addend: 0x0, symName: __ZNSt3__19allocatorIP9SceneNodeE8allocateB7v160006Em, symObjAddr: 0x1CB0, symBinAddr: 0x1000155B0, symSize: 0x50 }
  - { offsetInCU: 0xAFF3, offset: 0x57970, size: 0x8, addend: 0x0, symName: __ZNSt3__117__compressed_pairIPP9SceneNodeRNS_9allocatorIS2_EEE6secondB7v160006Ev, symObjAddr: 0x1DF0, symBinAddr: 0x100015600, symSize: 0x20 }
  - { offsetInCU: 0xB017, offset: 0x57994, size: 0x8, addend: 0x0, symName: __ZNSt3__122__compressed_pair_elemIRNS_9allocatorIP9SceneNodeEELi1ELb0EE5__getB7v160006Ev, symObjAddr: 0x1E10, symBinAddr: 0x100015620, symSize: 0x20 }
  - { offsetInCU: 0xB03B, offset: 0x579B8, size: 0x8, addend: 0x0, symName: __ZNSt3__117__compressed_pairIPP9SceneNodeRNS_9allocatorIS2_EEE5firstB7v160006Ev, symObjAddr: 0x1E30, symBinAddr: 0x100015640, symSize: 0x20 }
  - { offsetInCU: 0xB05F, offset: 0x579DC, size: 0x8, addend: 0x0, symName: __ZNSt3__116reverse_iteratorIPP9SceneNodeEC1B7v160006ES3_, symObjAddr: 0x1EC0, symBinAddr: 0x1000156D0, symSize: 0x30 }
  - { offsetInCU: 0xB095, offset: 0x57A12, size: 0x8, addend: 0x0, symName: __ZNKSt3__116reverse_iteratorIPP9SceneNodeE4baseB7v160006Ev, symObjAddr: 0x1EF0, symBinAddr: 0x100015700, symSize: 0x20 }
  - { offsetInCU: 0xB0B9, offset: 0x57A36, size: 0x8, addend: 0x0, symName: __ZNKSt3__16vectorIP9SceneNodeNS_9allocatorIS2_EEE14__annotate_newB7v160006Em, symObjAddr: 0x1F50, symBinAddr: 0x100015760, symSize: 0xB0 }
  - { offsetInCU: 0xB10F, offset: 0x57A8C, size: 0x8, addend: 0x0, symName: __ZNKSt3__111__move_loopINS_17_ClassicAlgPolicyEEclB7v160006INS_16reverse_iteratorIPP9SceneNodeEES8_S8_EENS_4pairIT_T1_EESA_T0_SB_, symObjAddr: 0x2450, symBinAddr: 0x100015C60, symSize: 0xA0 }
  - { offsetInCU: 0xB17D, offset: 0x57AFA, size: 0x8, addend: 0x0, symName: __ZNSt3__18_IterOpsINS_17_ClassicAlgPolicyEE11__iter_moveB7v160006IRNS_16reverse_iteratorIPP9SceneNodeEEEENS_9enable_ifIXsr12is_referenceIDTdeclsr3stdE7declvalIRT_EEEEE5valueEDTclsr3stdE4movedeclsr3stdE7declvalISC_EEEEE4typeEOSB_, symObjAddr: 0x2670, symBinAddr: 0x100015E80, symSize: 0x20 }
  - { offsetInCU: 0xB1A9, offset: 0x57B26, size: 0x8, addend: 0x0, symName: __ZNKSt3__116reverse_iteratorIPP9SceneNodeEdeB7v160006Ev, symObjAddr: 0x2690, symBinAddr: 0x100015EA0, symSize: 0x30 }
  - { offsetInCU: 0xB1DC, offset: 0x57B59, size: 0x8, addend: 0x0, symName: __ZNSt3__116reverse_iteratorIPP9SceneNodeEppB7v160006Ev, symObjAddr: 0x26C0, symBinAddr: 0x100015ED0, symSize: 0x20 }
  - { offsetInCU: 0xB200, offset: 0x57B7D, size: 0x8, addend: 0x0, symName: __ZNSt3__18_IterOpsINS_17_ClassicAlgPolicyEE25__validate_iter_referenceB7v160006IRNS_16reverse_iteratorIPP9SceneNodeEEEEvv, symObjAddr: 0x26E0, symBinAddr: 0x100015EF0, symSize: 0x10 }
  - { offsetInCU: 0xB21E, offset: 0x57B9B, size: 0x8, addend: 0x0, symName: __ZNSt3__118__unwrap_iter_implINS_16reverse_iteratorIPP9SceneNodeEELb0EE8__unwrapB7v160006ES5_, symObjAddr: 0x26F0, symBinAddr: 0x100015F00, symSize: 0x20 }
  - { offsetInCU: 0xB246, offset: 0x57BC3, size: 0x8, addend: 0x0, symName: __ZNSt3__14pairINS_16reverse_iteratorIPP9SceneNodeEES5_EC1B7v160006IS5_S5_LPv0EEEOT_OT0_, symObjAddr: 0x2710, symBinAddr: 0x100015F20, symSize: 0x30 }
  - { offsetInCU: 0xB2A3, offset: 0x57C20, size: 0x8, addend: 0x0, symName: __ZNSt3__14pairINS_16reverse_iteratorIPP9SceneNodeEES5_EC2B7v160006IS5_S5_LPv0EEEOT_OT0_, symObjAddr: 0x2740, symBinAddr: 0x100015F50, symSize: 0x40 }
  - { offsetInCU: 0xB300, offset: 0x57C7D, size: 0x8, addend: 0x0, symName: __ZNSt3__118__unwrap_iter_implINS_16reverse_iteratorIPP9SceneNodeEELb0EE8__rewrapB7v160006ES5_S5_, symObjAddr: 0x2780, symBinAddr: 0x100015F90, symSize: 0x30 }
  - { offsetInCU: 0xB32D, offset: 0x57CAA, size: 0x8, addend: 0x0, symName: __ZNSt3__116reverse_iteratorIPP9SceneNodeEC2B7v160006ES3_, symObjAddr: 0x27B0, symBinAddr: 0x100015FC0, symSize: 0x30 }
  - { offsetInCU: 0xB363, offset: 0x57CE0, size: 0x8, addend: 0x0, symName: __ZNSt3__114__split_bufferIP9SceneNodeRNS_9allocatorIS2_EEED2Ev, symObjAddr: 0x27E0, symBinAddr: 0x100015FF0, symSize: 0x70 }
  - { offsetInCU: 0xB38E, offset: 0x57D0B, size: 0x8, addend: 0x0, symName: __ZNSt3__114__split_bufferIP9SceneNodeRNS_9allocatorIS2_EEE5clearB7v160006Ev, symObjAddr: 0x2850, symBinAddr: 0x100016060, symSize: 0x20 }
  - { offsetInCU: 0xB3B2, offset: 0x57D2F, size: 0x8, addend: 0x0, symName: __ZNKSt3__114__split_bufferIP9SceneNodeRNS_9allocatorIS2_EEE8capacityB7v160006Ev, symObjAddr: 0x2870, symBinAddr: 0x100016080, symSize: 0x30 }
  - { offsetInCU: 0xB3D6, offset: 0x57D53, size: 0x8, addend: 0x0, symName: __ZNSt3__114__split_bufferIP9SceneNodeRNS_9allocatorIS2_EEE17__destruct_at_endB7v160006EPS2_, symObjAddr: 0x28A0, symBinAddr: 0x1000160B0, symSize: 0x30 }
  - { offsetInCU: 0xB407, offset: 0x57D84, size: 0x8, addend: 0x0, symName: __ZNSt3__114__split_bufferIP9SceneNodeRNS_9allocatorIS2_EEE17__destruct_at_endB7v160006EPS2_NS_17integral_constantIbLb0EEE, symObjAddr: 0x28D0, symBinAddr: 0x1000160E0, symSize: 0x80 }
  - { offsetInCU: 0xB447, offset: 0x57DC4, size: 0x8, addend: 0x0, symName: __ZNKSt3__114__split_bufferIP9SceneNodeRNS_9allocatorIS2_EEE9__end_capB7v160006Ev, symObjAddr: 0x2950, symBinAddr: 0x100016160, symSize: 0x20 }
  - { offsetInCU: 0xB46B, offset: 0x57DE8, size: 0x8, addend: 0x0, symName: __ZNKSt3__117__compressed_pairIPP9SceneNodeRNS_9allocatorIS2_EEE5firstB7v160006Ev, symObjAddr: 0x2970, symBinAddr: 0x100016180, symSize: 0x1B }
  - { offsetInCU: 0x63, offset: 0x57EF0, size: 0x8, addend: 0x0, symName: __ZN3glm11perspectiveIfEENS_3matILi4ELi4ET_LNS_9qualifierE0EEES2_S2_S2_S2_, symObjAddr: 0x5A0, symBinAddr: 0x100016700, symSize: 0x50 }
  - { offsetInCU: 0xC7, offset: 0x57F54, size: 0x8, addend: 0x0, symName: __ZN3glm16perspectiveRH_NOIfEENS_3matILi4ELi4ET_LNS_9qualifierE0EEES2_S2_S2_S2_, symObjAddr: 0x3740, symBinAddr: 0x100018B70, symSize: 0x200 }
  - { offsetInCU: 0x145, offset: 0x57FD2, size: 0x8, addend: 0x0, symName: __ZN3glm3absIfEET_S1_, symObjAddr: 0x3940, symBinAddr: 0x100018D70, symSize: 0x20 }
  - { offsetInCU: 0x82A1, offset: 0x6012E, size: 0x8, addend: 0x0, symName: __ZNSt3__1eqB7v160006INS_9allocatorIcEEEEbRKNS_12basic_stringIcNS_11char_traitsIcEET_EES9_, symObjAddr: 0xAC0, symBinAddr: 0x100016B60, symSize: 0x110 }
  - { offsetInCU: 0x8314, offset: 0x601A1, size: 0x8, addend: 0x0, symName: __ZNSt3__119__debug_db_insert_cB7v160006INS_6vectorIP6CameraNS_9allocatorIS3_EEEEEEvPT_, symObjAddr: 0xEF0, symBinAddr: 0x100016D00, symSize: 0x10 }
  - { offsetInCU: 0x8345, offset: 0x601D2, size: 0x8, addend: 0x0, symName: __ZNSt3__119__debug_db_insert_cB7v160006INS_6vectorIP11TerrainNodeNS_9allocatorIS3_EEEEEEvPT_, symObjAddr: 0x1190, symBinAddr: 0x100016E50, symSize: 0x10 }
  - { offsetInCU: 0x8376, offset: 0x60203, size: 0x8, addend: 0x0, symName: __ZNSt3__118__debug_db_erase_cB7v160006INS_6vectorIP6CameraNS_9allocatorIS3_EEEEEEvPT_, symObjAddr: 0x1420, symBinAddr: 0x1000170E0, symSize: 0x10 }
  - { offsetInCU: 0x83A7, offset: 0x60234, size: 0x8, addend: 0x0, symName: __ZNSt3__112__to_addressB7v160006IP6CameraEEPT_S4_, symObjAddr: 0x1510, symBinAddr: 0x1000171D0, symSize: 0x10 }
  - { offsetInCU: 0x83DC, offset: 0x60269, size: 0x8, addend: 0x0, symName: __ZNSt3__118__debug_db_erase_cB7v160006INS_6vectorIP11TerrainNodeNS_9allocatorIS3_EEEEEEvPT_, symObjAddr: 0x1DE0, symBinAddr: 0x100017530, symSize: 0x10 }
  - { offsetInCU: 0x840D, offset: 0x6029A, size: 0x8, addend: 0x0, symName: __ZNSt3__112__to_addressB7v160006IP11TerrainNodeEEPT_S4_, symObjAddr: 0x1ED0, symBinAddr: 0x100017620, symSize: 0x10 }
  - { offsetInCU: 0x8442, offset: 0x602CF, size: 0x8, addend: 0x0, symName: __ZNSt3__119__allocate_at_leastB7v160006INS_9allocatorIP6CameraEEEENS_19__allocation_resultINS_16allocator_traitsIT_E7pointerEEERS7_m, symObjAddr: 0x2980, symBinAddr: 0x100017EA0, symSize: 0x40 }
  - { offsetInCU: 0x8485, offset: 0x60312, size: 0x8, addend: 0x0, symName: __ZNSt3__142__uninitialized_allocator_move_if_noexceptB7v160006INS_9allocatorIP6CameraEENS_16reverse_iteratorIPS3_EES7_S3_vEET1_RT_T0_SB_S8_, symObjAddr: 0x2C00, symBinAddr: 0x100018030, symSize: 0x70 }
  - { offsetInCU: 0x8502, offset: 0x6038F, size: 0x8, addend: 0x0, symName: __ZNSt3__14swapB7v160006IPP6CameraEENS_9enable_ifIXaasr21is_move_constructibleIT_EE5valuesr18is_move_assignableIS5_EE5valueEvE4typeERS5_S8_, symObjAddr: 0x2CC0, symBinAddr: 0x1000180F0, symSize: 0x40 }
  - { offsetInCU: 0x8554, offset: 0x603E1, size: 0x8, addend: 0x0, symName: __ZNSt3__125__debug_db_invalidate_allB7v160006INS_6vectorIP6CameraNS_9allocatorIS3_EEEEEEvPT_, symObjAddr: 0x2DB0, symBinAddr: 0x1000181E0, symSize: 0x10 }
  - { offsetInCU: 0x8585, offset: 0x60412, size: 0x8, addend: 0x0, symName: __ZNSt3__14moveB7v160006INS_16reverse_iteratorIPP6CameraEES5_EET0_T_S7_S6_, symObjAddr: 0x2DC0, symBinAddr: 0x1000181F0, symSize: 0x80 }
  - { offsetInCU: 0x85DF, offset: 0x6046C, size: 0x8, addend: 0x0, symName: __ZNSt3__16__moveB7v160006INS_17_ClassicAlgPolicyENS_16reverse_iteratorIPP6CameraEES6_S6_EENS_4pairIT0_T2_EES8_T1_S9_, symObjAddr: 0x2E40, symBinAddr: 0x100018270, symSize: 0x90 }
  - { offsetInCU: 0x864B, offset: 0x604D8, size: 0x8, addend: 0x0, symName: __ZNSt3__123__dispatch_copy_or_moveB7v160006INS_17_ClassicAlgPolicyENS_11__move_loopIS1_EENS_14__move_trivialENS_16reverse_iteratorIPP6CameraEES9_S9_EENS_4pairIT2_T4_EESB_T3_SC_, symObjAddr: 0x2ED0, symBinAddr: 0x100018300, symSize: 0x90 }
  - { offsetInCU: 0x86C9, offset: 0x60556, size: 0x8, addend: 0x0, symName: __ZNSt3__121__unwrap_and_dispatchB7v160006INS_10__overloadINS_11__move_loopINS_17_ClassicAlgPolicyEEENS_14__move_trivialEEENS_16reverse_iteratorIPP6CameraEESB_SB_Li0EEENS_4pairIT0_T2_EESD_T1_SE_, symObjAddr: 0x2F60, symBinAddr: 0x100018390, symSize: 0x210 }
  - { offsetInCU: 0x875B, offset: 0x605E8, size: 0x8, addend: 0x0, symName: __ZNSt3__114__unwrap_rangeB7v160006INS_16reverse_iteratorIPP6CameraEES5_EENS_4pairIT0_S7_EET_S9_, symObjAddr: 0x3170, symBinAddr: 0x1000185A0, symSize: 0x90 }
  - { offsetInCU: 0x894C, offset: 0x607D9, size: 0x8, addend: 0x0, symName: __ZNSt3__113__unwrap_iterB7v160006INS_16reverse_iteratorIPP6CameraEENS_18__unwrap_iter_implIS5_Lb0EEELi0EEEDTclsrT0_8__unwrapclsr3stdE7declvalIT_EEEES9_, symObjAddr: 0x32A0, symBinAddr: 0x1000186D0, symSize: 0x40 }
  - { offsetInCU: 0x8991, offset: 0x6081E, size: 0x8, addend: 0x0, symName: __ZNSt3__19make_pairB7v160006INS_16reverse_iteratorIPP6CameraEES5_EENS_4pairINS_18__unwrap_ref_decayIT_E4typeENS7_IT0_E4typeEEEOS8_OSB_, symObjAddr: 0x32E0, symBinAddr: 0x100018710, symSize: 0x30 }
  - { offsetInCU: 0x89E0, offset: 0x6086D, size: 0x8, addend: 0x0, symName: __ZNSt3__114__rewrap_rangeB7v160006INS_16reverse_iteratorIPP6CameraEES5_EET_S6_T0_, symObjAddr: 0x3310, symBinAddr: 0x100018740, symSize: 0x60 }
  - { offsetInCU: 0x8A2C, offset: 0x608B9, size: 0x8, addend: 0x0, symName: __ZNSt3__113__rewrap_iterB7v160006INS_16reverse_iteratorIPP6CameraEES5_NS_18__unwrap_iter_implIS5_Lb0EEEEET_S8_T0_, symObjAddr: 0x3370, symBinAddr: 0x1000187A0, symSize: 0x70 }
  - { offsetInCU: 0x8A81, offset: 0x6090E, size: 0x8, addend: 0x0, symName: __ZNSt3__1neB7v160006IPP6CameraS3_EEbRKNS_16reverse_iteratorIT_EERKNS4_IT0_EE, symObjAddr: 0x33E0, symBinAddr: 0x100018810, symSize: 0x40 }
  - { offsetInCU: 0x90B7, offset: 0x60F44, size: 0x8, addend: 0x0, symName: __ZNSt3__119__allocate_at_leastB7v160006INS_9allocatorIP11TerrainNodeEEEENS_19__allocation_resultINS_16allocator_traitsIT_E7pointerEEERS7_m, symObjAddr: 0x5640, symBinAddr: 0x100019510, symSize: 0x40 }
  - { offsetInCU: 0x90FA, offset: 0x60F87, size: 0x8, addend: 0x0, symName: __ZNSt3__142__uninitialized_allocator_move_if_noexceptB7v160006INS_9allocatorIP11TerrainNodeEENS_16reverse_iteratorIPS3_EES7_S3_vEET1_RT_T0_SB_S8_, symObjAddr: 0x57D0, symBinAddr: 0x1000196A0, symSize: 0x70 }
  - { offsetInCU: 0x9177, offset: 0x61004, size: 0x8, addend: 0x0, symName: __ZNSt3__14swapB7v160006IPP11TerrainNodeEENS_9enable_ifIXaasr21is_move_constructibleIT_EE5valuesr18is_move_assignableIS5_EE5valueEvE4typeERS5_S8_, symObjAddr: 0x5890, symBinAddr: 0x100019760, symSize: 0x40 }
  - { offsetInCU: 0x91C9, offset: 0x61056, size: 0x8, addend: 0x0, symName: __ZNSt3__125__debug_db_invalidate_allB7v160006INS_6vectorIP11TerrainNodeNS_9allocatorIS3_EEEEEEvPT_, symObjAddr: 0x5980, symBinAddr: 0x100019850, symSize: 0x10 }
  - { offsetInCU: 0x91FA, offset: 0x61087, size: 0x8, addend: 0x0, symName: __ZNSt3__14moveB7v160006INS_16reverse_iteratorIPP11TerrainNodeEES5_EET0_T_S7_S6_, symObjAddr: 0x5990, symBinAddr: 0x100019860, symSize: 0x80 }
  - { offsetInCU: 0x9254, offset: 0x610E1, size: 0x8, addend: 0x0, symName: __ZNSt3__16__moveB7v160006INS_17_ClassicAlgPolicyENS_16reverse_iteratorIPP11TerrainNodeEES6_S6_EENS_4pairIT0_T2_EES8_T1_S9_, symObjAddr: 0x5A10, symBinAddr: 0x1000198E0, symSize: 0x90 }
  - { offsetInCU: 0x92C0, offset: 0x6114D, size: 0x8, addend: 0x0, symName: __ZNSt3__123__dispatch_copy_or_moveB7v160006INS_17_ClassicAlgPolicyENS_11__move_loopIS1_EENS_14__move_trivialENS_16reverse_iteratorIPP11TerrainNodeEES9_S9_EENS_4pairIT2_T4_EESB_T3_SC_, symObjAddr: 0x5AA0, symBinAddr: 0x100019970, symSize: 0x90 }
  - { offsetInCU: 0x933E, offset: 0x611CB, size: 0x8, addend: 0x0, symName: __ZNSt3__121__unwrap_and_dispatchB7v160006INS_10__overloadINS_11__move_loopINS_17_ClassicAlgPolicyEEENS_14__move_trivialEEENS_16reverse_iteratorIPP11TerrainNodeEESB_SB_Li0EEENS_4pairIT0_T2_EESD_T1_SE_, symObjAddr: 0x5B30, symBinAddr: 0x100019A00, symSize: 0x210 }
  - { offsetInCU: 0x93D0, offset: 0x6125D, size: 0x8, addend: 0x0, symName: __ZNSt3__114__unwrap_rangeB7v160006INS_16reverse_iteratorIPP11TerrainNodeEES5_EENS_4pairIT0_S7_EET_S9_, symObjAddr: 0x5D40, symBinAddr: 0x100019C10, symSize: 0x90 }
  - { offsetInCU: 0x94F1, offset: 0x6137E, size: 0x8, addend: 0x0, symName: __ZNSt3__113__unwrap_iterB7v160006INS_16reverse_iteratorIPP11TerrainNodeEENS_18__unwrap_iter_implIS5_Lb0EEELi0EEEDTclsrT0_8__unwrapclsr3stdE7declvalIT_EEEES9_, symObjAddr: 0x5E70, symBinAddr: 0x100019D40, symSize: 0x40 }
  - { offsetInCU: 0x9536, offset: 0x613C3, size: 0x8, addend: 0x0, symName: __ZNSt3__19make_pairB7v160006INS_16reverse_iteratorIPP11TerrainNodeEES5_EENS_4pairINS_18__unwrap_ref_decayIT_E4typeENS7_IT0_E4typeEEEOS8_OSB_, symObjAddr: 0x5EB0, symBinAddr: 0x100019D80, symSize: 0x30 }
  - { offsetInCU: 0x9585, offset: 0x61412, size: 0x8, addend: 0x0, symName: __ZNSt3__114__rewrap_rangeB7v160006INS_16reverse_iteratorIPP11TerrainNodeEES5_EET_S6_T0_, symObjAddr: 0x5EE0, symBinAddr: 0x100019DB0, symSize: 0x60 }
  - { offsetInCU: 0x95D1, offset: 0x6145E, size: 0x8, addend: 0x0, symName: __ZNSt3__113__rewrap_iterB7v160006INS_16reverse_iteratorIPP11TerrainNodeEES5_NS_18__unwrap_iter_implIS5_Lb0EEEEET_S8_T0_, symObjAddr: 0x5F40, symBinAddr: 0x100019E10, symSize: 0x70 }
  - { offsetInCU: 0x9626, offset: 0x614B3, size: 0x8, addend: 0x0, symName: __ZNSt3__1neB7v160006IPP11TerrainNodeS3_EEbRKNS_16reverse_iteratorIT_EERKNS4_IT0_EE, symObjAddr: 0x5FB0, symBinAddr: 0x100019E80, symSize: 0x40 }
  - { offsetInCU: 0xA976, offset: 0x62803, size: 0x8, addend: 0x0, symName: __ZNSt3__16vectorIP6CameraNS_9allocatorIS2_EEE26__swap_out_circular_bufferERNS_14__split_bufferIS2_RS4_EE, symObjAddr: 0x23F0, symBinAddr: 0x100017B40, symSize: 0x130 }
  - { offsetInCU: 0xA9E7, offset: 0x62874, size: 0x8, addend: 0x0, symName: __ZNSt3__16vectorIP11TerrainNodeNS_9allocatorIS2_EEE26__swap_out_circular_bufferERNS_14__split_bufferIS2_RS4_EE, symObjAddr: 0x52E0, symBinAddr: 0x1000191B0, symSize: 0x130 }
  - { offsetInCU: 0xC965, offset: 0x647F2, size: 0x8, addend: 0x0, symName: __ZN8RendererC2Ejj, symObjAddr: 0x0, symBinAddr: 0x1000161A0, symSize: 0xF0 }
  - { offsetInCU: 0xC9C0, offset: 0x6484D, size: 0x8, addend: 0x0, symName: __ZNSt3__16vectorIP6CameraNS_9allocatorIS2_EEEC1B7v160006Ev, symObjAddr: 0xF0, symBinAddr: 0x100016290, symSize: 0x20 }
  - { offsetInCU: 0xC9E8, offset: 0x64875, size: 0x8, addend: 0x0, symName: __ZNSt3__16vectorIP11TerrainNodeNS_9allocatorIS2_EEEC1B7v160006Ev, symObjAddr: 0x130, symBinAddr: 0x1000162B0, symSize: 0x20 }
  - { offsetInCU: 0xCA0F, offset: 0x6489C, size: 0x8, addend: 0x0, symName: __ZNSt3__16vectorIP6CameraNS_9allocatorIS2_EEE9push_backB7v160006ERKS2_, symObjAddr: 0x150, symBinAddr: 0x1000162D0, symSize: 0x60 }
  - { offsetInCU: 0xCA46, offset: 0x648D3, size: 0x8, addend: 0x0, symName: __ZNSt3__16vectorIP11TerrainNodeNS_9allocatorIS2_EEED1B7v160006Ev, symObjAddr: 0x1B0, symBinAddr: 0x100016330, symSize: 0x20 }
  - { offsetInCU: 0xCA6E, offset: 0x648FB, size: 0x8, addend: 0x0, symName: __ZNSt3__16vectorIP6CameraNS_9allocatorIS2_EEED1B7v160006Ev, symObjAddr: 0x1F0, symBinAddr: 0x100016350, symSize: 0x20 }
  - { offsetInCU: 0xCA96, offset: 0x64923, size: 0x8, addend: 0x0, symName: __ZN8RendererC1Ejj, symObjAddr: 0x210, symBinAddr: 0x100016370, symSize: 0x30 }
  - { offsetInCU: 0xCADC, offset: 0x64969, size: 0x8, addend: 0x0, symName: __ZN8RendererD2Ev, symObjAddr: 0x240, symBinAddr: 0x1000163A0, symSize: 0xA0 }
  - { offsetInCU: 0xCB24, offset: 0x649B1, size: 0x8, addend: 0x0, symName: __ZNKSt3__16vectorIP6CameraNS_9allocatorIS2_EEE4sizeB7v160006Ev, symObjAddr: 0x2E0, symBinAddr: 0x100016440, symSize: 0x20 }
  - { offsetInCU: 0xCB47, offset: 0x649D4, size: 0x8, addend: 0x0, symName: __ZNSt3__16vectorIP6CameraNS_9allocatorIS2_EEEixB7v160006Em, symObjAddr: 0x300, symBinAddr: 0x100016460, symSize: 0x20 }
  - { offsetInCU: 0xCB7E, offset: 0x64A0B, size: 0x8, addend: 0x0, symName: __ZN8RendererD1Ev, symObjAddr: 0x320, symBinAddr: 0x100016480, symSize: 0x20 }
  - { offsetInCU: 0xCBA8, offset: 0x64A35, size: 0x8, addend: 0x0, symName: __ZN8Renderer6UpdateEv, symObjAddr: 0x340, symBinAddr: 0x1000164A0, symSize: 0x260 }
  - { offsetInCU: 0xCC0C, offset: 0x64A99, size: 0x8, addend: 0x0, symName: __ZNKSt3__16vectorIP9SceneNodeNS_9allocatorIS2_EEE5emptyB7v160006Ev, symObjAddr: 0x610, symBinAddr: 0x100016750, symSize: 0x20 }
  - { offsetInCU: 0xCC30, offset: 0x64ABD, size: 0x8, addend: 0x0, symName: __ZNKSt3__16vectorIP11TerrainNodeNS_9allocatorIS2_EEE5emptyB7v160006Ev, symObjAddr: 0x670, symBinAddr: 0x100016770, symSize: 0x20 }
  - { offsetInCU: 0xCC54, offset: 0x64AE1, size: 0x8, addend: 0x0, symName: __ZNKSt3__16vectorIP11TerrainNodeNS_9allocatorIS2_EEE4sizeB7v160006Ev, symObjAddr: 0x690, symBinAddr: 0x100016790, symSize: 0x20 }
  - { offsetInCU: 0xCC77, offset: 0x64B04, size: 0x8, addend: 0x0, symName: __ZNSt3__16vectorIP11TerrainNodeNS_9allocatorIS2_EEEixB7v160006Em, symObjAddr: 0x6B0, symBinAddr: 0x1000167B0, symSize: 0x20 }
  - { offsetInCU: 0xCCAE, offset: 0x64B3B, size: 0x8, addend: 0x0, symName: __ZN8Renderer6RenderEv, symObjAddr: 0x6D0, symBinAddr: 0x1000167D0, symSize: 0x150 }
  - { offsetInCU: 0xCD10, offset: 0x64B9D, size: 0x8, addend: 0x0, symName: __ZN8Renderer7setRootEP9SceneNode, symObjAddr: 0x820, symBinAddr: 0x100016920, symSize: 0x30 }
  - { offsetInCU: 0xCD44, offset: 0x64BD1, size: 0x8, addend: 0x0, symName: __ZN8Renderer10setTerrainEP11TerrainNode, symObjAddr: 0x8B0, symBinAddr: 0x100016950, symSize: 0x30 }
  - { offsetInCU: 0xCD77, offset: 0x64C04, size: 0x8, addend: 0x0, symName: __ZNSt3__16vectorIP11TerrainNodeNS_9allocatorIS2_EEE9push_backB7v160006ERKS2_, symObjAddr: 0x8E0, symBinAddr: 0x100016980, symSize: 0x60 }
  - { offsetInCU: 0xCDAE, offset: 0x64C3B, size: 0x8, addend: 0x0, symName: __ZN8Renderer8setChildEjP9SceneNode, symObjAddr: 0x940, symBinAddr: 0x1000169E0, symSize: 0x40 }
  - { offsetInCU: 0xCDF0, offset: 0x64C7D, size: 0x8, addend: 0x0, symName: __ZN8Renderer8setChildEjP9SceneNodeS1_, symObjAddr: 0x980, symBinAddr: 0x100016A20, symSize: 0x30 }
  - { offsetInCU: 0xCE40, offset: 0x64CCD, size: 0x8, addend: 0x0, symName: __ZN8Renderer8setChildEjP9SceneNodeNSt3__112basic_stringIcNS2_11char_traitsIcEENS2_9allocatorIcEEEE, symObjAddr: 0x9B0, symBinAddr: 0x100016A50, symSize: 0xD0 }
  - { offsetInCU: 0xCE91, offset: 0x64D1E, size: 0x8, addend: 0x0, symName: __ZN9SceneNode11nameMatchesENSt3__112basic_stringIcNS0_11char_traitsIcEENS0_9allocatorIcEEEE, symObjAddr: 0xA80, symBinAddr: 0x100016B20, symSize: 0x40 }
  - { offsetInCU: 0xCEC4, offset: 0x64D51, size: 0x8, addend: 0x0, symName: __ZNSt3__16vectorIP6CameraNS_9allocatorIS2_EEEC2B7v160006Ev, symObjAddr: 0xE60, symBinAddr: 0x100016C70, symSize: 0x60 }
  - { offsetInCU: 0xCEF6, offset: 0x64D83, size: 0x8, addend: 0x0, symName: __ZNSt3__117__compressed_pairIPP6CameraNS_9allocatorIS2_EEEC1B7v160006IDnNS_18__default_init_tagEEEOT_OT0_, symObjAddr: 0xEC0, symBinAddr: 0x100016CD0, symSize: 0x30 }
  - { offsetInCU: 0xCF4C, offset: 0x64DD9, size: 0x8, addend: 0x0, symName: __ZNSt3__117__compressed_pairIPP6CameraNS_9allocatorIS2_EEEC2B7v160006IDnNS_18__default_init_tagEEEOT_OT0_, symObjAddr: 0xF00, symBinAddr: 0x100016D10, symSize: 0x40 }
  - { offsetInCU: 0xCFA2, offset: 0x64E2F, size: 0x8, addend: 0x0, symName: __ZNSt3__122__compressed_pair_elemIPP6CameraLi0ELb0EEC2B7v160006IDnvEEOT_, symObjAddr: 0xF40, symBinAddr: 0x100016D50, symSize: 0x20 }
  - { offsetInCU: 0xCFE2, offset: 0x64E6F, size: 0x8, addend: 0x0, symName: __ZNSt3__122__compressed_pair_elemINS_9allocatorIP6CameraEELi1ELb1EEC2B7v160006ENS_18__default_init_tagE, symObjAddr: 0xF60, symBinAddr: 0x100016D70, symSize: 0x20 }
  - { offsetInCU: 0xD014, offset: 0x64EA1, size: 0x8, addend: 0x0, symName: __ZNSt3__19allocatorIP6CameraEC2B7v160006Ev, symObjAddr: 0xF80, symBinAddr: 0x100016D90, symSize: 0x20 }
  - { offsetInCU: 0xD03C, offset: 0x64EC9, size: 0x8, addend: 0x0, symName: __ZNSt3__116__non_trivial_ifILb1ENS_9allocatorIP6CameraEEEC2B7v160006Ev, symObjAddr: 0xFA0, symBinAddr: 0x100016DB0, symSize: 0x10 }
  - { offsetInCU: 0xD064, offset: 0x64EF1, size: 0x8, addend: 0x0, symName: __ZNSt3__16vectorIP11TerrainNodeNS_9allocatorIS2_EEEC2B7v160006Ev, symObjAddr: 0x1100, symBinAddr: 0x100016DC0, symSize: 0x60 }
  - { offsetInCU: 0xD08C, offset: 0x64F19, size: 0x8, addend: 0x0, symName: __ZNSt3__117__compressed_pairIPP11TerrainNodeNS_9allocatorIS2_EEEC1B7v160006IDnNS_18__default_init_tagEEEOT_OT0_, symObjAddr: 0x1160, symBinAddr: 0x100016E20, symSize: 0x30 }
  - { offsetInCU: 0xD0E2, offset: 0x64F6F, size: 0x8, addend: 0x0, symName: __ZNSt3__117__compressed_pairIPP11TerrainNodeNS_9allocatorIS2_EEEC2B7v160006IDnNS_18__default_init_tagEEEOT_OT0_, symObjAddr: 0x11A0, symBinAddr: 0x100016E60, symSize: 0x40 }
  - { offsetInCU: 0xD138, offset: 0x64FC5, size: 0x8, addend: 0x0, symName: __ZNSt3__122__compressed_pair_elemIPP11TerrainNodeLi0ELb0EEC2B7v160006IDnvEEOT_, symObjAddr: 0x11E0, symBinAddr: 0x100016EA0, symSize: 0x20 }
  - { offsetInCU: 0xD178, offset: 0x65005, size: 0x8, addend: 0x0, symName: __ZNSt3__122__compressed_pair_elemINS_9allocatorIP11TerrainNodeEELi1ELb1EEC2B7v160006ENS_18__default_init_tagE, symObjAddr: 0x1200, symBinAddr: 0x100016EC0, symSize: 0x20 }
  - { offsetInCU: 0xD1AA, offset: 0x65037, size: 0x8, addend: 0x0, symName: __ZNSt3__19allocatorIP11TerrainNodeEC2B7v160006Ev, symObjAddr: 0x1220, symBinAddr: 0x100016EE0, symSize: 0x20 }
  - { offsetInCU: 0xD1D2, offset: 0x6505F, size: 0x8, addend: 0x0, symName: __ZNSt3__116__non_trivial_ifILb1ENS_9allocatorIP11TerrainNodeEEEC2B7v160006Ev, symObjAddr: 0x1240, symBinAddr: 0x100016F00, symSize: 0x10 }
  - { offsetInCU: 0xD1FA, offset: 0x65087, size: 0x8, addend: 0x0, symName: __ZNSt3__16vectorIP6CameraNS_9allocatorIS2_EEED2B7v160006Ev, symObjAddr: 0x1250, symBinAddr: 0x100016F10, symSize: 0x40 }
  - { offsetInCU: 0xD222, offset: 0x650AF, size: 0x8, addend: 0x0, symName: __ZNSt3__16vectorIP6CameraNS_9allocatorIS2_EEE16__destroy_vectorC1ERS5_, symObjAddr: 0x1290, symBinAddr: 0x100016F50, symSize: 0x30 }
  - { offsetInCU: 0xD259, offset: 0x650E6, size: 0x8, addend: 0x0, symName: __ZNSt3__16vectorIP6CameraNS_9allocatorIS2_EEE16__destroy_vectorclB7v160006Ev, symObjAddr: 0x12C0, symBinAddr: 0x100016F80, symSize: 0x90 }
  - { offsetInCU: 0xD27D, offset: 0x6510A, size: 0x8, addend: 0x0, symName: __ZNSt3__16vectorIP6CameraNS_9allocatorIS2_EEE16__destroy_vectorC2ERS5_, symObjAddr: 0x1350, symBinAddr: 0x100017010, symSize: 0x20 }
  - { offsetInCU: 0xD2B4, offset: 0x65141, size: 0x8, addend: 0x0, symName: __ZNKSt3__16vectorIP6CameraNS_9allocatorIS2_EEE17__annotate_deleteB7v160006Ev, symObjAddr: 0x1370, symBinAddr: 0x100017030, symSize: 0xB0 }
  - { offsetInCU: 0xD2D8, offset: 0x65165, size: 0x8, addend: 0x0, symName: __ZNSt3__16vectorIP6CameraNS_9allocatorIS2_EEE7__clearB7v160006Ev, symObjAddr: 0x1430, symBinAddr: 0x1000170F0, symSize: 0x20 }
  - { offsetInCU: 0xD2FC, offset: 0x65189, size: 0x8, addend: 0x0, symName: __ZNSt3__116allocator_traitsINS_9allocatorIP6CameraEEE10deallocateB7v160006ERS4_PS3_m, symObjAddr: 0x1450, symBinAddr: 0x100017110, symSize: 0x30 }
  - { offsetInCU: 0xD33E, offset: 0x651CB, size: 0x8, addend: 0x0, symName: __ZNSt3__16vectorIP6CameraNS_9allocatorIS2_EEE7__allocB7v160006Ev, symObjAddr: 0x1480, symBinAddr: 0x100017140, symSize: 0x20 }
  - { offsetInCU: 0xD362, offset: 0x651EF, size: 0x8, addend: 0x0, symName: __ZNKSt3__16vectorIP6CameraNS_9allocatorIS2_EEE8capacityB7v160006Ev, symObjAddr: 0x14A0, symBinAddr: 0x100017160, symSize: 0x30 }
  - { offsetInCU: 0xD386, offset: 0x65213, size: 0x8, addend: 0x0, symName: __ZNKSt3__16vectorIP6CameraNS_9allocatorIS2_EEE31__annotate_contiguous_containerB7v160006EPKvS7_S7_S7_, symObjAddr: 0x14D0, symBinAddr: 0x100017190, symSize: 0x20 }
  - { offsetInCU: 0xD3DA, offset: 0x65267, size: 0x8, addend: 0x0, symName: __ZNKSt3__16vectorIP6CameraNS_9allocatorIS2_EEE4dataB7v160006Ev, symObjAddr: 0x14F0, symBinAddr: 0x1000171B0, symSize: 0x20 }
  - { offsetInCU: 0xD3FE, offset: 0x6528B, size: 0x8, addend: 0x0, symName: __ZNSt3__16vectorIP6CameraNS_9allocatorIS2_EEE22__base_destruct_at_endB7v160006EPS2_, symObjAddr: 0x1520, symBinAddr: 0x1000171E0, symSize: 0x80 }
  - { offsetInCU: 0xD440, offset: 0x652CD, size: 0x8, addend: 0x0, symName: __ZNSt3__116allocator_traitsINS_9allocatorIP6CameraEEE7destroyB7v160006IS3_vEEvRS4_PT_, symObjAddr: 0x15A0, symBinAddr: 0x100017260, symSize: 0x30 }
  - { offsetInCU: 0xD47D, offset: 0x6530A, size: 0x8, addend: 0x0, symName: __ZNSt3__19allocatorIP6CameraE7destroyB7v160006EPS2_, symObjAddr: 0x15D0, symBinAddr: 0x100017290, symSize: 0x10 }
  - { offsetInCU: 0xD4AF, offset: 0x6533C, size: 0x8, addend: 0x0, symName: __ZNSt3__19allocatorIP6CameraE10deallocateB7v160006EPS2_m, symObjAddr: 0x15E0, symBinAddr: 0x1000172A0, symSize: 0x40 }
  - { offsetInCU: 0xD4EF, offset: 0x6537C, size: 0x8, addend: 0x0, symName: __ZNSt3__117__compressed_pairIPP6CameraNS_9allocatorIS2_EEE6secondB7v160006Ev, symObjAddr: 0x1740, symBinAddr: 0x1000172E0, symSize: 0x20 }
  - { offsetInCU: 0xD513, offset: 0x653A0, size: 0x8, addend: 0x0, symName: __ZNSt3__122__compressed_pair_elemINS_9allocatorIP6CameraEELi1ELb1EE5__getB7v160006Ev, symObjAddr: 0x1760, symBinAddr: 0x100017300, symSize: 0x10 }
  - { offsetInCU: 0xD537, offset: 0x653C4, size: 0x8, addend: 0x0, symName: __ZNKSt3__16vectorIP6CameraNS_9allocatorIS2_EEE9__end_capB7v160006Ev, symObjAddr: 0x1770, symBinAddr: 0x100017310, symSize: 0x20 }
  - { offsetInCU: 0xD55B, offset: 0x653E8, size: 0x8, addend: 0x0, symName: __ZNKSt3__117__compressed_pairIPP6CameraNS_9allocatorIS2_EEE5firstB7v160006Ev, symObjAddr: 0x1790, symBinAddr: 0x100017330, symSize: 0x20 }
  - { offsetInCU: 0xD57F, offset: 0x6540C, size: 0x8, addend: 0x0, symName: __ZNKSt3__122__compressed_pair_elemIPP6CameraLi0ELb0EE5__getB7v160006Ev, symObjAddr: 0x17B0, symBinAddr: 0x100017350, symSize: 0x10 }
  - { offsetInCU: 0xD5A3, offset: 0x65430, size: 0x8, addend: 0x0, symName: __ZNSt3__16vectorIP11TerrainNodeNS_9allocatorIS2_EEED2B7v160006Ev, symObjAddr: 0x1C10, symBinAddr: 0x100017360, symSize: 0x40 }
  - { offsetInCU: 0xD5CB, offset: 0x65458, size: 0x8, addend: 0x0, symName: __ZNSt3__16vectorIP11TerrainNodeNS_9allocatorIS2_EEE16__destroy_vectorC1ERS5_, symObjAddr: 0x1C50, symBinAddr: 0x1000173A0, symSize: 0x30 }
  - { offsetInCU: 0xD602, offset: 0x6548F, size: 0x8, addend: 0x0, symName: __ZNSt3__16vectorIP11TerrainNodeNS_9allocatorIS2_EEE16__destroy_vectorclB7v160006Ev, symObjAddr: 0x1C80, symBinAddr: 0x1000173D0, symSize: 0x90 }
  - { offsetInCU: 0xD626, offset: 0x654B3, size: 0x8, addend: 0x0, symName: __ZNSt3__16vectorIP11TerrainNodeNS_9allocatorIS2_EEE16__destroy_vectorC2ERS5_, symObjAddr: 0x1D10, symBinAddr: 0x100017460, symSize: 0x20 }
  - { offsetInCU: 0xD65D, offset: 0x654EA, size: 0x8, addend: 0x0, symName: __ZNKSt3__16vectorIP11TerrainNodeNS_9allocatorIS2_EEE17__annotate_deleteB7v160006Ev, symObjAddr: 0x1D30, symBinAddr: 0x100017480, symSize: 0xB0 }
  - { offsetInCU: 0xD681, offset: 0x6550E, size: 0x8, addend: 0x0, symName: __ZNSt3__16vectorIP11TerrainNodeNS_9allocatorIS2_EEE7__clearB7v160006Ev, symObjAddr: 0x1DF0, symBinAddr: 0x100017540, symSize: 0x20 }
  - { offsetInCU: 0xD6A5, offset: 0x65532, size: 0x8, addend: 0x0, symName: __ZNSt3__116allocator_traitsINS_9allocatorIP11TerrainNodeEEE10deallocateB7v160006ERS4_PS3_m, symObjAddr: 0x1E10, symBinAddr: 0x100017560, symSize: 0x30 }
  - { offsetInCU: 0xD6E7, offset: 0x65574, size: 0x8, addend: 0x0, symName: __ZNSt3__16vectorIP11TerrainNodeNS_9allocatorIS2_EEE7__allocB7v160006Ev, symObjAddr: 0x1E40, symBinAddr: 0x100017590, symSize: 0x20 }
  - { offsetInCU: 0xD70B, offset: 0x65598, size: 0x8, addend: 0x0, symName: __ZNKSt3__16vectorIP11TerrainNodeNS_9allocatorIS2_EEE8capacityB7v160006Ev, symObjAddr: 0x1E60, symBinAddr: 0x1000175B0, symSize: 0x30 }
  - { offsetInCU: 0xD72F, offset: 0x655BC, size: 0x8, addend: 0x0, symName: __ZNKSt3__16vectorIP11TerrainNodeNS_9allocatorIS2_EEE31__annotate_contiguous_containerB7v160006EPKvS7_S7_S7_, symObjAddr: 0x1E90, symBinAddr: 0x1000175E0, symSize: 0x20 }
  - { offsetInCU: 0xD783, offset: 0x65610, size: 0x8, addend: 0x0, symName: __ZNKSt3__16vectorIP11TerrainNodeNS_9allocatorIS2_EEE4dataB7v160006Ev, symObjAddr: 0x1EB0, symBinAddr: 0x100017600, symSize: 0x20 }
  - { offsetInCU: 0xD7A7, offset: 0x65634, size: 0x8, addend: 0x0, symName: __ZNSt3__16vectorIP11TerrainNodeNS_9allocatorIS2_EEE22__base_destruct_at_endB7v160006EPS2_, symObjAddr: 0x1EE0, symBinAddr: 0x100017630, symSize: 0x80 }
  - { offsetInCU: 0xD7E9, offset: 0x65676, size: 0x8, addend: 0x0, symName: __ZNSt3__116allocator_traitsINS_9allocatorIP11TerrainNodeEEE7destroyB7v160006IS3_vEEvRS4_PT_, symObjAddr: 0x1F60, symBinAddr: 0x1000176B0, symSize: 0x30 }
  - { offsetInCU: 0xD826, offset: 0x656B3, size: 0x8, addend: 0x0, symName: __ZNSt3__19allocatorIP11TerrainNodeE7destroyB7v160006EPS2_, symObjAddr: 0x1F90, symBinAddr: 0x1000176E0, symSize: 0x10 }
  - { offsetInCU: 0xD858, offset: 0x656E5, size: 0x8, addend: 0x0, symName: __ZNSt3__19allocatorIP11TerrainNodeE10deallocateB7v160006EPS2_m, symObjAddr: 0x1FA0, symBinAddr: 0x1000176F0, symSize: 0x40 }
  - { offsetInCU: 0xD898, offset: 0x65725, size: 0x8, addend: 0x0, symName: __ZNSt3__117__compressed_pairIPP11TerrainNodeNS_9allocatorIS2_EEE6secondB7v160006Ev, symObjAddr: 0x1FE0, symBinAddr: 0x100017730, symSize: 0x20 }
  - { offsetInCU: 0xD8BC, offset: 0x65749, size: 0x8, addend: 0x0, symName: __ZNSt3__122__compressed_pair_elemINS_9allocatorIP11TerrainNodeEELi1ELb1EE5__getB7v160006Ev, symObjAddr: 0x2000, symBinAddr: 0x100017750, symSize: 0x10 }
  - { offsetInCU: 0xD8E0, offset: 0x6576D, size: 0x8, addend: 0x0, symName: __ZNKSt3__16vectorIP11TerrainNodeNS_9allocatorIS2_EEE9__end_capB7v160006Ev, symObjAddr: 0x2010, symBinAddr: 0x100017760, symSize: 0x20 }
  - { offsetInCU: 0xD904, offset: 0x65791, size: 0x8, addend: 0x0, symName: __ZNKSt3__117__compressed_pairIPP11TerrainNodeNS_9allocatorIS2_EEE5firstB7v160006Ev, symObjAddr: 0x2030, symBinAddr: 0x100017780, symSize: 0x20 }
  - { offsetInCU: 0xD928, offset: 0x657B5, size: 0x8, addend: 0x0, symName: __ZNKSt3__122__compressed_pair_elemIPP11TerrainNodeLi0ELb0EE5__getB7v160006Ev, symObjAddr: 0x2050, symBinAddr: 0x1000177A0, symSize: 0x10 }
  - { offsetInCU: 0xD94C, offset: 0x657D9, size: 0x8, addend: 0x0, symName: __ZNSt3__16vectorIP6CameraNS_9allocatorIS2_EEE9__end_capB7v160006Ev, symObjAddr: 0x2060, symBinAddr: 0x1000177B0, symSize: 0x20 }
  - { offsetInCU: 0xD970, offset: 0x657FD, size: 0x8, addend: 0x0, symName: __ZNSt3__16vectorIP6CameraNS_9allocatorIS2_EEE22__construct_one_at_endB7v160006IJRKS2_EEEvDpOT_, symObjAddr: 0x2080, symBinAddr: 0x1000177D0, symSize: 0x90 }
  - { offsetInCU: 0xD9BC, offset: 0x65849, size: 0x8, addend: 0x0, symName: __ZNSt3__16vectorIP6CameraNS_9allocatorIS2_EEE21__push_back_slow_pathIRKS2_EEvOT_, symObjAddr: 0x2110, symBinAddr: 0x100017860, symSize: 0xD0 }
  - { offsetInCU: 0xDA1A, offset: 0x658A7, size: 0x8, addend: 0x0, symName: __ZNSt3__117__compressed_pairIPP6CameraNS_9allocatorIS2_EEE5firstB7v160006Ev, symObjAddr: 0x21E0, symBinAddr: 0x100017930, symSize: 0x20 }
  - { offsetInCU: 0xDA3E, offset: 0x658CB, size: 0x8, addend: 0x0, symName: __ZNSt3__122__compressed_pair_elemIPP6CameraLi0ELb0EE5__getB7v160006Ev, symObjAddr: 0x2200, symBinAddr: 0x100017950, symSize: 0x10 }
  - { offsetInCU: 0xDA7B, offset: 0x65908, size: 0x8, addend: 0x0, symName: __ZNSt3__16vectorIP6CameraNS_9allocatorIS2_EEE21_ConstructTransactionC1B7v160006ERS5_m, symObjAddr: 0x2210, symBinAddr: 0x100017960, symSize: 0x30 }
  - { offsetInCU: 0xDAC1, offset: 0x6594E, size: 0x8, addend: 0x0, symName: __ZNSt3__116allocator_traitsINS_9allocatorIP6CameraEEE9constructB7v160006IS3_JRKS3_EvEEvRS4_PT_DpOT0_, symObjAddr: 0x2240, symBinAddr: 0x100017990, symSize: 0x30 }
  - { offsetInCU: 0xDB18, offset: 0x659A5, size: 0x8, addend: 0x0, symName: __ZNSt3__16vectorIP6CameraNS_9allocatorIS2_EEE21_ConstructTransactionD1B7v160006Ev, symObjAddr: 0x2270, symBinAddr: 0x1000179C0, symSize: 0x20 }
  - { offsetInCU: 0xDB40, offset: 0x659CD, size: 0x8, addend: 0x0, symName: __ZNSt3__16vectorIP6CameraNS_9allocatorIS2_EEE21_ConstructTransactionC2B7v160006ERS5_m, symObjAddr: 0x2290, symBinAddr: 0x1000179E0, symSize: 0x40 }
  - { offsetInCU: 0xDB86, offset: 0x65A13, size: 0x8, addend: 0x0, symName: __ZNSt3__19allocatorIP6CameraE9constructB7v160006IS2_JRKS2_EEEvPT_DpOT0_, symObjAddr: 0x22D0, symBinAddr: 0x100017A20, symSize: 0x20 }
  - { offsetInCU: 0xDBDA, offset: 0x65A67, size: 0x8, addend: 0x0, symName: __ZNSt3__16vectorIP6CameraNS_9allocatorIS2_EEE21_ConstructTransactionD2B7v160006Ev, symObjAddr: 0x22F0, symBinAddr: 0x100017A40, symSize: 0x20 }
  - { offsetInCU: 0xDC01, offset: 0x65A8E, size: 0x8, addend: 0x0, symName: __ZNKSt3__16vectorIP6CameraNS_9allocatorIS2_EEE11__recommendB7v160006Em, symObjAddr: 0x2310, symBinAddr: 0x100017A60, symSize: 0xA0 }
  - { offsetInCU: 0xDC56, offset: 0x65AE3, size: 0x8, addend: 0x0, symName: __ZNSt3__114__split_bufferIP6CameraRNS_9allocatorIS2_EEEC1EmmS5_, symObjAddr: 0x23B0, symBinAddr: 0x100017B00, symSize: 0x40 }
  - { offsetInCU: 0xDCAB, offset: 0x65B38, size: 0x8, addend: 0x0, symName: __ZNSt3__114__split_bufferIP6CameraRNS_9allocatorIS2_EEED1Ev, symObjAddr: 0x2520, symBinAddr: 0x100017C70, symSize: 0x20 }
  - { offsetInCU: 0xDCD5, offset: 0x65B62, size: 0x8, addend: 0x0, symName: __ZNKSt3__16vectorIP6CameraNS_9allocatorIS2_EEE8max_sizeEv, symObjAddr: 0x2540, symBinAddr: 0x100017C90, symSize: 0x60 }
  - { offsetInCU: 0xDCFD, offset: 0x65B8A, size: 0x8, addend: 0x0, symName: __ZNKSt3__16vectorIP6CameraNS_9allocatorIS2_EEE20__throw_length_errorB7v160006Ev, symObjAddr: 0x25A0, symBinAddr: 0x100017CF0, symSize: 0x20 }
  - { offsetInCU: 0xDD2B, offset: 0x65BB8, size: 0x8, addend: 0x0, symName: __ZNSt3__116allocator_traitsINS_9allocatorIP6CameraEEE8max_sizeB7v160006IS4_vEEmRKS4_, symObjAddr: 0x2620, symBinAddr: 0x100017D10, symSize: 0x20 }
  - { offsetInCU: 0xDD59, offset: 0x65BE6, size: 0x8, addend: 0x0, symName: __ZNKSt3__16vectorIP6CameraNS_9allocatorIS2_EEE7__allocB7v160006Ev, symObjAddr: 0x2640, symBinAddr: 0x100017D30, symSize: 0x20 }
  - { offsetInCU: 0xDD7D, offset: 0x65C0A, size: 0x8, addend: 0x0, symName: __ZNKSt3__19allocatorIP6CameraE8max_sizeB7v160006Ev, symObjAddr: 0x26F0, symBinAddr: 0x100017D50, symSize: 0x20 }
  - { offsetInCU: 0xDDA1, offset: 0x65C2E, size: 0x8, addend: 0x0, symName: __ZNKSt3__117__compressed_pairIPP6CameraNS_9allocatorIS2_EEE6secondB7v160006Ev, symObjAddr: 0x2710, symBinAddr: 0x100017D70, symSize: 0x20 }
  - { offsetInCU: 0xDDC5, offset: 0x65C52, size: 0x8, addend: 0x0, symName: __ZNKSt3__122__compressed_pair_elemINS_9allocatorIP6CameraEELi1ELb1EE5__getB7v160006Ev, symObjAddr: 0x2730, symBinAddr: 0x100017D90, symSize: 0x10 }
  - { offsetInCU: 0xDDE9, offset: 0x65C76, size: 0x8, addend: 0x0, symName: __ZNSt3__114__split_bufferIP6CameraRNS_9allocatorIS2_EEEC2EmmS5_, symObjAddr: 0x2880, symBinAddr: 0x100017DA0, symSize: 0xD0 }
  - { offsetInCU: 0xDE5C, offset: 0x65CE9, size: 0x8, addend: 0x0, symName: __ZNSt3__117__compressed_pairIPP6CameraRNS_9allocatorIS2_EEEC1B7v160006IDnS6_EEOT_OT0_, symObjAddr: 0x2950, symBinAddr: 0x100017E70, symSize: 0x30 }
  - { offsetInCU: 0xDEB2, offset: 0x65D3F, size: 0x8, addend: 0x0, symName: __ZNSt3__114__split_bufferIP6CameraRNS_9allocatorIS2_EEE7__allocB7v160006Ev, symObjAddr: 0x29C0, symBinAddr: 0x100017EE0, symSize: 0x20 }
  - { offsetInCU: 0xDED6, offset: 0x65D63, size: 0x8, addend: 0x0, symName: __ZNSt3__114__split_bufferIP6CameraRNS_9allocatorIS2_EEE9__end_capB7v160006Ev, symObjAddr: 0x29E0, symBinAddr: 0x100017F00, symSize: 0x20 }
  - { offsetInCU: 0xDEFA, offset: 0x65D87, size: 0x8, addend: 0x0, symName: __ZNSt3__117__compressed_pairIPP6CameraRNS_9allocatorIS2_EEEC2B7v160006IDnS6_EEOT_OT0_, symObjAddr: 0x2A00, symBinAddr: 0x100017F20, symSize: 0x40 }
  - { offsetInCU: 0xDF50, offset: 0x65DDD, size: 0x8, addend: 0x0, symName: __ZNSt3__122__compressed_pair_elemIRNS_9allocatorIP6CameraEELi1ELb0EEC2B7v160006IS5_vEEOT_, symObjAddr: 0x2A40, symBinAddr: 0x100017F60, symSize: 0x20 }
  - { offsetInCU: 0xDF90, offset: 0x65E1D, size: 0x8, addend: 0x0, symName: __ZNSt3__19allocatorIP6CameraE8allocateB7v160006Em, symObjAddr: 0x2A60, symBinAddr: 0x100017F80, symSize: 0x50 }
  - { offsetInCU: 0xDFC2, offset: 0x65E4F, size: 0x8, addend: 0x0, symName: __ZNSt3__117__compressed_pairIPP6CameraRNS_9allocatorIS2_EEE6secondB7v160006Ev, symObjAddr: 0x2BA0, symBinAddr: 0x100017FD0, symSize: 0x20 }
  - { offsetInCU: 0xDFE6, offset: 0x65E73, size: 0x8, addend: 0x0, symName: __ZNSt3__122__compressed_pair_elemIRNS_9allocatorIP6CameraEELi1ELb0EE5__getB7v160006Ev, symObjAddr: 0x2BC0, symBinAddr: 0x100017FF0, symSize: 0x20 }
  - { offsetInCU: 0xE00A, offset: 0x65E97, size: 0x8, addend: 0x0, symName: __ZNSt3__117__compressed_pairIPP6CameraRNS_9allocatorIS2_EEE5firstB7v160006Ev, symObjAddr: 0x2BE0, symBinAddr: 0x100018010, symSize: 0x20 }
  - { offsetInCU: 0xE02E, offset: 0x65EBB, size: 0x8, addend: 0x0, symName: __ZNSt3__116reverse_iteratorIPP6CameraEC1B7v160006ES3_, symObjAddr: 0x2C70, symBinAddr: 0x1000180A0, symSize: 0x30 }
  - { offsetInCU: 0xE064, offset: 0x65EF1, size: 0x8, addend: 0x0, symName: __ZNKSt3__116reverse_iteratorIPP6CameraE4baseB7v160006Ev, symObjAddr: 0x2CA0, symBinAddr: 0x1000180D0, symSize: 0x20 }
  - { offsetInCU: 0xE088, offset: 0x65F15, size: 0x8, addend: 0x0, symName: __ZNKSt3__16vectorIP6CameraNS_9allocatorIS2_EEE14__annotate_newB7v160006Em, symObjAddr: 0x2D00, symBinAddr: 0x100018130, symSize: 0xB0 }
  - { offsetInCU: 0xE0DE, offset: 0x65F6B, size: 0x8, addend: 0x0, symName: __ZNKSt3__111__move_loopINS_17_ClassicAlgPolicyEEclB7v160006INS_16reverse_iteratorIPP6CameraEES8_S8_EENS_4pairIT_T1_EESA_T0_SB_, symObjAddr: 0x3200, symBinAddr: 0x100018630, symSize: 0xA0 }
  - { offsetInCU: 0xE14C, offset: 0x65FD9, size: 0x8, addend: 0x0, symName: __ZNSt3__18_IterOpsINS_17_ClassicAlgPolicyEE11__iter_moveB7v160006IRNS_16reverse_iteratorIPP6CameraEEEENS_9enable_ifIXsr12is_referenceIDTdeclsr3stdE7declvalIRT_EEEEE5valueEDTclsr3stdE4movedeclsr3stdE7declvalISC_EEEEE4typeEOSB_, symObjAddr: 0x3420, symBinAddr: 0x100018850, symSize: 0x20 }
  - { offsetInCU: 0xE178, offset: 0x66005, size: 0x8, addend: 0x0, symName: __ZNKSt3__116reverse_iteratorIPP6CameraEdeB7v160006Ev, symObjAddr: 0x3440, symBinAddr: 0x100018870, symSize: 0x30 }
  - { offsetInCU: 0xE1AB, offset: 0x66038, size: 0x8, addend: 0x0, symName: __ZNSt3__116reverse_iteratorIPP6CameraEppB7v160006Ev, symObjAddr: 0x3470, symBinAddr: 0x1000188A0, symSize: 0x20 }
  - { offsetInCU: 0xE1CF, offset: 0x6605C, size: 0x8, addend: 0x0, symName: __ZNSt3__18_IterOpsINS_17_ClassicAlgPolicyEE25__validate_iter_referenceB7v160006IRNS_16reverse_iteratorIPP6CameraEEEEvv, symObjAddr: 0x3490, symBinAddr: 0x1000188C0, symSize: 0x10 }
  - { offsetInCU: 0xE1ED, offset: 0x6607A, size: 0x8, addend: 0x0, symName: __ZNSt3__118__unwrap_iter_implINS_16reverse_iteratorIPP6CameraEELb0EE8__unwrapB7v160006ES5_, symObjAddr: 0x34A0, symBinAddr: 0x1000188D0, symSize: 0x20 }
  - { offsetInCU: 0xE215, offset: 0x660A2, size: 0x8, addend: 0x0, symName: __ZNSt3__14pairINS_16reverse_iteratorIPP6CameraEES5_EC1B7v160006IS5_S5_LPv0EEEOT_OT0_, symObjAddr: 0x34C0, symBinAddr: 0x1000188F0, symSize: 0x30 }
  - { offsetInCU: 0xE272, offset: 0x660FF, size: 0x8, addend: 0x0, symName: __ZNSt3__14pairINS_16reverse_iteratorIPP6CameraEES5_EC2B7v160006IS5_S5_LPv0EEEOT_OT0_, symObjAddr: 0x34F0, symBinAddr: 0x100018920, symSize: 0x40 }
  - { offsetInCU: 0xE2CF, offset: 0x6615C, size: 0x8, addend: 0x0, symName: __ZNSt3__118__unwrap_iter_implINS_16reverse_iteratorIPP6CameraEELb0EE8__rewrapB7v160006ES5_S5_, symObjAddr: 0x3530, symBinAddr: 0x100018960, symSize: 0x30 }
  - { offsetInCU: 0xE2FC, offset: 0x66189, size: 0x8, addend: 0x0, symName: __ZNSt3__116reverse_iteratorIPP6CameraEC2B7v160006ES3_, symObjAddr: 0x3560, symBinAddr: 0x100018990, symSize: 0x30 }
  - { offsetInCU: 0xE332, offset: 0x661BF, size: 0x8, addend: 0x0, symName: __ZNSt3__114__split_bufferIP6CameraRNS_9allocatorIS2_EEED2Ev, symObjAddr: 0x3590, symBinAddr: 0x1000189C0, symSize: 0x70 }
  - { offsetInCU: 0xE35D, offset: 0x661EA, size: 0x8, addend: 0x0, symName: __ZNSt3__114__split_bufferIP6CameraRNS_9allocatorIS2_EEE5clearB7v160006Ev, symObjAddr: 0x3600, symBinAddr: 0x100018A30, symSize: 0x20 }
  - { offsetInCU: 0xE381, offset: 0x6620E, size: 0x8, addend: 0x0, symName: __ZNKSt3__114__split_bufferIP6CameraRNS_9allocatorIS2_EEE8capacityB7v160006Ev, symObjAddr: 0x3620, symBinAddr: 0x100018A50, symSize: 0x30 }
  - { offsetInCU: 0xE3A5, offset: 0x66232, size: 0x8, addend: 0x0, symName: __ZNSt3__114__split_bufferIP6CameraRNS_9allocatorIS2_EEE17__destruct_at_endB7v160006EPS2_, symObjAddr: 0x3650, symBinAddr: 0x100018A80, symSize: 0x30 }
  - { offsetInCU: 0xE3D6, offset: 0x66263, size: 0x8, addend: 0x0, symName: __ZNSt3__114__split_bufferIP6CameraRNS_9allocatorIS2_EEE17__destruct_at_endB7v160006EPS2_NS_17integral_constantIbLb0EEE, symObjAddr: 0x3680, symBinAddr: 0x100018AB0, symSize: 0x80 }
  - { offsetInCU: 0xE416, offset: 0x662A3, size: 0x8, addend: 0x0, symName: __ZNKSt3__114__split_bufferIP6CameraRNS_9allocatorIS2_EEE9__end_capB7v160006Ev, symObjAddr: 0x3700, symBinAddr: 0x100018B30, symSize: 0x20 }
  - { offsetInCU: 0xE43A, offset: 0x662C7, size: 0x8, addend: 0x0, symName: __ZNKSt3__117__compressed_pairIPP6CameraRNS_9allocatorIS2_EEE5firstB7v160006Ev, symObjAddr: 0x3720, symBinAddr: 0x100018B50, symSize: 0x20 }
  - { offsetInCU: 0xE45E, offset: 0x662EB, size: 0x8, addend: 0x0, symName: __ZNSt3__114numeric_limitsIfE7epsilonB7v160006Ev, symObjAddr: 0x3960, symBinAddr: 0x100018D90, symSize: 0x10 }
  - { offsetInCU: 0xE471, offset: 0x662FE, size: 0x8, addend: 0x0, symName: __Z3tanB7v160006f, symObjAddr: 0x3970, symBinAddr: 0x100018DA0, symSize: 0x20 }
  - { offsetInCU: 0xE4A0, offset: 0x6632D, size: 0x8, addend: 0x0, symName: __ZN3glm6detail11compute_absIfLb1EE4callEf, symObjAddr: 0x3B10, symBinAddr: 0x100018DC0, symSize: 0x50 }
  - { offsetInCU: 0xE4C3, offset: 0x66350, size: 0x8, addend: 0x0, symName: __ZNSt3__123__libcpp_numeric_limitsIfLb1EE7epsilonB7v160006Ev, symObjAddr: 0x3B60, symBinAddr: 0x100018E10, symSize: 0x10 }
  - { offsetInCU: 0xE518, offset: 0x663A5, size: 0x8, addend: 0x0, symName: __ZNSt3__16vectorIP11TerrainNodeNS_9allocatorIS2_EEE9__end_capB7v160006Ev, symObjAddr: 0x4F50, symBinAddr: 0x100018E20, symSize: 0x20 }
  - { offsetInCU: 0xE53C, offset: 0x663C9, size: 0x8, addend: 0x0, symName: __ZNSt3__16vectorIP11TerrainNodeNS_9allocatorIS2_EEE22__construct_one_at_endB7v160006IJRKS2_EEEvDpOT_, symObjAddr: 0x4F70, symBinAddr: 0x100018E40, symSize: 0x90 }
  - { offsetInCU: 0xE588, offset: 0x66415, size: 0x8, addend: 0x0, symName: __ZNSt3__16vectorIP11TerrainNodeNS_9allocatorIS2_EEE21__push_back_slow_pathIRKS2_EEvOT_, symObjAddr: 0x5000, symBinAddr: 0x100018ED0, symSize: 0xD0 }
  - { offsetInCU: 0xE5E6, offset: 0x66473, size: 0x8, addend: 0x0, symName: __ZNSt3__117__compressed_pairIPP11TerrainNodeNS_9allocatorIS2_EEE5firstB7v160006Ev, symObjAddr: 0x50D0, symBinAddr: 0x100018FA0, symSize: 0x20 }
  - { offsetInCU: 0xE60A, offset: 0x66497, size: 0x8, addend: 0x0, symName: __ZNSt3__122__compressed_pair_elemIPP11TerrainNodeLi0ELb0EE5__getB7v160006Ev, symObjAddr: 0x50F0, symBinAddr: 0x100018FC0, symSize: 0x10 }
  - { offsetInCU: 0xE647, offset: 0x664D4, size: 0x8, addend: 0x0, symName: __ZNSt3__16vectorIP11TerrainNodeNS_9allocatorIS2_EEE21_ConstructTransactionC1B7v160006ERS5_m, symObjAddr: 0x5100, symBinAddr: 0x100018FD0, symSize: 0x30 }
  - { offsetInCU: 0xE68D, offset: 0x6651A, size: 0x8, addend: 0x0, symName: __ZNSt3__116allocator_traitsINS_9allocatorIP11TerrainNodeEEE9constructB7v160006IS3_JRKS3_EvEEvRS4_PT_DpOT0_, symObjAddr: 0x5130, symBinAddr: 0x100019000, symSize: 0x30 }
  - { offsetInCU: 0xE6E4, offset: 0x66571, size: 0x8, addend: 0x0, symName: __ZNSt3__16vectorIP11TerrainNodeNS_9allocatorIS2_EEE21_ConstructTransactionD1B7v160006Ev, symObjAddr: 0x5160, symBinAddr: 0x100019030, symSize: 0x20 }
  - { offsetInCU: 0xE70C, offset: 0x66599, size: 0x8, addend: 0x0, symName: __ZNSt3__16vectorIP11TerrainNodeNS_9allocatorIS2_EEE21_ConstructTransactionC2B7v160006ERS5_m, symObjAddr: 0x5180, symBinAddr: 0x100019050, symSize: 0x40 }
  - { offsetInCU: 0xE752, offset: 0x665DF, size: 0x8, addend: 0x0, symName: __ZNSt3__19allocatorIP11TerrainNodeE9constructB7v160006IS2_JRKS2_EEEvPT_DpOT0_, symObjAddr: 0x51C0, symBinAddr: 0x100019090, symSize: 0x20 }
  - { offsetInCU: 0xE7A6, offset: 0x66633, size: 0x8, addend: 0x0, symName: __ZNSt3__16vectorIP11TerrainNodeNS_9allocatorIS2_EEE21_ConstructTransactionD2B7v160006Ev, symObjAddr: 0x51E0, symBinAddr: 0x1000190B0, symSize: 0x20 }
  - { offsetInCU: 0xE7CD, offset: 0x6665A, size: 0x8, addend: 0x0, symName: __ZNKSt3__16vectorIP11TerrainNodeNS_9allocatorIS2_EEE11__recommendB7v160006Em, symObjAddr: 0x5200, symBinAddr: 0x1000190D0, symSize: 0xA0 }
  - { offsetInCU: 0xE822, offset: 0x666AF, size: 0x8, addend: 0x0, symName: __ZNSt3__114__split_bufferIP11TerrainNodeRNS_9allocatorIS2_EEEC1EmmS5_, symObjAddr: 0x52A0, symBinAddr: 0x100019170, symSize: 0x40 }
  - { offsetInCU: 0xE877, offset: 0x66704, size: 0x8, addend: 0x0, symName: __ZNSt3__114__split_bufferIP11TerrainNodeRNS_9allocatorIS2_EEED1Ev, symObjAddr: 0x5410, symBinAddr: 0x1000192E0, symSize: 0x20 }
  - { offsetInCU: 0xE8A1, offset: 0x6672E, size: 0x8, addend: 0x0, symName: __ZNKSt3__16vectorIP11TerrainNodeNS_9allocatorIS2_EEE8max_sizeEv, symObjAddr: 0x5430, symBinAddr: 0x100019300, symSize: 0x60 }
  - { offsetInCU: 0xE8C9, offset: 0x66756, size: 0x8, addend: 0x0, symName: __ZNKSt3__16vectorIP11TerrainNodeNS_9allocatorIS2_EEE20__throw_length_errorB7v160006Ev, symObjAddr: 0x5490, symBinAddr: 0x100019360, symSize: 0x20 }
  - { offsetInCU: 0xE8F7, offset: 0x66784, size: 0x8, addend: 0x0, symName: __ZNSt3__116allocator_traitsINS_9allocatorIP11TerrainNodeEEE8max_sizeB7v160006IS4_vEEmRKS4_, symObjAddr: 0x54B0, symBinAddr: 0x100019380, symSize: 0x20 }
  - { offsetInCU: 0xE925, offset: 0x667B2, size: 0x8, addend: 0x0, symName: __ZNKSt3__16vectorIP11TerrainNodeNS_9allocatorIS2_EEE7__allocB7v160006Ev, symObjAddr: 0x54D0, symBinAddr: 0x1000193A0, symSize: 0x20 }
  - { offsetInCU: 0xE949, offset: 0x667D6, size: 0x8, addend: 0x0, symName: __ZNKSt3__19allocatorIP11TerrainNodeE8max_sizeB7v160006Ev, symObjAddr: 0x54F0, symBinAddr: 0x1000193C0, symSize: 0x20 }
  - { offsetInCU: 0xE96D, offset: 0x667FA, size: 0x8, addend: 0x0, symName: __ZNKSt3__117__compressed_pairIPP11TerrainNodeNS_9allocatorIS2_EEE6secondB7v160006Ev, symObjAddr: 0x5510, symBinAddr: 0x1000193E0, symSize: 0x20 }
  - { offsetInCU: 0xE991, offset: 0x6681E, size: 0x8, addend: 0x0, symName: __ZNKSt3__122__compressed_pair_elemINS_9allocatorIP11TerrainNodeEELi1ELb1EE5__getB7v160006Ev, symObjAddr: 0x5530, symBinAddr: 0x100019400, symSize: 0x10 }
  - { offsetInCU: 0xE9B5, offset: 0x66842, size: 0x8, addend: 0x0, symName: __ZNSt3__114__split_bufferIP11TerrainNodeRNS_9allocatorIS2_EEEC2EmmS5_, symObjAddr: 0x5540, symBinAddr: 0x100019410, symSize: 0xD0 }
  - { offsetInCU: 0xEA28, offset: 0x668B5, size: 0x8, addend: 0x0, symName: __ZNSt3__117__compressed_pairIPP11TerrainNodeRNS_9allocatorIS2_EEEC1B7v160006IDnS6_EEOT_OT0_, symObjAddr: 0x5610, symBinAddr: 0x1000194E0, symSize: 0x30 }
  - { offsetInCU: 0xEA7E, offset: 0x6690B, size: 0x8, addend: 0x0, symName: __ZNSt3__114__split_bufferIP11TerrainNodeRNS_9allocatorIS2_EEE7__allocB7v160006Ev, symObjAddr: 0x5680, symBinAddr: 0x100019550, symSize: 0x20 }
  - { offsetInCU: 0xEAA2, offset: 0x6692F, size: 0x8, addend: 0x0, symName: __ZNSt3__114__split_bufferIP11TerrainNodeRNS_9allocatorIS2_EEE9__end_capB7v160006Ev, symObjAddr: 0x56A0, symBinAddr: 0x100019570, symSize: 0x20 }
  - { offsetInCU: 0xEAC6, offset: 0x66953, size: 0x8, addend: 0x0, symName: __ZNSt3__117__compressed_pairIPP11TerrainNodeRNS_9allocatorIS2_EEEC2B7v160006IDnS6_EEOT_OT0_, symObjAddr: 0x56C0, symBinAddr: 0x100019590, symSize: 0x40 }
  - { offsetInCU: 0xEB1C, offset: 0x669A9, size: 0x8, addend: 0x0, symName: __ZNSt3__122__compressed_pair_elemIRNS_9allocatorIP11TerrainNodeEELi1ELb0EEC2B7v160006IS5_vEEOT_, symObjAddr: 0x5700, symBinAddr: 0x1000195D0, symSize: 0x20 }
  - { offsetInCU: 0xEB5C, offset: 0x669E9, size: 0x8, addend: 0x0, symName: __ZNSt3__19allocatorIP11TerrainNodeE8allocateB7v160006Em, symObjAddr: 0x5720, symBinAddr: 0x1000195F0, symSize: 0x50 }
  - { offsetInCU: 0xEB8E, offset: 0x66A1B, size: 0x8, addend: 0x0, symName: __ZNSt3__117__compressed_pairIPP11TerrainNodeRNS_9allocatorIS2_EEE6secondB7v160006Ev, symObjAddr: 0x5770, symBinAddr: 0x100019640, symSize: 0x20 }
  - { offsetInCU: 0xEBB2, offset: 0x66A3F, size: 0x8, addend: 0x0, symName: __ZNSt3__122__compressed_pair_elemIRNS_9allocatorIP11TerrainNodeEELi1ELb0EE5__getB7v160006Ev, symObjAddr: 0x5790, symBinAddr: 0x100019660, symSize: 0x20 }
  - { offsetInCU: 0xEBD6, offset: 0x66A63, size: 0x8, addend: 0x0, symName: __ZNSt3__117__compressed_pairIPP11TerrainNodeRNS_9allocatorIS2_EEE5firstB7v160006Ev, symObjAddr: 0x57B0, symBinAddr: 0x100019680, symSize: 0x20 }
  - { offsetInCU: 0xEBFA, offset: 0x66A87, size: 0x8, addend: 0x0, symName: __ZNSt3__116reverse_iteratorIPP11TerrainNodeEC1B7v160006ES3_, symObjAddr: 0x5840, symBinAddr: 0x100019710, symSize: 0x30 }
  - { offsetInCU: 0xEC30, offset: 0x66ABD, size: 0x8, addend: 0x0, symName: __ZNKSt3__116reverse_iteratorIPP11TerrainNodeE4baseB7v160006Ev, symObjAddr: 0x5870, symBinAddr: 0x100019740, symSize: 0x20 }
  - { offsetInCU: 0xEC54, offset: 0x66AE1, size: 0x8, addend: 0x0, symName: __ZNKSt3__16vectorIP11TerrainNodeNS_9allocatorIS2_EEE14__annotate_newB7v160006Em, symObjAddr: 0x58D0, symBinAddr: 0x1000197A0, symSize: 0xB0 }
  - { offsetInCU: 0xECA0, offset: 0x66B2D, size: 0x8, addend: 0x0, symName: __ZNKSt3__111__move_loopINS_17_ClassicAlgPolicyEEclB7v160006INS_16reverse_iteratorIPP11TerrainNodeEES8_S8_EENS_4pairIT_T1_EESA_T0_SB_, symObjAddr: 0x5DD0, symBinAddr: 0x100019CA0, symSize: 0xA0 }
  - { offsetInCU: 0xED0E, offset: 0x66B9B, size: 0x8, addend: 0x0, symName: __ZNSt3__18_IterOpsINS_17_ClassicAlgPolicyEE11__iter_moveB7v160006IRNS_16reverse_iteratorIPP11TerrainNodeEEEENS_9enable_ifIXsr12is_referenceIDTdeclsr3stdE7declvalIRT_EEEEE5valueEDTclsr3stdE4movedeclsr3stdE7declvalISC_EEEEE4typeEOSB_, symObjAddr: 0x5FF0, symBinAddr: 0x100019EC0, symSize: 0x20 }
  - { offsetInCU: 0xED3A, offset: 0x66BC7, size: 0x8, addend: 0x0, symName: __ZNKSt3__116reverse_iteratorIPP11TerrainNodeEdeB7v160006Ev, symObjAddr: 0x6010, symBinAddr: 0x100019EE0, symSize: 0x30 }
  - { offsetInCU: 0xED6D, offset: 0x66BFA, size: 0x8, addend: 0x0, symName: __ZNSt3__116reverse_iteratorIPP11TerrainNodeEppB7v160006Ev, symObjAddr: 0x6040, symBinAddr: 0x100019F10, symSize: 0x20 }
  - { offsetInCU: 0xED91, offset: 0x66C1E, size: 0x8, addend: 0x0, symName: __ZNSt3__18_IterOpsINS_17_ClassicAlgPolicyEE25__validate_iter_referenceB7v160006IRNS_16reverse_iteratorIPP11TerrainNodeEEEEvv, symObjAddr: 0x6060, symBinAddr: 0x100019F30, symSize: 0x10 }
  - { offsetInCU: 0xEDAF, offset: 0x66C3C, size: 0x8, addend: 0x0, symName: __ZNSt3__118__unwrap_iter_implINS_16reverse_iteratorIPP11TerrainNodeEELb0EE8__unwrapB7v160006ES5_, symObjAddr: 0x6070, symBinAddr: 0x100019F40, symSize: 0x20 }
  - { offsetInCU: 0xEDD7, offset: 0x66C64, size: 0x8, addend: 0x0, symName: __ZNSt3__14pairINS_16reverse_iteratorIPP11TerrainNodeEES5_EC1B7v160006IS5_S5_LPv0EEEOT_OT0_, symObjAddr: 0x6090, symBinAddr: 0x100019F60, symSize: 0x30 }
  - { offsetInCU: 0xEE34, offset: 0x66CC1, size: 0x8, addend: 0x0, symName: __ZNSt3__14pairINS_16reverse_iteratorIPP11TerrainNodeEES5_EC2B7v160006IS5_S5_LPv0EEEOT_OT0_, symObjAddr: 0x60C0, symBinAddr: 0x100019F90, symSize: 0x40 }
  - { offsetInCU: 0xEE91, offset: 0x66D1E, size: 0x8, addend: 0x0, symName: __ZNSt3__118__unwrap_iter_implINS_16reverse_iteratorIPP11TerrainNodeEELb0EE8__rewrapB7v160006ES5_S5_, symObjAddr: 0x6100, symBinAddr: 0x100019FD0, symSize: 0x30 }
  - { offsetInCU: 0xEEBE, offset: 0x66D4B, size: 0x8, addend: 0x0, symName: __ZNSt3__116reverse_iteratorIPP11TerrainNodeEC2B7v160006ES3_, symObjAddr: 0x6130, symBinAddr: 0x10001A000, symSize: 0x30 }
  - { offsetInCU: 0xEEF4, offset: 0x66D81, size: 0x8, addend: 0x0, symName: __ZNSt3__114__split_bufferIP11TerrainNodeRNS_9allocatorIS2_EEED2Ev, symObjAddr: 0x6160, symBinAddr: 0x10001A030, symSize: 0x70 }
  - { offsetInCU: 0xEF1F, offset: 0x66DAC, size: 0x8, addend: 0x0, symName: __ZNSt3__114__split_bufferIP11TerrainNodeRNS_9allocatorIS2_EEE5clearB7v160006Ev, symObjAddr: 0x61D0, symBinAddr: 0x10001A0A0, symSize: 0x20 }
  - { offsetInCU: 0xEF43, offset: 0x66DD0, size: 0x8, addend: 0x0, symName: __ZNKSt3__114__split_bufferIP11TerrainNodeRNS_9allocatorIS2_EEE8capacityB7v160006Ev, symObjAddr: 0x61F0, symBinAddr: 0x10001A0C0, symSize: 0x30 }
  - { offsetInCU: 0xEF67, offset: 0x66DF4, size: 0x8, addend: 0x0, symName: __ZNSt3__114__split_bufferIP11TerrainNodeRNS_9allocatorIS2_EEE17__destruct_at_endB7v160006EPS2_, symObjAddr: 0x6220, symBinAddr: 0x10001A0F0, symSize: 0x30 }
  - { offsetInCU: 0xEF98, offset: 0x66E25, size: 0x8, addend: 0x0, symName: __ZNSt3__114__split_bufferIP11TerrainNodeRNS_9allocatorIS2_EEE17__destruct_at_endB7v160006EPS2_NS_17integral_constantIbLb0EEE, symObjAddr: 0x6250, symBinAddr: 0x10001A120, symSize: 0x80 }
  - { offsetInCU: 0xEFD8, offset: 0x66E65, size: 0x8, addend: 0x0, symName: __ZNKSt3__114__split_bufferIP11TerrainNodeRNS_9allocatorIS2_EEE9__end_capB7v160006Ev, symObjAddr: 0x62D0, symBinAddr: 0x10001A1A0, symSize: 0x20 }
  - { offsetInCU: 0xEFFC, offset: 0x66E89, size: 0x8, addend: 0x0, symName: __ZNKSt3__117__compressed_pairIPP11TerrainNodeRNS_9allocatorIS2_EEE5firstB7v160006Ev, symObjAddr: 0x62F0, symBinAddr: 0x10001A1C0, symSize: 0x1B }
  - { offsetInCU: 0x63, offset: 0x66FD2, size: 0x8, addend: 0x0, symName: __ZN3glmngIfLNS_9qualifierE0EEENS_3vecILi3ET_XT0_EEERKS4_, symObjAddr: 0x2340, symBinAddr: 0x10001C260, symSize: 0x60 }
  - { offsetInCU: 0x81E6, offset: 0x6F155, size: 0x8, addend: 0x0, symName: __ZNSt3__1eqB7v160006IcNS_11char_traitsIcEENS_9allocatorIcEEEEbRKNS_12basic_stringIT_T0_T1_EEPKS6_, symObjAddr: 0x15B0, symBinAddr: 0x10001B630, symSize: 0x90 }
  - { offsetInCU: 0xB108, offset: 0x72077, size: 0x8, addend: 0x0, symName: __ZN6SphereC2Ev, symObjAddr: 0x0, symBinAddr: 0x10001A1E0, symSize: 0x60 }
  - { offsetInCU: 0xB133, offset: 0x720A2, size: 0x8, addend: 0x0, symName: __ZN6Sphere4InitEv, symObjAddr: 0x60, symBinAddr: 0x10001A240, symSize: 0x330 }
  - { offsetInCU: 0xB305, offset: 0x72274, size: 0x8, addend: 0x0, symName: __ZN6SphereC1Ev, symObjAddr: 0x390, symBinAddr: 0x10001A570, symSize: 0x20 }
  - { offsetInCU: 0xB330, offset: 0x7229F, size: 0x8, addend: 0x0, symName: __ZN6Sphere11LoadTextureENSt3__112basic_stringIcNS0_11char_traitsIcEENS0_9allocatorIcEEEE, symObjAddr: 0x3B0, symBinAddr: 0x10001A590, symSize: 0x70 }
  - { offsetInCU: 0xBE71, offset: 0x72DE0, size: 0x8, addend: 0x0, symName: __ZN18SDLGraphicsProgramC2Eii, symObjAddr: 0x460, symBinAddr: 0x10001A600, symSize: 0x490 }
  - { offsetInCU: 0xBFC1, offset: 0x72F30, size: 0x8, addend: 0x0, symName: __ZNSt3__118basic_stringstreamIcNS_11char_traitsIcEENS_9allocatorIcEEEC1B7v160006Ev, symObjAddr: 0x8F0, symBinAddr: 0x10001AA90, symSize: 0x100 }
  - { offsetInCU: 0xBFE9, offset: 0x72F58, size: 0x8, addend: 0x0, symName: __ZN18SDLGraphicsProgram6InitGLEv, symObjAddr: 0xA30, symBinAddr: 0x10001AB90, symSize: 0x20 }
  - { offsetInCU: 0xC01E, offset: 0x72F8D, size: 0x8, addend: 0x0, symName: __ZNKSt3__118basic_stringstreamIcNS_11char_traitsIcEENS_9allocatorIcEEE3strB7v160006Ev, symObjAddr: 0xA50, symBinAddr: 0x10001ABB0, symSize: 0x30 }
  - { offsetInCU: 0xC042, offset: 0x72FB1, size: 0x8, addend: 0x0, symName: __ZN18SDLGraphicsProgram20GetOpenGLVersionInfoEv, symObjAddr: 0xAA0, symBinAddr: 0x10001ABE0, symSize: 0xA0 }
  - { offsetInCU: 0xC06F, offset: 0x72FDE, size: 0x8, addend: 0x0, symName: __ZN18SDLGraphicsProgramC1Eii, symObjAddr: 0xB80, symBinAddr: 0x10001AC80, symSize: 0x30 }
  - { offsetInCU: 0xC0B5, offset: 0x73024, size: 0x8, addend: 0x0, symName: __ZN18SDLGraphicsProgramD2Ev, symObjAddr: 0xBB0, symBinAddr: 0x10001ACB0, symSize: 0x80 }
  - { offsetInCU: 0xC0DF, offset: 0x7304E, size: 0x8, addend: 0x0, symName: __ZN18SDLGraphicsProgramD1Ev, symObjAddr: 0xC40, symBinAddr: 0x10001AD30, symSize: 0x20 }
  - { offsetInCU: 0xC109, offset: 0x73078, size: 0x8, addend: 0x0, symName: __ZN18SDLGraphicsProgram11LoadLibraryEv, symObjAddr: 0xC60, symBinAddr: 0x10001AD50, symSize: 0x8C0 }
  - { offsetInCU: 0xC223, offset: 0x73192, size: 0x8, addend: 0x0, symName: __ZN12AssetLibrary10assetCountEv, symObjAddr: 0x1520, symBinAddr: 0x10001B610, symSize: 0x20 }
  - { offsetInCU: 0xC247, offset: 0x731B6, size: 0x8, addend: 0x0, symName: __ZN5Asset9getParentEv, symObjAddr: 0x1640, symBinAddr: 0x10001B6C0, symSize: 0x30 }
  - { offsetInCU: 0xC26B, offset: 0x731DA, size: 0x8, addend: 0x0, symName: __ZN9SceneNode11setPositionEN3glm3vecILi3EfLNS0_9qualifierE0EEE, symObjAddr: 0x1670, symBinAddr: 0x10001B6F0, symSize: 0x50 }
  - { offsetInCU: 0xC29D, offset: 0x7320C, size: 0x8, addend: 0x0, symName: __ZN5Asset11getPositionEv, symObjAddr: 0x16C0, symBinAddr: 0x10001B740, symSize: 0x40 }
  - { offsetInCU: 0xC2C1, offset: 0x73230, size: 0x8, addend: 0x0, symName: __ZN9SceneNode8setScaleEN3glm3vecILi3EfLNS0_9qualifierE0EEE, symObjAddr: 0x1700, symBinAddr: 0x10001B780, symSize: 0x50 }
  - { offsetInCU: 0xC2F3, offset: 0x73262, size: 0x8, addend: 0x0, symName: __ZN5Asset8getScaleEv, symObjAddr: 0x1750, symBinAddr: 0x10001B7D0, symSize: 0x40 }
  - { offsetInCU: 0xC317, offset: 0x73286, size: 0x8, addend: 0x0, symName: __ZN9SceneNode11setRotationEfN3glm3vecILi3EfLNS0_9qualifierE0EEE, symObjAddr: 0x1790, symBinAddr: 0x10001B810, symSize: 0x70 }
  - { offsetInCU: 0xC357, offset: 0x732C6, size: 0x8, addend: 0x0, symName: __ZN5Asset20getRotationIncrementEv, symObjAddr: 0x1800, symBinAddr: 0x10001B880, symSize: 0x20 }
  - { offsetInCU: 0xC37B, offset: 0x732EA, size: 0x8, addend: 0x0, symName: __ZN5Asset15getRotationAxisEv, symObjAddr: 0x1820, symBinAddr: 0x10001B8A0, symSize: 0x40 }
  - { offsetInCU: 0xC39F, offset: 0x7330E, size: 0x8, addend: 0x0, symName: __ZN9SceneNode16resetLocalMatrixEv, symObjAddr: 0x1860, symBinAddr: 0x10001B8E0, symSize: 0x20 }
  - { offsetInCU: 0xC3C3, offset: 0x73332, size: 0x8, addend: 0x0, symName: __ZN9SceneNode15loadLocalMatrixEv, symObjAddr: 0x1880, symBinAddr: 0x10001B900, symSize: 0x20 }
  - { offsetInCU: 0xC3E7, offset: 0x73356, size: 0x8, addend: 0x0, symName: __ZN8Renderer11setHumanPosEP9SceneNode, symObjAddr: 0x18A0, symBinAddr: 0x10001B920, symSize: 0x20 }
  - { offsetInCU: 0xC419, offset: 0x73388, size: 0x8, addend: 0x0, symName: __ZN5Asset11getColorMapEv, symObjAddr: 0x18C0, symBinAddr: 0x10001B940, symSize: 0x30 }
  - { offsetInCU: 0xC43D, offset: 0x733AC, size: 0x8, addend: 0x0, symName: __ZN5Asset12getDetailMapEv, symObjAddr: 0x18F0, symBinAddr: 0x10001B970, symSize: 0x40 }
  - { offsetInCU: 0xC461, offset: 0x733D0, size: 0x8, addend: 0x0, symName: __ZN11TerrainNode11setPositionEN3glm3vecILi3EfLNS0_9qualifierE0EEE, symObjAddr: 0x1930, symBinAddr: 0x10001B9B0, symSize: 0x50 }
  - { offsetInCU: 0xC493, offset: 0x73402, size: 0x8, addend: 0x0, symName: __ZN11TerrainNode8setScaleEN3glm3vecILi3EfLNS0_9qualifierE0EEE, symObjAddr: 0x1980, symBinAddr: 0x10001BA00, symSize: 0x50 }
  - { offsetInCU: 0xC4C5, offset: 0x73434, size: 0x8, addend: 0x0, symName: __ZN11TerrainNode11setRotationEfN3glm3vecILi3EfLNS0_9qualifierE0EEE, symObjAddr: 0x19D0, symBinAddr: 0x10001BA50, symSize: 0x50 }
  - { offsetInCU: 0xC505, offset: 0x73474, size: 0x8, addend: 0x0, symName: __ZN11TerrainNode16resetLocalMatrixEv, symObjAddr: 0x1A20, symBinAddr: 0x10001BAA0, symSize: 0x20 }
  - { offsetInCU: 0xC529, offset: 0x73498, size: 0x8, addend: 0x0, symName: __ZN11TerrainNode15loadLocalMatrixEv, symObjAddr: 0x1A40, symBinAddr: 0x10001BAC0, symSize: 0x20 }
  - { offsetInCU: 0xC54D, offset: 0x734BC, size: 0x8, addend: 0x0, symName: __ZN18SDLGraphicsProgram4LoopEv, symObjAddr: 0x1A60, symBinAddr: 0x10001BAE0, symSize: 0x4E0 }
  - { offsetInCU: 0xC64E, offset: 0x735BD, size: 0x8, addend: 0x0, symName: __ZN8Renderer9GetCameraEj, symObjAddr: 0x1F40, symBinAddr: 0x10001BFC0, symSize: 0x50 }
  - { offsetInCU: 0xC680, offset: 0x735EF, size: 0x8, addend: 0x0, symName: __ZN8Renderer15getHumanPointerEv, symObjAddr: 0x1F90, symBinAddr: 0x10001C010, symSize: 0x20 }
  - { offsetInCU: 0xC6A4, offset: 0x73613, size: 0x8, addend: 0x0, symName: __ZN9SceneNode8moveLeftEN3glm3vecILi3EfLNS0_9qualifierE0EEE, symObjAddr: 0x1FB0, symBinAddr: 0x10001C030, symSize: 0x80 }
  - { offsetInCU: 0xC6D6, offset: 0x73645, size: 0x8, addend: 0x0, symName: __ZN9SceneNode9moveRightEN3glm3vecILi3EfLNS0_9qualifierE0EEE, symObjAddr: 0x2030, symBinAddr: 0x10001C0B0, symSize: 0x60 }
  - { offsetInCU: 0xC708, offset: 0x73677, size: 0x8, addend: 0x0, symName: __ZN9SceneNode10moveFowardEN3glm3vecILi3EfLNS0_9qualifierE0EEE, symObjAddr: 0x2090, symBinAddr: 0x10001C110, symSize: 0x60 }
  - { offsetInCU: 0xC73A, offset: 0x736A9, size: 0x8, addend: 0x0, symName: __ZN9SceneNode8moveBackEN3glm3vecILi3EfLNS0_9qualifierE0EEE, symObjAddr: 0x20F0, symBinAddr: 0x10001C170, symSize: 0x80 }
  - { offsetInCU: 0xC76C, offset: 0x736DB, size: 0x8, addend: 0x0, symName: __ZN18SDLGraphicsProgram12GetSDLWindowEv, symObjAddr: 0x2170, symBinAddr: 0x10001C1F0, symSize: 0x20 }
  - { offsetInCU: 0xC799, offset: 0x73708, size: 0x8, addend: 0x0, symName: __ZN9SceneNode14updatePositionEN3glm3vecILi3EfLNS0_9qualifierE0EEE, symObjAddr: 0x22F0, symBinAddr: 0x10001C210, symSize: 0x50 }
  - { offsetInCU: 0xC7CB, offset: 0x7373A, size: 0x8, addend: 0x0, symName: __ZNSt3__115basic_stringbufIcNS_11char_traitsIcEENS_9allocatorIcEEEC1B7v160006Ej, symObjAddr: 0x2650, symBinAddr: 0x10001C2C0, symSize: 0x30 }
  - { offsetInCU: 0xC801, offset: 0x73770, size: 0x8, addend: 0x0, symName: __ZNSt3__115basic_stringbufIcNS_11char_traitsIcEENS_9allocatorIcEEEC2B7v160006Ej, symObjAddr: 0x2780, symBinAddr: 0x10001C2F0, symSize: 0x50 }
  - { offsetInCU: 0x499C, offset: 0x79188, size: 0x8, addend: 0x0, symName: __ZNSt3__1neB7v160006IPP9SceneNodeEEbRKNS_11__wrap_iterIT_EES8_, symObjAddr: 0xBB0, symBinAddr: 0x10001CDC0, symSize: 0x30 }
  - { offsetInCU: 0x49DF, offset: 0x791CB, size: 0x8, addend: 0x0, symName: __ZNSt3__1eqB7v160006IPP9SceneNodeEEbRKNS_11__wrap_iterIT_EES8_, symObjAddr: 0x1330, symBinAddr: 0x10001D2B0, symSize: 0x40 }
  - { offsetInCU: 0x7402, offset: 0x7BBEE, size: 0x8, addend: 0x0, symName: __ZN9SceneNodeC2EP6ObjectNSt3__112basic_stringIcNS2_11char_traitsIcEENS2_9allocatorIcEEEE, symObjAddr: 0x0, symBinAddr: 0x10001C340, symSize: 0x280 }
  - { offsetInCU: 0x7473, offset: 0x7BC5F, size: 0x8, addend: 0x0, symName: __ZN9SceneNodeC1EP6ObjectNSt3__112basic_stringIcNS2_11char_traitsIcEENS2_9allocatorIcEEEE, symObjAddr: 0x310, symBinAddr: 0x10001C5C0, symSize: 0x30 }
  - { offsetInCU: 0x74BA, offset: 0x7BCA6, size: 0x8, addend: 0x0, symName: __ZN9SceneNodeC2EP6Object, symObjAddr: 0x340, symBinAddr: 0x10001C5F0, symSize: 0x240 }
  - { offsetInCU: 0x7517, offset: 0x7BD03, size: 0x8, addend: 0x0, symName: __ZN9SceneNodeC1EP6Object, symObjAddr: 0x580, symBinAddr: 0x10001C830, symSize: 0x30 }
  - { offsetInCU: 0x754F, offset: 0x7BD3B, size: 0x8, addend: 0x0, symName: __ZN9SceneNodeD2Ev, symObjAddr: 0x5B0, symBinAddr: 0x10001C860, symSize: 0xD0 }
  - { offsetInCU: 0x7597, offset: 0x7BD83, size: 0x8, addend: 0x0, symName: __ZN9SceneNodeD1Ev, symObjAddr: 0x6C0, symBinAddr: 0x10001C930, symSize: 0x20 }
  - { offsetInCU: 0x75C1, offset: 0x7BDAD, size: 0x8, addend: 0x0, symName: __ZN9SceneNode8AddChildEPS_, symObjAddr: 0x6E0, symBinAddr: 0x10001C950, symSize: 0x30 }
  - { offsetInCU: 0x75F5, offset: 0x7BDE1, size: 0x8, addend: 0x0, symName: __ZN9SceneNode4DrawEv, symObjAddr: 0x770, symBinAddr: 0x10001C980, symSize: 0xA0 }
  - { offsetInCU: 0x7639, offset: 0x7BE25, size: 0x8, addend: 0x0, symName: __ZN9SceneNode12updateHelperEv, symObjAddr: 0x810, symBinAddr: 0x10001CA20, symSize: 0x280 }
  - { offsetInCU: 0x76B7, offset: 0x7BEA3, size: 0x8, addend: 0x0, symName: __ZN9Transform16incrementRadiansEv, symObjAddr: 0xA90, symBinAddr: 0x10001CCA0, symSize: 0x20 }
  - { offsetInCU: 0x76DB, offset: 0x7BEC7, size: 0x8, addend: 0x0, symName: __ZN9Transform10getRadiansEv, symObjAddr: 0xAB0, symBinAddr: 0x10001CCC0, symSize: 0x20 }
  - { offsetInCU: 0x76FF, offset: 0x7BEEB, size: 0x8, addend: 0x0, symName: __ZN9Transform15getRotationAxisEv, symObjAddr: 0xAD0, symBinAddr: 0x10001CCE0, symSize: 0x40 }
  - { offsetInCU: 0x7723, offset: 0x7BF0F, size: 0x8, addend: 0x0, symName: __ZN9SceneNode17GetWorldTransformEv, symObjAddr: 0xB10, symBinAddr: 0x10001CD20, symSize: 0x20 }
  - { offsetInCU: 0x7749, offset: 0x7BF35, size: 0x8, addend: 0x0, symName: __ZN9SceneNode17GetLocalTransformEv, symObjAddr: 0xB30, symBinAddr: 0x10001CD40, symSize: 0x20 }
  - { offsetInCU: 0x776E, offset: 0x7BF5A, size: 0x8, addend: 0x0, symName: __ZNSt3__16vectorIP9SceneNodeNS_9allocatorIS2_EEE5beginB7v160006Ev, symObjAddr: 0xB50, symBinAddr: 0x10001CD60, symSize: 0x30 }
  - { offsetInCU: 0x7795, offset: 0x7BF81, size: 0x8, addend: 0x0, symName: __ZNSt3__16vectorIP9SceneNodeNS_9allocatorIS2_EEE3endB7v160006Ev, symObjAddr: 0xB80, symBinAddr: 0x10001CD90, symSize: 0x30 }
  - { offsetInCU: 0x77BD, offset: 0x7BFA9, size: 0x8, addend: 0x0, symName: __ZNKSt3__111__wrap_iterIPP9SceneNodeEdeB7v160006Ev, symObjAddr: 0xBE0, symBinAddr: 0x10001CDF0, symSize: 0x20 }
  - { offsetInCU: 0x77E1, offset: 0x7BFCD, size: 0x8, addend: 0x0, symName: __ZNSt3__111__wrap_iterIPP9SceneNodeEppB7v160006Ev, symObjAddr: 0xC00, symBinAddr: 0x10001CE10, symSize: 0x20 }
  - { offsetInCU: 0x7805, offset: 0x7BFF1, size: 0x8, addend: 0x0, symName: __ZN9SceneNode9getParentENSt3__112basic_stringIcNS0_11char_traitsIcEENS0_9allocatorIcEEEE, symObjAddr: 0xC20, symBinAddr: 0x10001CE30, symSize: 0x100 }
  - { offsetInCU: 0x784F, offset: 0x7C03B, size: 0x8, addend: 0x0, symName: __ZN9SceneNode7getNameEv, symObjAddr: 0xE30, symBinAddr: 0x10001CF30, symSize: 0x30 }
  - { offsetInCU: 0x7873, offset: 0x7C05F, size: 0x8, addend: 0x0, symName: __ZN9SceneNode6UpdateEN3glm3matILi4ELi4EfLNS0_9qualifierE0EEEP6Camera, symObjAddr: 0xE60, symBinAddr: 0x10001CF60, symSize: 0x350 }
  - { offsetInCU: 0x78D4, offset: 0x7C0C0, size: 0x8, addend: 0x0, symName: __ZNKSt3__111__wrap_iterIPP9SceneNodeE4baseB7v160006Ev, symObjAddr: 0x1370, symBinAddr: 0x10001D2F0, symSize: 0x20 }
  - { offsetInCU: 0x7911, offset: 0x7C0FD, size: 0x8, addend: 0x0, symName: __ZNSt3__16vectorIP9SceneNodeNS_9allocatorIS2_EEE11__make_iterB7v160006EPS2_, symObjAddr: 0x3620, symBinAddr: 0x10001D310, symSize: 0x30 }
  - { offsetInCU: 0x7944, offset: 0x7C130, size: 0x8, addend: 0x0, symName: __ZNSt3__111__wrap_iterIPP9SceneNodeEC1B7v160006EPKvS3_, symObjAddr: 0x3650, symBinAddr: 0x10001D340, symSize: 0x30 }
  - { offsetInCU: 0x7988, offset: 0x7C174, size: 0x8, addend: 0x0, symName: __ZNSt3__111__wrap_iterIPP9SceneNodeEC2B7v160006EPKvS3_, symObjAddr: 0x3680, symBinAddr: 0x10001D370, symSize: 0x20 }
  - { offsetInCU: 0x9112, offset: 0x852E2, size: 0x8, addend: 0x0, symName: __ZNSt3__16copy_nB7v160006IPKcmPcEENS_9enable_ifIXsr33__is_cpp17_random_access_iteratorIT_EE5valueET1_E4typeES5_T0_S6_, symObjAddr: 0x2940, symBinAddr: 0x10001E1E0, symSize: 0x40 }
  - { offsetInCU: 0xA78D, offset: 0x8695D, size: 0x8, addend: 0x0, symName: __ZNSt3__1plB7v160006IcNS_11char_traitsIcEENS_9allocatorIcEEEENS_12basic_stringIT_T0_T1_EERKS9_S6_, symObjAddr: 0x670, symBinAddr: 0x10001D760, symSize: 0xF0 }
  - { offsetInCU: 0xA82B, offset: 0x869FB, size: 0x8, addend: 0x0, symName: __ZNSt3__14copyB7v160006IPKcPcEET0_T_S5_S4_, symObjAddr: 0x2980, symBinAddr: 0x10001E220, symSize: 0x40 }
  - { offsetInCU: 0xA885, offset: 0x86A55, size: 0x8, addend: 0x0, symName: __ZNSt3__16__copyB7v160006INS_17_ClassicAlgPolicyEPKcS3_PcEENS_4pairIT0_T2_EES6_T1_S7_, symObjAddr: 0x29C0, symBinAddr: 0x10001E260, symSize: 0x40 }
  - { offsetInCU: 0xA8F1, offset: 0x86AC1, size: 0x8, addend: 0x0, symName: __ZNSt3__123__dispatch_copy_or_moveB7v160006INS_17_ClassicAlgPolicyENS_11__copy_loopIS1_EENS_14__copy_trivialEPKcS6_PcEENS_4pairIT2_T4_EES9_T3_SA_, symObjAddr: 0x2A00, symBinAddr: 0x10001E2A0, symSize: 0x40 }
  - { offsetInCU: 0xA96F, offset: 0x86B3F, size: 0x8, addend: 0x0, symName: __ZNSt3__121__unwrap_and_dispatchB7v160006INS_10__overloadINS_11__copy_loopINS_17_ClassicAlgPolicyEEENS_14__copy_trivialEEEPKcS8_PcLi0EEENS_4pairIT0_T2_EESB_T1_SC_, symObjAddr: 0x2A40, symBinAddr: 0x10001E2E0, symSize: 0xB0 }
  - { offsetInCU: 0xAA01, offset: 0x86BD1, size: 0x8, addend: 0x0, symName: __ZNSt3__114__unwrap_rangeB7v160006IPKcS2_EENS_4pairIT0_S4_EET_S6_, symObjAddr: 0x2AF0, symBinAddr: 0x10001E390, symSize: 0x50 }
  - { offsetInCU: 0xAB99, offset: 0x86D69, size: 0x8, addend: 0x0, symName: __ZNSt3__113__unwrap_iterB7v160006IPcNS_18__unwrap_iter_implIS1_Lb1EEELi0EEEDTclsrT0_8__unwrapclsr3stdE7declvalIT_EEEES5_, symObjAddr: 0x2B80, symBinAddr: 0x10001E420, symSize: 0x20 }
  - { offsetInCU: 0xABDE, offset: 0x86DAE, size: 0x8, addend: 0x0, symName: __ZNSt3__19make_pairB7v160006IPKcPcEENS_4pairINS_18__unwrap_ref_decayIT_E4typeENS5_IT0_E4typeEEEOS6_OS9_, symObjAddr: 0x2BA0, symBinAddr: 0x10001E440, symSize: 0x30 }
  - { offsetInCU: 0xAC2D, offset: 0x86DFD, size: 0x8, addend: 0x0, symName: __ZNSt3__114__rewrap_rangeB7v160006IPKcS2_EET_S3_T0_, symObjAddr: 0x2BD0, symBinAddr: 0x10001E470, symSize: 0x30 }
  - { offsetInCU: 0xAC79, offset: 0x86E49, size: 0x8, addend: 0x0, symName: __ZNSt3__113__rewrap_iterB7v160006IPcS1_NS_18__unwrap_iter_implIS1_Lb1EEEEET_S4_T0_, symObjAddr: 0x2C00, symBinAddr: 0x10001E4A0, symSize: 0x40 }
  - { offsetInCU: 0xACCE, offset: 0x86E9E, size: 0x8, addend: 0x0, symName: __ZNSt3__19make_pairB7v160006IPKcS2_EENS_4pairINS_18__unwrap_ref_decayIT_E4typeENS4_IT0_E4typeEEEOS5_OS8_, symObjAddr: 0x2C40, symBinAddr: 0x10001E4E0, symSize: 0x30 }
  - { offsetInCU: 0xAD1D, offset: 0x86EED, size: 0x8, addend: 0x0, symName: __ZNSt3__113__unwrap_iterB7v160006IPKcNS_18__unwrap_iter_implIS2_Lb1EEELi0EEEDTclsrT0_8__unwrapclsr3stdE7declvalIT_EEEES6_, symObjAddr: 0x2C70, symBinAddr: 0x10001E510, symSize: 0x20 }
  - { offsetInCU: 0xAE8A, offset: 0x8705A, size: 0x8, addend: 0x0, symName: __ZNSt3__119__copy_trivial_implB7v160006IKccEENS_4pairIPT_PT0_EES4_S4_S6_, symObjAddr: 0x2D10, symBinAddr: 0x10001E5B0, symSize: 0x70 }
  - { offsetInCU: 0xAEF3, offset: 0x870C3, size: 0x8, addend: 0x0, symName: __ZNSt3__19make_pairB7v160006IRPKcPcEENS_4pairINS_18__unwrap_ref_decayIT_E4typeENS6_IT0_E4typeEEEOS7_OSA_, symObjAddr: 0x2D80, symBinAddr: 0x10001E620, symSize: 0x30 }
  - { offsetInCU: 0xAF95, offset: 0x87165, size: 0x8, addend: 0x0, symName: __ZNSt3__113__rewrap_iterB7v160006IPKcS2_NS_18__unwrap_iter_implIS2_Lb1EEEEET_S5_T0_, symObjAddr: 0x2E90, symBinAddr: 0x10001E730, symSize: 0x40 }
  - { offsetInCU: 0xAFEA, offset: 0x871BA, size: 0x8, addend: 0x0, symName: __ZNSt3__16fill_nB7v160006IPcmcEET_S2_T0_RKT1_, symObjAddr: 0x2F50, symBinAddr: 0x10001E7F0, symSize: 0x40 }
  - { offsetInCU: 0xB04D, offset: 0x8721D, size: 0x8, addend: 0x0, symName: __ZNSt3__18__fill_nB7v160006IPcmcEET_S2_T0_RKT1_, symObjAddr: 0x2F90, symBinAddr: 0x10001E830, symSize: 0x50 }
  - { offsetInCU: 0xB0B0, offset: 0x87280, size: 0x8, addend: 0x0, symName: __ZNSt3__121__convert_to_integralB7v160006Em, symObjAddr: 0x2FE0, symBinAddr: 0x10001E880, symSize: 0xE }
  - { offsetInCU: 0xD346, offset: 0x89516, size: 0x8, addend: 0x0, symName: __ZN6ShaderC2Ev, symObjAddr: 0x0, symBinAddr: 0x10001D390, symSize: 0x10 }
  - { offsetInCU: 0xD370, offset: 0x89540, size: 0x8, addend: 0x0, symName: __ZN6ShaderC1Ev, symObjAddr: 0x10, symBinAddr: 0x10001D3A0, symSize: 0x20 }
  - { offsetInCU: 0xD39A, offset: 0x8956A, size: 0x8, addend: 0x0, symName: __ZN6ShaderD2Ev, symObjAddr: 0x30, symBinAddr: 0x10001D3C0, symSize: 0x40 }
  - { offsetInCU: 0xD3C4, offset: 0x89594, size: 0x8, addend: 0x0, symName: __ZN6ShaderD1Ev, symObjAddr: 0x80, symBinAddr: 0x10001D400, symSize: 0x20 }
  - { offsetInCU: 0xD3EE, offset: 0x895BE, size: 0x8, addend: 0x0, symName: __ZNK6Shader4BindEv, symObjAddr: 0xA0, symBinAddr: 0x10001D420, symSize: 0x30 }
  - { offsetInCU: 0xD414, offset: 0x895E4, size: 0x8, addend: 0x0, symName: __ZNK6Shader6UnbindEv, symObjAddr: 0xD0, symBinAddr: 0x10001D450, symSize: 0x20 }
  - { offsetInCU: 0xD43A, offset: 0x8960A, size: 0x8, addend: 0x0, symName: __ZN6Shader3LogEPKcS1_, symObjAddr: 0xF0, symBinAddr: 0x10001D470, symSize: 0x70 }
  - { offsetInCU: 0xD47C, offset: 0x8964C, size: 0x8, addend: 0x0, symName: __ZN6Shader10LoadShaderERKNSt3__112basic_stringIcNS0_11char_traitsIcEENS0_9allocatorIcEEEE, symObjAddr: 0x1A0, symBinAddr: 0x10001D4E0, symSize: 0x280 }
  - { offsetInCU: 0xD5C3, offset: 0x89793, size: 0x8, addend: 0x0, symName: __ZNSt3__112basic_stringIcNS_11char_traitsIcEENS_9allocatorIcEEEpLB7v160006ERKS5_, symObjAddr: 0x760, symBinAddr: 0x10001D850, symSize: 0x30 }
  - { offsetInCU: 0xD5FB, offset: 0x897CB, size: 0x8, addend: 0x0, symName: __ZN6Shader12CreateShaderERKNSt3__112basic_stringIcNS0_11char_traitsIcEENS0_9allocatorIcEEEES8_, symObjAddr: 0x820, symBinAddr: 0x10001D880, symSize: 0x110 }
  - { offsetInCU: 0xD66A, offset: 0x8983A, size: 0x8, addend: 0x0, symName: __ZN6Shader13CompileShaderEjRKNSt3__112basic_stringIcNS0_11char_traitsIcEENS0_9allocatorIcEEEE, symObjAddr: 0x930, symBinAddr: 0x10001D990, symSize: 0x1C0 }
  - { offsetInCU: 0xD706, offset: 0x898D6, size: 0x8, addend: 0x0, symName: __ZN6Shader15CheckLinkStatusEj, symObjAddr: 0xAF0, symBinAddr: 0x10001DB50, symSize: 0xD0 }
  - { offsetInCU: 0xD776, offset: 0x89946, size: 0x8, addend: 0x0, symName: __ZNK6Shader5GetIDEv, symObjAddr: 0xBC0, symBinAddr: 0x10001DC20, symSize: 0x10 }
  - { offsetInCU: 0xD79C, offset: 0x8996C, size: 0x8, addend: 0x0, symName: __ZN6Shader19SetUniformMatrix4fvEPKcPKf, symObjAddr: 0xBD0, symBinAddr: 0x10001DC30, symSize: 0x50 }
  - { offsetInCU: 0xD7ED, offset: 0x899BD, size: 0x8, addend: 0x0, symName: __ZN6Shader12SetUniform3fEPKcfff, symObjAddr: 0xC20, symBinAddr: 0x10001DC80, symSize: 0x60 }
  - { offsetInCU: 0xD85A, offset: 0x89A2A, size: 0x8, addend: 0x0, symName: __ZN6Shader12SetUniform1iEPKci, symObjAddr: 0xC80, symBinAddr: 0x10001DCE0, symSize: 0x50 }
  - { offsetInCU: 0xD8AB, offset: 0x89A7B, size: 0x8, addend: 0x0, symName: __ZN6Shader12SetUniform1fEPKcf, symObjAddr: 0xCD0, symBinAddr: 0x10001DD30, symSize: 0x50 }
  - { offsetInCU: 0xD8FC, offset: 0x89ACC, size: 0x8, addend: 0x0, symName: __ZNSt3__112basic_stringIcNS_11char_traitsIcEENS_9allocatorIcEEE6appendB7v160006ERKS5_, symObjAddr: 0xF40, symBinAddr: 0x10001DD80, symSize: 0x50 }
  - { offsetInCU: 0xD95C, offset: 0x89B2C, size: 0x8, addend: 0x0, symName: __ZNSt3__116allocator_traitsINS_9allocatorIcEEE37select_on_container_copy_constructionB7v160006IS2_vvEES2_RKS2_, symObjAddr: 0x2250, symBinAddr: 0x10001DDD0, symSize: 0x10 }
  - { offsetInCU: 0xD98B, offset: 0x89B5B, size: 0x8, addend: 0x0, symName: __ZNSt3__112basic_stringIcNS_11char_traitsIcEENS_9allocatorIcEEEC1B7v160006ENS_24__uninitialized_size_tagEmRKS4_, symObjAddr: 0x2280, symBinAddr: 0x10001DDE0, symSize: 0x30 }
  - { offsetInCU: 0xD9DD, offset: 0x89BAD, size: 0x8, addend: 0x0, symName: __ZNSt3__111char_traitsIcE4copyEPcPKcm, symObjAddr: 0x22B0, symBinAddr: 0x10001DE10, symSize: 0x70 }
  - { offsetInCU: 0xDA1C, offset: 0x89BEC, size: 0x8, addend: 0x0, symName: __ZNSt3__111char_traitsIcE6assignEPcmc, symObjAddr: 0x2320, symBinAddr: 0x10001DE80, symSize: 0x40 }
  - { offsetInCU: 0xDA5B, offset: 0x89C2B, size: 0x8, addend: 0x0, symName: __ZNSt3__112basic_stringIcNS_11char_traitsIcEENS_9allocatorIcEEEC2B7v160006ENS_24__uninitialized_size_tagEmRKS4_, symObjAddr: 0x2360, symBinAddr: 0x10001DEC0, symSize: 0x120 }
  - { offsetInCU: 0xDADC, offset: 0x89CAC, size: 0x8, addend: 0x0, symName: __ZNKSt3__112basic_stringIcNS_11char_traitsIcEENS_9allocatorIcEEE20__throw_length_errorB7v160006Ev, symObjAddr: 0x24B0, symBinAddr: 0x10001DFE0, symSize: 0x20 }
  - { offsetInCU: 0xDB00, offset: 0x89CD0, size: 0x8, addend: 0x0, symName: __ZNSt3__112basic_stringIcNS_11char_traitsIcEENS_9allocatorIcEEE13__fits_in_ssoB7v160006Em, symObjAddr: 0x24D0, symBinAddr: 0x10001E000, symSize: 0x20 }
  - { offsetInCU: 0xDB24, offset: 0x89CF4, size: 0x8, addend: 0x0, symName: __ZNSt3__112basic_stringIcNS_11char_traitsIcEENS_9allocatorIcEEE11__recommendB7v160006Em, symObjAddr: 0x24F0, symBinAddr: 0x10001E020, symSize: 0x70 }
  - { offsetInCU: 0xDB57, offset: 0x89D27, size: 0x8, addend: 0x0, symName: __ZNSt3__116allocator_traitsINS_9allocatorIcEEE8allocateB7v160006ERS2_m, symObjAddr: 0x2560, symBinAddr: 0x10001E090, symSize: 0x30 }
  - { offsetInCU: 0xDB8A, offset: 0x89D5A, size: 0x8, addend: 0x0, symName: __ZNSt3__112basic_stringIcNS_11char_traitsIcEENS_9allocatorIcEEE16__begin_lifetimeB7v160006EPcm, symObjAddr: 0x25B0, symBinAddr: 0x10001E0C0, symSize: 0x10 }
  - { offsetInCU: 0xDBBD, offset: 0x89D8D, size: 0x8, addend: 0x0, symName: __ZNSt3__112basic_stringIcNS_11char_traitsIcEENS_9allocatorIcEEE14__set_long_capB7v160006Em, symObjAddr: 0x25C0, symBinAddr: 0x10001E0D0, symSize: 0x70 }
  - { offsetInCU: 0xDBF0, offset: 0x89DC0, size: 0x8, addend: 0x0, symName: __ZNSt3__112basic_stringIcNS_11char_traitsIcEENS_9allocatorIcEEE18__set_long_pointerB7v160006EPc, symObjAddr: 0x2630, symBinAddr: 0x10001E140, symSize: 0x30 }
  - { offsetInCU: 0xDC23, offset: 0x89DF3, size: 0x8, addend: 0x0, symName: __ZNSt3__112basic_stringIcNS_11char_traitsIcEENS_9allocatorIcEEE10__align_itB7v160006ILm16EEEmm, symObjAddr: 0x2790, symBinAddr: 0x10001E170, symSize: 0x20 }
  - { offsetInCU: 0xDC51, offset: 0x89E21, size: 0x8, addend: 0x0, symName: __ZNSt3__19allocatorIcE8allocateB7v160006Em, symObjAddr: 0x27B0, symBinAddr: 0x10001E190, symSize: 0x50 }
  - { offsetInCU: 0xDCA6, offset: 0x89E76, size: 0x8, addend: 0x0, symName: __ZNKSt3__114__copy_trivialclB7v160006IKccLi0EEENS_4pairIPT_PT0_EES5_S5_S7_, symObjAddr: 0x2B40, symBinAddr: 0x10001E3E0, symSize: 0x40 }
  - { offsetInCU: 0xDD2B, offset: 0x89EFB, size: 0x8, addend: 0x0, symName: __ZNSt3__14pairIPKcS2_EC1B7v160006IS2_S2_LPv0EEEOT_OT0_, symObjAddr: 0x2C90, symBinAddr: 0x10001E530, symSize: 0x30 }
  - { offsetInCU: 0xDD88, offset: 0x89F58, size: 0x8, addend: 0x0, symName: __ZNSt3__14pairIPKcS2_EC2B7v160006IS2_S2_LPv0EEEOT_OT0_, symObjAddr: 0x2CC0, symBinAddr: 0x10001E560, symSize: 0x30 }
  - { offsetInCU: 0xDDE5, offset: 0x89FB5, size: 0x8, addend: 0x0, symName: __ZNSt3__118__unwrap_iter_implIPKcLb1EE8__unwrapB7v160006ES2_, symObjAddr: 0x2CF0, symBinAddr: 0x10001E590, symSize: 0x20 }
  - { offsetInCU: 0xDE12, offset: 0x89FE2, size: 0x8, addend: 0x0, symName: __ZNSt3__14pairIPKcPcEC1B7v160006IRS2_S3_LPv0EEEOT_OT0_, symObjAddr: 0x2DB0, symBinAddr: 0x10001E650, symSize: 0x30 }
  - { offsetInCU: 0xDE6F, offset: 0x8A03F, size: 0x8, addend: 0x0, symName: __ZNSt3__14pairIPKcPcEC2B7v160006IRS2_S3_LPv0EEEOT_OT0_, symObjAddr: 0x2DE0, symBinAddr: 0x10001E680, symSize: 0x30 }
  - { offsetInCU: 0xDECC, offset: 0x8A09C, size: 0x8, addend: 0x0, symName: __ZNSt3__118__unwrap_iter_implIPcLb1EE8__unwrapB7v160006ES1_, symObjAddr: 0x2E10, symBinAddr: 0x10001E6B0, symSize: 0x20 }
  - { offsetInCU: 0xDEEF, offset: 0x8A0BF, size: 0x8, addend: 0x0, symName: __ZNSt3__14pairIPKcPcEC1B7v160006IS2_S3_LPv0EEEOT_OT0_, symObjAddr: 0x2E30, symBinAddr: 0x10001E6D0, symSize: 0x30 }
  - { offsetInCU: 0xDF4C, offset: 0x8A11C, size: 0x8, addend: 0x0, symName: __ZNSt3__14pairIPKcPcEC2B7v160006IS2_S3_LPv0EEEOT_OT0_, symObjAddr: 0x2E60, symBinAddr: 0x10001E700, symSize: 0x30 }
  - { offsetInCU: 0xDFA9, offset: 0x8A179, size: 0x8, addend: 0x0, symName: __ZNSt3__118__unwrap_iter_implIPKcLb1EE8__rewrapB7v160006ES2_S2_, symObjAddr: 0x2ED0, symBinAddr: 0x10001E770, symSize: 0x40 }
  - { offsetInCU: 0xDFDA, offset: 0x8A1AA, size: 0x8, addend: 0x0, symName: __ZNSt3__118__unwrap_iter_implIPcLb1EE8__rewrapB7v160006ES1_S1_, symObjAddr: 0x2F10, symBinAddr: 0x10001E7B0, symSize: 0x40 }
  - { offsetInCU: 0x48D3, offset: 0x8EAE0, size: 0x8, addend: 0x0, symName: __ZN7TerrainC2ENSt3__112basic_stringIcNS0_11char_traitsIcEENS0_9allocatorIcEEEE, symObjAddr: 0x0, symBinAddr: 0x10001E890, symSize: 0x250 }
  - { offsetInCU: 0x4967, offset: 0x8EB74, size: 0x8, addend: 0x0, symName: __ZN5Image9GetPixelREii, symObjAddr: 0x290, symBinAddr: 0x10001EAE0, symSize: 0x30 }
  - { offsetInCU: 0x49A7, offset: 0x8EBB4, size: 0x8, addend: 0x0, symName: __ZN7Terrain4InitEv, symObjAddr: 0x2C0, symBinAddr: 0x10001EB10, symSize: 0x2D0 }
  - { offsetInCU: 0x4A72, offset: 0x8EC7F, size: 0x8, addend: 0x0, symName: __ZN7TerrainC1ENSt3__112basic_stringIcNS0_11char_traitsIcEENS0_9allocatorIcEEEE, symObjAddr: 0x590, symBinAddr: 0x10001EDE0, symSize: 0x20 }
  - { offsetInCU: 0x4AAB, offset: 0x8ECB8, size: 0x8, addend: 0x0, symName: __ZN7TerrainD2Ev, symObjAddr: 0x5B0, symBinAddr: 0x10001EE00, symSize: 0x70 }
  - { offsetInCU: 0x4AD5, offset: 0x8ECE2, size: 0x8, addend: 0x0, symName: __ZN7TerrainD1Ev, symObjAddr: 0x620, symBinAddr: 0x10001EE70, symSize: 0x20 }
  - { offsetInCU: 0x4AFF, offset: 0x8ED0C, size: 0x8, addend: 0x0, symName: __ZN7Terrain13LoadHeightMapE5Image, symObjAddr: 0x640, symBinAddr: 0x10001EE90, symSize: 0x10 }
  - { offsetInCU: 0x4B34, offset: 0x8ED41, size: 0x8, addend: 0x0, symName: __ZN7Terrain12LoadTexturesENSt3__112basic_stringIcNS0_11char_traitsIcEENS0_9allocatorIcEEEES6_, symObjAddr: 0x650, symBinAddr: 0x10001EEA0, symSize: 0xE0 }
  - { offsetInCU: 0x721F, offset: 0x95FA9, size: 0x8, addend: 0x0, symName: __ZN11TerrainNodeC2EP6Object, symObjAddr: 0x0, symBinAddr: 0x10001EF80, symSize: 0x280 }
  - { offsetInCU: 0x7281, offset: 0x9600B, size: 0x8, addend: 0x0, symName: __ZN11TerrainNodeC1EP6Object, symObjAddr: 0x350, symBinAddr: 0x10001F200, symSize: 0x30 }
  - { offsetInCU: 0x72B9, offset: 0x96043, size: 0x8, addend: 0x0, symName: __ZN11TerrainNodeD2Ev, symObjAddr: 0x380, symBinAddr: 0x10001F230, symSize: 0x60 }
  - { offsetInCU: 0x72E3, offset: 0x9606D, size: 0x8, addend: 0x0, symName: __ZN11TerrainNodeD1Ev, symObjAddr: 0x3E0, symBinAddr: 0x10001F290, symSize: 0x20 }
  - { offsetInCU: 0x730D, offset: 0x96097, size: 0x8, addend: 0x0, symName: __ZN11TerrainNode4DrawEv, symObjAddr: 0x400, symBinAddr: 0x10001F2B0, symSize: 0xA0 }
  - { offsetInCU: 0x7351, offset: 0x960DB, size: 0x8, addend: 0x0, symName: __ZN11TerrainNode6UpdateEN3glm3matILi4ELi4EfLNS0_9qualifierE0EEEP6Camera, symObjAddr: 0x4E0, symBinAddr: 0x10001F350, symSize: 0x610 }
  - { offsetInCU: 0x73B2, offset: 0x9613C, size: 0x8, addend: 0x0, symName: __ZN11TerrainNode17GetLocalTransformEv, symObjAddr: 0xCF0, symBinAddr: 0x10001F960, symSize: 0x20 }
  - { offsetInCU: 0x73D8, offset: 0x96162, size: 0x8, addend: 0x0, symName: __ZN11TerrainNode17GetWorldTransformEv, symObjAddr: 0xD10, symBinAddr: 0x10001F980, symSize: 0x20 }
  - { offsetInCU: 0x494E, offset: 0x9AAD5, size: 0x8, addend: 0x0, symName: __ZN7TextureC2Ev, symObjAddr: 0x0, symBinAddr: 0x10001F9A0, symSize: 0x20 }
  - { offsetInCU: 0x4978, offset: 0x9AAFF, size: 0x8, addend: 0x0, symName: __ZN7TextureC1Ev, symObjAddr: 0x40, symBinAddr: 0x10001F9C0, symSize: 0x20 }
  - { offsetInCU: 0x49A2, offset: 0x9AB29, size: 0x8, addend: 0x0, symName: __ZN7TextureD2Ev, symObjAddr: 0x60, symBinAddr: 0x10001F9E0, symSize: 0x90 }
  - { offsetInCU: 0x49CC, offset: 0x9AB53, size: 0x8, addend: 0x0, symName: __ZN7TextureD1Ev, symObjAddr: 0x100, symBinAddr: 0x10001FA70, symSize: 0x20 }
  - { offsetInCU: 0x49F6, offset: 0x9AB7D, size: 0x8, addend: 0x0, symName: __ZN7Texture11LoadTextureENSt3__112basic_stringIcNS0_11char_traitsIcEENS0_9allocatorIcEEEE, symObjAddr: 0x120, symBinAddr: 0x10001FA90, symSize: 0x210 }
  - { offsetInCU: 0x4A2B, offset: 0x9ABB2, size: 0x8, addend: 0x0, symName: __ZN5Image8GetWidthEv, symObjAddr: 0x330, symBinAddr: 0x10001FCA0, symSize: 0x20 }
  - { offsetInCU: 0x4A4F, offset: 0x9ABD6, size: 0x8, addend: 0x0, symName: __ZN5Image9GetHeightEv, symObjAddr: 0x350, symBinAddr: 0x10001FCC0, symSize: 0x20 }
  - { offsetInCU: 0x4A73, offset: 0x9ABFA, size: 0x8, addend: 0x0, symName: __ZNK7Texture4BindEj, symObjAddr: 0x370, symBinAddr: 0x10001FCE0, symSize: 0x60 }
  - { offsetInCU: 0x4AA7, offset: 0x9AC2E, size: 0x8, addend: 0x0, symName: __ZN7Texture6UnbindEv, symObjAddr: 0x3D0, symBinAddr: 0x10001FD40, symSize: 0x30 }
  - { offsetInCU: 0x63, offset: 0x9ACC1, size: 0x8, addend: 0x0, symName: __ZN3glm9translateIfLNS_9qualifierE0EEENS_3matILi4ELi4ET_XT0_EEERKS4_RKNS_3vecILi3ES3_XT0_EEE, symObjAddr: 0x270, symBinAddr: 0x10001FF50, symSize: 0x190 }
  - { offsetInCU: 0xC1, offset: 0x9AD1F, size: 0x8, addend: 0x0, symName: __ZN3glm5scaleIfLNS_9qualifierE0EEENS_3matILi4ELi4ET_XT0_EEERKS4_RKNS_3vecILi3ES3_XT0_EEE, symObjAddr: 0x11B0, symBinAddr: 0x100020360, symSize: 0x150 }
  - { offsetInCU: 0x11F, offset: 0x9AD7D, size: 0x8, addend: 0x0, symName: __ZN3glmmlIfLNS_9qualifierE0EEENS_3matILi4ELi4ET_XT0_EEERKS4_S6_, symObjAddr: 0x1650, symBinAddr: 0x100020680, symSize: 0x650 }
  - { offsetInCU: 0x1FD, offset: 0x9AE5B, size: 0x8, addend: 0x0, symName: __ZN3glmplIfLNS_9qualifierE0EEENS_3matILi4ELi4ET_XT0_EEERKS4_S6_, symObjAddr: 0x1D10, symBinAddr: 0x100020D40, symSize: 0x140 }
  - { offsetInCU: 0x4C23, offset: 0x9F881, size: 0x8, addend: 0x0, symName: __ZN9TransformC2Ev, symObjAddr: 0x0, symBinAddr: 0x10001FD70, symSize: 0xC0 }
  - { offsetInCU: 0x4C4D, offset: 0x9F8AB, size: 0x8, addend: 0x0, symName: __ZN9Transform12LoadIdentityEv, symObjAddr: 0x120, symBinAddr: 0x10001FE30, symSize: 0x50 }
  - { offsetInCU: 0x4C73, offset: 0x9F8D1, size: 0x8, addend: 0x0, symName: __ZN9TransformC1Ev, symObjAddr: 0x170, symBinAddr: 0x10001FE80, symSize: 0x20 }
  - { offsetInCU: 0x4C9D, offset: 0x9F8FB, size: 0x8, addend: 0x0, symName: __ZN9TransformD2Ev, symObjAddr: 0x190, symBinAddr: 0x10001FEA0, symSize: 0x20 }
  - { offsetInCU: 0x4CC7, offset: 0x9F925, size: 0x8, addend: 0x0, symName: __ZN9TransformD1Ev, symObjAddr: 0x1B0, symBinAddr: 0x10001FEC0, symSize: 0x20 }
  - { offsetInCU: 0x4CF1, offset: 0x9F94F, size: 0x8, addend: 0x0, symName: __ZN9Transform9TranslateEfff, symObjAddr: 0x200, symBinAddr: 0x10001FEE0, symSize: 0x70 }
  - { offsetInCU: 0x4D41, offset: 0x9F99F, size: 0x8, addend: 0x0, symName: __ZN9Transform9TranslateEv, symObjAddr: 0x400, symBinAddr: 0x1000200E0, symSize: 0x40 }
  - { offsetInCU: 0x4D67, offset: 0x9F9C5, size: 0x8, addend: 0x0, symName: __ZN9Transform11setPositionEfff, symObjAddr: 0x440, symBinAddr: 0x100020120, symSize: 0x40 }
  - { offsetInCU: 0x4DB7, offset: 0x9FA15, size: 0x8, addend: 0x0, symName: __ZN9Transform14updatePositionEfff, symObjAddr: 0x480, symBinAddr: 0x100020160, symSize: 0x50 }
  - { offsetInCU: 0x4E07, offset: 0x9FA65, size: 0x8, addend: 0x0, symName: __ZN9Transform6RotateEffff, symObjAddr: 0x4D0, symBinAddr: 0x1000201B0, symSize: 0x80 }
  - { offsetInCU: 0x4E65, offset: 0x9FAC3, size: 0x8, addend: 0x0, symName: __ZN9Transform6RotateEv, symObjAddr: 0x1080, symBinAddr: 0x100020230, symSize: 0x50 }
  - { offsetInCU: 0x4E8B, offset: 0x9FAE9, size: 0x8, addend: 0x0, symName: __ZN9Transform11setRotationEffff, symObjAddr: 0x10D0, symBinAddr: 0x100020280, symSize: 0x50 }
  - { offsetInCU: 0x4EE9, offset: 0x9FB47, size: 0x8, addend: 0x0, symName: __ZN9Transform20setRotationIncrementEf, symObjAddr: 0x1120, symBinAddr: 0x1000202D0, symSize: 0x20 }
  - { offsetInCU: 0x4F1D, offset: 0x9FB7B, size: 0x8, addend: 0x0, symName: __ZN9Transform5ScaleEfff, symObjAddr: 0x1140, symBinAddr: 0x1000202F0, symSize: 0x70 }
  - { offsetInCU: 0x4F6D, offset: 0x9FBCB, size: 0x8, addend: 0x0, symName: __ZN9Transform5ScaleEv, symObjAddr: 0x1300, symBinAddr: 0x1000204B0, symSize: 0x40 }
  - { offsetInCU: 0x4F93, offset: 0x9FBF1, size: 0x8, addend: 0x0, symName: __ZN9Transform8setScaleEfff, symObjAddr: 0x1340, symBinAddr: 0x1000204F0, symSize: 0x40 }
  - { offsetInCU: 0x4FE3, offset: 0x9FC41, size: 0x8, addend: 0x0, symName: __ZN9Transform11updateLocalEv, symObjAddr: 0x1380, symBinAddr: 0x100020530, symSize: 0x40 }
  - { offsetInCU: 0x5009, offset: 0x9FC67, size: 0x8, addend: 0x0, symName: __ZN9Transform18GetTransformMatrixEv, symObjAddr: 0x13C0, symBinAddr: 0x100020570, symSize: 0x30 }
  - { offsetInCU: 0x502F, offset: 0x9FC8D, size: 0x8, addend: 0x0, symName: __ZNK9Transform17GetInternalMatrixEv, symObjAddr: 0x1570, symBinAddr: 0x1000205A0, symSize: 0x30 }
  - { offsetInCU: 0x5055, offset: 0x9FCB3, size: 0x8, addend: 0x0, symName: __ZN9Transform14ApplyTransformES_, symObjAddr: 0x15A0, symBinAddr: 0x1000205D0, symSize: 0x40 }
  - { offsetInCU: 0x508A, offset: 0x9FCE8, size: 0x8, addend: 0x0, symName: __ZN9TransformmLERKS_, symObjAddr: 0x15E0, symBinAddr: 0x100020610, symSize: 0x70 }
  - { offsetInCU: 0x50BE, offset: 0x9FD1C, size: 0x8, addend: 0x0, symName: __ZN9TransformpLERKS_, symObjAddr: 0x1CA0, symBinAddr: 0x100020CD0, symSize: 0x70 }
  - { offsetInCU: 0x50F2, offset: 0x9FD50, size: 0x8, addend: 0x0, symName: __ZN9TransformaSERKS_, symObjAddr: 0x1E50, symBinAddr: 0x100020E80, symSize: 0x50 }
  - { offsetInCU: 0x5126, offset: 0x9FD84, size: 0x8, addend: 0x0, symName: __ZmlRK9TransformS1_, symObjAddr: 0x1EA0, symBinAddr: 0x100020ED0, symSize: 0xF0 }
  - { offsetInCU: 0x5170, offset: 0x9FDCE, size: 0x8, addend: 0x0, symName: __ZplRK9TransformS1_, symObjAddr: 0x1F90, symBinAddr: 0x100020FC0, symSize: 0xF0 }
  - { offsetInCU: 0x51BA, offset: 0x9FE18, size: 0x8, addend: 0x0, symName: __ZNK3glm3vecILi4EfLNS_9qualifierE0EEixEi, symObjAddr: 0x2E00, symBinAddr: 0x1000210B0, symSize: 0x100 }
  - { offsetInCU: 0x51F0, offset: 0x9FE4E, size: 0x8, addend: 0x0, symName: __ZN3glm3matILi4ELi4EfLNS_9qualifierE0EEC1ERKNS_3vecILi4EfLS1_0EEES6_S6_S6_, symObjAddr: 0x2F00, symBinAddr: 0x1000211B0, symSize: 0x40 }
  - { offsetInCU: 0x5252, offset: 0x9FEB0, size: 0x8, addend: 0x0, symName: __ZN3glm3matILi4ELi4EfLNS_9qualifierE0EEC2ERKNS_3vecILi4EfLS1_0EEES6_S6_S6_, symObjAddr: 0x2F40, symBinAddr: 0x1000211F0, symSize: 0x69 }
  - { offsetInCU: 0x26, offset: 0x9FF4C, size: 0x8, addend: 0x0, symName: __ZN6VertexC2Ev, symObjAddr: 0x0, symBinAddr: 0x100021260, symSize: 0x20 }
  - { offsetInCU: 0x64, offset: 0x9FF8A, size: 0x8, addend: 0x0, symName: __ZN3glm3allILi3ELNS_9qualifierE0EEEbRKNS_3vecIXT_EbXT0_EEE, symObjAddr: 0x670, symBinAddr: 0x100021860, symSize: 0x70 }
  - { offsetInCU: 0xD1, offset: 0x9FFF7, size: 0x8, addend: 0x0, symName: __ZN3glm8lessThanILi3EfLNS_9qualifierE0EEENS_3vecIXT_EbXT1_EEERKNS2_IXT_ET0_XT1_EEES7_, symObjAddr: 0x6E0, symBinAddr: 0x1000218D0, symSize: 0xB0 }
  - { offsetInCU: 0x155, offset: 0xA007B, size: 0x8, addend: 0x0, symName: __ZN3glm3absILi3EfLNS_9qualifierE0EEENS_3vecIXT_ET0_XT1_EEERKS4_, symObjAddr: 0x790, symBinAddr: 0x100021980, symSize: 0x50 }
  - { offsetInCU: 0x1A0, offset: 0xA00C6, size: 0x8, addend: 0x0, symName: __ZN3glm3allILi2ELNS_9qualifierE0EEEbRKNS_3vecIXT_EbXT0_EEE, symObjAddr: 0x880, symBinAddr: 0x100021A00, symSize: 0x70 }
  - { offsetInCU: 0x20D, offset: 0xA0133, size: 0x8, addend: 0x0, symName: __ZN3glm8lessThanILi2EfLNS_9qualifierE0EEENS_3vecIXT_EbXT1_EEERKNS2_IXT_ET0_XT1_EEES7_, symObjAddr: 0x8F0, symBinAddr: 0x100021A70, symSize: 0x90 }
  - { offsetInCU: 0x291, offset: 0xA01B7, size: 0x8, addend: 0x0, symName: __ZN3glm3absILi2EfLNS_9qualifierE0EEENS_3vecIXT_ET0_XT1_EEERKS4_, symObjAddr: 0x980, symBinAddr: 0x100021B00, symSize: 0x30 }
  - { offsetInCU: 0x31AF, offset: 0xA30D5, size: 0x8, addend: 0x0, symName: __ZN6VertexC2Ev, symObjAddr: 0x0, symBinAddr: 0x100021260, symSize: 0x20 }
  - { offsetInCU: 0x31D9, offset: 0xA30FF, size: 0x8, addend: 0x0, symName: __ZN6VertexC1Ev, symObjAddr: 0x20, symBinAddr: 0x100021280, symSize: 0x20 }
  - { offsetInCU: 0x3203, offset: 0xA3129, size: 0x8, addend: 0x0, symName: __ZN6VertexD2Ev, symObjAddr: 0x40, symBinAddr: 0x1000212A0, symSize: 0x10 }
  - { offsetInCU: 0x322D, offset: 0xA3153, size: 0x8, addend: 0x0, symName: __ZN6VertexD1Ev, symObjAddr: 0x50, symBinAddr: 0x1000212B0, symSize: 0x20 }
  - { offsetInCU: 0x3257, offset: 0xA317D, size: 0x8, addend: 0x0, symName: __ZN6VertexC2Effffffff, symObjAddr: 0x70, symBinAddr: 0x1000212D0, symSize: 0xD0 }
  - { offsetInCU: 0x32F1, offset: 0xA3217, size: 0x8, addend: 0x0, symName: __ZN6VertexC1Effffffff, symObjAddr: 0x1B0, symBinAddr: 0x1000213A0, symSize: 0x70 }
  - { offsetInCU: 0x338B, offset: 0xA32B1, size: 0x8, addend: 0x0, symName: __ZNK6VertexeqERKS_, symObjAddr: 0x220, symBinAddr: 0x100021410, symSize: 0x450 }
  - { offsetInCU: 0x33CE, offset: 0xA32F4, size: 0x8, addend: 0x0, symName: __ZN3glm3vecILi3EfLNS_9qualifierE0EEC1Ef, symObjAddr: 0x850, symBinAddr: 0x1000219D0, symSize: 0x30 }
  - { offsetInCU: 0x3406, offset: 0xA332C, size: 0x8, addend: 0x0, symName: __ZN3glm3vecILi2EfLNS_9qualifierE0EEC1Ef, symObjAddr: 0xA00, symBinAddr: 0x100021B30, symSize: 0x30 }
  - { offsetInCU: 0x3466, offset: 0xA338C, size: 0x8, addend: 0x0, symName: __ZNK3glm3vecILi3EbLNS_9qualifierE0EEixEi, symObjAddr: 0xAA0, symBinAddr: 0x100021B60, symSize: 0xF0 }
  - { offsetInCU: 0x349A, offset: 0xA33C0, size: 0x8, addend: 0x0, symName: __ZN3glm3vecILi3EbLNS_9qualifierE0EE6lengthEv, symObjAddr: 0xB90, symBinAddr: 0x100021C50, symSize: 0x10 }
  - { offsetInCU: 0x34AE, offset: 0xA33D4, size: 0x8, addend: 0x0, symName: __ZN3glm3vecILi3EbLNS_9qualifierE0EEixEi, symObjAddr: 0xC90, symBinAddr: 0x100021C60, symSize: 0xF0 }
  - { offsetInCU: 0x34E2, offset: 0xA3408, size: 0x8, addend: 0x0, symName: __ZN3glm6detail18compute_abs_vectorILi3EfLNS_9qualifierE0ELb0EE4callERKNS_3vecILi3EfLS2_0EEE, symObjAddr: 0xD90, symBinAddr: 0x100021D50, symSize: 0x60 }
  - { offsetInCU: 0x3515, offset: 0xA343B, size: 0x8, addend: 0x0, symName: __ZN3glm6detail8functor1INS_3vecELi3EffLNS_9qualifierE0EE4callEPFffERKNS2_ILi3EfLS3_0EEE, symObjAddr: 0xDF0, symBinAddr: 0x100021DB0, symSize: 0x80 }
  - { offsetInCU: 0x3546, offset: 0xA346C, size: 0x8, addend: 0x0, symName: __ZN3glm3vecILi3EfLNS_9qualifierE0EEC2Ef, symObjAddr: 0xEE0, symBinAddr: 0x100021E30, symSize: 0x30 }
  - { offsetInCU: 0x3597, offset: 0xA34BD, size: 0x8, addend: 0x0, symName: __ZNK3glm3vecILi2EbLNS_9qualifierE0EEixEi, symObjAddr: 0xF10, symBinAddr: 0x100021E60, symSize: 0xC0 }
  - { offsetInCU: 0x35CB, offset: 0xA34F1, size: 0x8, addend: 0x0, symName: __ZN3glm3vecILi2EbLNS_9qualifierE0EE6lengthEv, symObjAddr: 0xFD0, symBinAddr: 0x100021F20, symSize: 0x10 }
  - { offsetInCU: 0x35DF, offset: 0xA3505, size: 0x8, addend: 0x0, symName: __ZNK3glm3vecILi2EfLNS_9qualifierE0EEixEi, symObjAddr: 0xFE0, symBinAddr: 0x100021F30, symSize: 0xC0 }
  - { offsetInCU: 0x3613, offset: 0xA3539, size: 0x8, addend: 0x0, symName: __ZN3glm3vecILi2EbLNS_9qualifierE0EEixEi, symObjAddr: 0x10A0, symBinAddr: 0x100021FF0, symSize: 0xC0 }
  - { offsetInCU: 0x3647, offset: 0xA356D, size: 0x8, addend: 0x0, symName: __ZN3glm3vecILi2EfLNS_9qualifierE0EE6lengthEv, symObjAddr: 0x1160, symBinAddr: 0x1000220B0, symSize: 0x10 }
  - { offsetInCU: 0x365B, offset: 0xA3581, size: 0x8, addend: 0x0, symName: __ZN3glm6detail18compute_abs_vectorILi2EfLNS_9qualifierE0ELb0EE4callERKNS_3vecILi2EfLS2_0EEE, symObjAddr: 0x1170, symBinAddr: 0x1000220C0, symSize: 0x30 }
  - { offsetInCU: 0x367E, offset: 0xA35A4, size: 0x8, addend: 0x0, symName: __ZN3glm6detail8functor1INS_3vecELi2EffLNS_9qualifierE0EE4callEPFffERKNS2_ILi2EfLS3_0EEE, symObjAddr: 0x11A0, symBinAddr: 0x1000220F0, symSize: 0x50 }
  - { offsetInCU: 0x36AF, offset: 0xA35D5, size: 0x8, addend: 0x0, symName: __ZN3glm3vecILi2EfLNS_9qualifierE0EEC2Ef, symObjAddr: 0x11F0, symBinAddr: 0x100022140, symSize: 0x26 }
  - { offsetInCU: 0x290D, offset: 0xA5F47, size: 0x8, addend: 0x0, symName: __ZN18VertexBufferLayoutC2Ev, symObjAddr: 0x0, symBinAddr: 0x100022170, symSize: 0x20 }
  - { offsetInCU: 0x2937, offset: 0xA5F71, size: 0x8, addend: 0x0, symName: __ZN18VertexBufferLayoutC1Ev, symObjAddr: 0x20, symBinAddr: 0x100022190, symSize: 0x20 }
  - { offsetInCU: 0x2961, offset: 0xA5F9B, size: 0x8, addend: 0x0, symName: __ZN18VertexBufferLayoutD2Ev, symObjAddr: 0x40, symBinAddr: 0x1000221B0, symSize: 0x60 }
  - { offsetInCU: 0x298B, offset: 0xA5FC5, size: 0x8, addend: 0x0, symName: __ZN18VertexBufferLayoutD1Ev, symObjAddr: 0xB0, symBinAddr: 0x100022210, symSize: 0x20 }
  - { offsetInCU: 0x29B5, offset: 0xA5FEF, size: 0x8, addend: 0x0, symName: __ZN18VertexBufferLayout4BindEv, symObjAddr: 0xD0, symBinAddr: 0x100022230, symSize: 0x60 }
  - { offsetInCU: 0x29DB, offset: 0xA6015, size: 0x8, addend: 0x0, symName: __ZN18VertexBufferLayout6UnbindEv, symObjAddr: 0x130, symBinAddr: 0x100022290, symSize: 0x40 }
  - { offsetInCU: 0x2A01, offset: 0xA603B, size: 0x8, addend: 0x0, symName: __ZN18VertexBufferLayout26CreatePositionBufferLayoutEjjPfPj, symObjAddr: 0x170, symBinAddr: 0x1000222D0, symSize: 0x140 }
  - { offsetInCU: 0x2A5F, offset: 0xA6099, size: 0x8, addend: 0x0, symName: __ZN18VertexBufferLayout25CreateTextureBufferLayoutEjjPfPj, symObjAddr: 0x2B0, symBinAddr: 0x100022410, symSize: 0x180 }
  - { offsetInCU: 0x2ABD, offset: 0xA60F7, size: 0x8, addend: 0x0, symName: __ZN18VertexBufferLayout24CreateNormalBufferLayoutEjjPfPj, symObjAddr: 0x430, symBinAddr: 0x100022590, symSize: 0x228 }
  - { offsetInCU: 0x26, offset: 0xA6180, size: 0x8, addend: 0x0, symName: _gladLoadGL, symObjAddr: 0x0, symBinAddr: 0x1000227C0, symSize: 0x40 }
  - { offsetInCU: 0x40, offset: 0xA619A, size: 0x8, addend: 0x0, symName: _GLVersion, symObjAddr: 0x280B8, symBinAddr: 0x100030570, symSize: 0x0 }
  - { offsetInCU: 0x7E, offset: 0xA61D8, size: 0x8, addend: 0x0, symName: _GLAD_GL_VERSION_1_0, symObjAddr: 0x280C0, symBinAddr: 0x100030578, symSize: 0x0 }
  - { offsetInCU: 0x93, offset: 0xA61ED, size: 0x8, addend: 0x0, symName: _GLAD_GL_VERSION_1_1, symObjAddr: 0x280C4, symBinAddr: 0x10003057C, symSize: 0x0 }
  - { offsetInCU: 0xA8, offset: 0xA6202, size: 0x8, addend: 0x0, symName: _GLAD_GL_VERSION_1_2, symObjAddr: 0x280C8, symBinAddr: 0x100030580, symSize: 0x0 }
  - { offsetInCU: 0xBD, offset: 0xA6217, size: 0x8, addend: 0x0, symName: _GLAD_GL_VERSION_1_3, symObjAddr: 0x280CC, symBinAddr: 0x100030584, symSize: 0x0 }
  - { offsetInCU: 0xD2, offset: 0xA622C, size: 0x8, addend: 0x0, symName: _GLAD_GL_VERSION_1_4, symObjAddr: 0x280D0, symBinAddr: 0x100030588, symSize: 0x0 }
  - { offsetInCU: 0xE7, offset: 0xA6241, size: 0x8, addend: 0x0, symName: _GLAD_GL_VERSION_1_5, symObjAddr: 0x280D4, symBinAddr: 0x10003058C, symSize: 0x0 }
  - { offsetInCU: 0xFC, offset: 0xA6256, size: 0x8, addend: 0x0, symName: _GLAD_GL_VERSION_2_0, symObjAddr: 0x280D8, symBinAddr: 0x100030590, symSize: 0x0 }
  - { offsetInCU: 0x111, offset: 0xA626B, size: 0x8, addend: 0x0, symName: _GLAD_GL_VERSION_2_1, symObjAddr: 0x280DC, symBinAddr: 0x100030594, symSize: 0x0 }
  - { offsetInCU: 0x126, offset: 0xA6280, size: 0x8, addend: 0x0, symName: _GLAD_GL_VERSION_3_0, symObjAddr: 0x280E0, symBinAddr: 0x100030598, symSize: 0x0 }
  - { offsetInCU: 0x13B, offset: 0xA6295, size: 0x8, addend: 0x0, symName: _GLAD_GL_VERSION_3_1, symObjAddr: 0x280E4, symBinAddr: 0x10003059C, symSize: 0x0 }
  - { offsetInCU: 0x150, offset: 0xA62AA, size: 0x8, addend: 0x0, symName: _GLAD_GL_VERSION_3_2, symObjAddr: 0x280E8, symBinAddr: 0x1000305A0, symSize: 0x0 }
  - { offsetInCU: 0x165, offset: 0xA62BF, size: 0x8, addend: 0x0, symName: _GLAD_GL_VERSION_3_3, symObjAddr: 0x280EC, symBinAddr: 0x1000305A4, symSize: 0x0 }
  - { offsetInCU: 0x17A, offset: 0xA62D4, size: 0x8, addend: 0x0, symName: _glad_glCopyTexImage1D, symObjAddr: 0x280F0, symBinAddr: 0x1000305A8, symSize: 0x0 }
  - { offsetInCU: 0x1E3, offset: 0xA633D, size: 0x8, addend: 0x0, symName: _glad_glVertexAttribI3ui, symObjAddr: 0x280F8, symBinAddr: 0x1000305B0, symSize: 0x0 }
  - { offsetInCU: 0x220, offset: 0xA637A, size: 0x8, addend: 0x0, symName: _glad_glWindowPos2s, symObjAddr: 0x28100, symBinAddr: 0x1000305B8, symSize: 0x0 }
  - { offsetInCU: 0x265, offset: 0xA63BF, size: 0x8, addend: 0x0, symName: _glad_glWindowPos2i, symObjAddr: 0x28108, symBinAddr: 0x1000305C0, symSize: 0x0 }
  - { offsetInCU: 0x298, offset: 0xA63F2, size: 0x8, addend: 0x0, symName: _glad_glWindowPos2f, symObjAddr: 0x28110, symBinAddr: 0x1000305C8, symSize: 0x0 }
  - { offsetInCU: 0x2D2, offset: 0xA642C, size: 0x8, addend: 0x0, symName: _glad_glWindowPos2d, symObjAddr: 0x28118, symBinAddr: 0x1000305D0, symSize: 0x0 }
  - { offsetInCU: 0x318, offset: 0xA6472, size: 0x8, addend: 0x0, symName: _glad_glVertex2fv, symObjAddr: 0x28120, symBinAddr: 0x1000305D8, symSize: 0x0 }
  - { offsetInCU: 0x352, offset: 0xA64AC, size: 0x8, addend: 0x0, symName: _glad_glIndexi, symObjAddr: 0x28128, symBinAddr: 0x1000305E0, symSize: 0x0 }
  - { offsetInCU: 0x382, offset: 0xA64DC, size: 0x8, addend: 0x0, symName: _glad_glFramebufferRenderbuffer, symObjAddr: 0x28130, symBinAddr: 0x1000305E8, symSize: 0x0 }
  - { offsetInCU: 0x3C1, offset: 0xA651B, size: 0x8, addend: 0x0, symName: _glad_glRectdv, symObjAddr: 0x28138, symBinAddr: 0x1000305F0, symSize: 0x0 }
  - { offsetInCU: 0x400, offset: 0xA655A, size: 0x8, addend: 0x0, symName: _glad_glCompressedTexSubImage3D, symObjAddr: 0x28140, symBinAddr: 0x1000305F8, symSize: 0x0 }
  - { offsetInCU: 0x468, offset: 0xA65C2, size: 0x8, addend: 0x0, symName: _glad_glEvalCoord2d, symObjAddr: 0x28148, symBinAddr: 0x100030600, symSize: 0x0 }
  - { offsetInCU: 0x48B, offset: 0xA65E5, size: 0x8, addend: 0x0, symName: _glad_glEvalCoord2f, symObjAddr: 0x28150, symBinAddr: 0x100030608, symSize: 0x0 }
  - { offsetInCU: 0x4AE, offset: 0xA6608, size: 0x8, addend: 0x0, symName: _glad_glIndexd, symObjAddr: 0x28158, symBinAddr: 0x100030610, symSize: 0x0 }
  - { offsetInCU: 0x4DE, offset: 0xA6638, size: 0x8, addend: 0x0, symName: _glad_glVertexAttrib1sv, symObjAddr: 0x28160, symBinAddr: 0x100030618, symSize: 0x0 }
  - { offsetInCU: 0x51D, offset: 0xA6677, size: 0x8, addend: 0x0, symName: _glad_glIndexf, symObjAddr: 0x28168, symBinAddr: 0x100030620, symSize: 0x0 }
  - { offsetInCU: 0x54D, offset: 0xA66A7, size: 0x8, addend: 0x0, symName: _glad_glBindSampler, symObjAddr: 0x28170, symBinAddr: 0x100030628, symSize: 0x0 }
  - { offsetInCU: 0x582, offset: 0xA66DC, size: 0x8, addend: 0x0, symName: _glad_glLineWidth, symObjAddr: 0x28178, symBinAddr: 0x100030630, symSize: 0x0 }
  - { offsetInCU: 0x5A5, offset: 0xA66FF, size: 0x8, addend: 0x0, symName: _glad_glColorP3uiv, symObjAddr: 0x28180, symBinAddr: 0x100030638, symSize: 0x0 }
  - { offsetInCU: 0x5E4, offset: 0xA673E, size: 0x8, addend: 0x0, symName: _glad_glGetIntegeri_v, symObjAddr: 0x28188, symBinAddr: 0x100030640, symSize: 0x0 }
  - { offsetInCU: 0x623, offset: 0xA677D, size: 0x8, addend: 0x0, symName: _glad_glGetMapfv, symObjAddr: 0x28190, symBinAddr: 0x100030648, symSize: 0x0 }
  - { offsetInCU: 0x662, offset: 0xA67BC, size: 0x8, addend: 0x0, symName: _glad_glIndexs, symObjAddr: 0x28198, symBinAddr: 0x100030650, symSize: 0x0 }
  - { offsetInCU: 0x692, offset: 0xA67EC, size: 0x8, addend: 0x0, symName: _glad_glCompileShader, symObjAddr: 0x281A0, symBinAddr: 0x100030658, symSize: 0x0 }
  - { offsetInCU: 0x6C2, offset: 0xA681C, size: 0x8, addend: 0x0, symName: _glad_glGetTransformFeedbackVarying, symObjAddr: 0x281A8, symBinAddr: 0x100030660, symSize: 0x0 }
  - { offsetInCU: 0x726, offset: 0xA6880, size: 0x8, addend: 0x0, symName: _glad_glWindowPos2iv, symObjAddr: 0x281B0, symBinAddr: 0x100030668, symSize: 0x0 }
  - { offsetInCU: 0x760, offset: 0xA68BA, size: 0x8, addend: 0x0, symName: _glad_glIndexfv, symObjAddr: 0x281B8, symBinAddr: 0x100030670, symSize: 0x0 }
  - { offsetInCU: 0x783, offset: 0xA68DD, size: 0x8, addend: 0x0, symName: _glad_glFogiv, symObjAddr: 0x281C0, symBinAddr: 0x100030678, symSize: 0x0 }
  - { offsetInCU: 0x7B8, offset: 0xA6912, size: 0x8, addend: 0x0, symName: _glad_glStencilMaskSeparate, symObjAddr: 0x281C8, symBinAddr: 0x100030680, symSize: 0x0 }
  - { offsetInCU: 0x7ED, offset: 0xA6947, size: 0x8, addend: 0x0, symName: _glad_glRasterPos2fv, symObjAddr: 0x281D0, symBinAddr: 0x100030688, symSize: 0x0 }
  - { offsetInCU: 0x810, offset: 0xA696A, size: 0x8, addend: 0x0, symName: _glad_glLightModeliv, symObjAddr: 0x281D8, symBinAddr: 0x100030690, symSize: 0x0 }
  - { offsetInCU: 0x833, offset: 0xA698D, size: 0x8, addend: 0x0, symName: _glad_glColor4ui, symObjAddr: 0x281E0, symBinAddr: 0x100030698, symSize: 0x0 }
  - { offsetInCU: 0x856, offset: 0xA69B0, size: 0x8, addend: 0x0, symName: _glad_glSecondaryColor3fv, symObjAddr: 0x281E8, symBinAddr: 0x1000306A0, symSize: 0x0 }
  - { offsetInCU: 0x879, offset: 0xA69D3, size: 0x8, addend: 0x0, symName: _glad_glMultiTexCoordP3ui, symObjAddr: 0x281F0, symBinAddr: 0x1000306A8, symSize: 0x0 }
  - { offsetInCU: 0x8B3, offset: 0xA6A0D, size: 0x8, addend: 0x0, symName: _glad_glFogfv, symObjAddr: 0x281F8, symBinAddr: 0x1000306B0, symSize: 0x0 }
  - { offsetInCU: 0x8E8, offset: 0xA6A42, size: 0x8, addend: 0x0, symName: _glad_glVertexP4ui, symObjAddr: 0x28200, symBinAddr: 0x1000306B8, symSize: 0x0 }
  - { offsetInCU: 0x90B, offset: 0xA6A65, size: 0x8, addend: 0x0, symName: _glad_glEnablei, symObjAddr: 0x28208, symBinAddr: 0x1000306C0, symSize: 0x0 }
  - { offsetInCU: 0x92E, offset: 0xA6A88, size: 0x8, addend: 0x0, symName: _glad_glVertex4iv, symObjAddr: 0x28210, symBinAddr: 0x1000306C8, symSize: 0x0 }
  - { offsetInCU: 0x951, offset: 0xA6AAB, size: 0x8, addend: 0x0, symName: _glad_glEvalCoord1fv, symObjAddr: 0x28218, symBinAddr: 0x1000306D0, symSize: 0x0 }
  - { offsetInCU: 0x974, offset: 0xA6ACE, size: 0x8, addend: 0x0, symName: _glad_glWindowPos2sv, symObjAddr: 0x28220, symBinAddr: 0x1000306D8, symSize: 0x0 }
  - { offsetInCU: 0x9A4, offset: 0xA6AFE, size: 0x8, addend: 0x0, symName: _glad_glVertexAttribP4ui, symObjAddr: 0x28228, symBinAddr: 0x1000306E0, symSize: 0x0 }
  - { offsetInCU: 0x9F5, offset: 0xA6B4F, size: 0x8, addend: 0x0, symName: _glad_glCreateShader, symObjAddr: 0x28230, symBinAddr: 0x1000306E8, symSize: 0x0 }
  - { offsetInCU: 0xA28, offset: 0xA6B82, size: 0x8, addend: 0x0, symName: _glad_glIsBuffer, symObjAddr: 0x28238, symBinAddr: 0x1000306F0, symSize: 0x0 }
  - { offsetInCU: 0xA5B, offset: 0xA6BB5, size: 0x8, addend: 0x0, symName: _glad_glGetMultisamplefv, symObjAddr: 0x28240, symBinAddr: 0x1000306F8, symSize: 0x0 }
  - { offsetInCU: 0xA95, offset: 0xA6BEF, size: 0x8, addend: 0x0, symName: _glad_glGenRenderbuffers, symObjAddr: 0x28248, symBinAddr: 0x100030700, symSize: 0x0 }
  - { offsetInCU: 0xACF, offset: 0xA6C29, size: 0x8, addend: 0x0, symName: _glad_glCopyTexSubImage2D, symObjAddr: 0x28250, symBinAddr: 0x100030708, symSize: 0x0 }
  - { offsetInCU: 0xB22, offset: 0xA6C7C, size: 0x8, addend: 0x0, symName: _glad_glCompressedTexImage2D, symObjAddr: 0x28258, symBinAddr: 0x100030710, symSize: 0x0 }
  - { offsetInCU: 0xB75, offset: 0xA6CCF, size: 0x8, addend: 0x0, symName: _glad_glVertexAttrib1f, symObjAddr: 0x28260, symBinAddr: 0x100030718, symSize: 0x0 }
  - { offsetInCU: 0xBAA, offset: 0xA6D04, size: 0x8, addend: 0x0, symName: _glad_glBlendFuncSeparate, symObjAddr: 0x28268, symBinAddr: 0x100030720, symSize: 0x0 }
  - { offsetInCU: 0xBE9, offset: 0xA6D43, size: 0x8, addend: 0x0, symName: _glad_glVertex4fv, symObjAddr: 0x28270, symBinAddr: 0x100030728, symSize: 0x0 }
  - { offsetInCU: 0xC0C, offset: 0xA6D66, size: 0x8, addend: 0x0, symName: _glad_glBindTexture, symObjAddr: 0x28278, symBinAddr: 0x100030730, symSize: 0x0 }
  - { offsetInCU: 0xC2F, offset: 0xA6D89, size: 0x8, addend: 0x0, symName: _glad_glVertexAttrib1s, symObjAddr: 0x28280, symBinAddr: 0x100030738, symSize: 0x0 }
  - { offsetInCU: 0xC64, offset: 0xA6DBE, size: 0x8, addend: 0x0, symName: _glad_glTexCoord2fv, symObjAddr: 0x28288, symBinAddr: 0x100030740, symSize: 0x0 }
  - { offsetInCU: 0xC87, offset: 0xA6DE1, size: 0x8, addend: 0x0, symName: _glad_glSampleMaski, symObjAddr: 0x28290, symBinAddr: 0x100030748, symSize: 0x0 }
  - { offsetInCU: 0xCC7, offset: 0xA6E21, size: 0x8, addend: 0x0, symName: _glad_glVertexP2ui, symObjAddr: 0x28298, symBinAddr: 0x100030750, symSize: 0x0 }
  - { offsetInCU: 0xCEA, offset: 0xA6E44, size: 0x8, addend: 0x0, symName: _glad_glDrawRangeElementsBaseVertex, symObjAddr: 0x282A0, symBinAddr: 0x100030758, symSize: 0x0 }
  - { offsetInCU: 0xD38, offset: 0xA6E92, size: 0x8, addend: 0x0, symName: _glad_glTexCoord4fv, symObjAddr: 0x282A8, symBinAddr: 0x100030760, symSize: 0x0 }
  - { offsetInCU: 0xD5B, offset: 0xA6EB5, size: 0x8, addend: 0x0, symName: _glad_glUniformMatrix3x2fv, symObjAddr: 0x282B0, symBinAddr: 0x100030768, symSize: 0x0 }
  - { offsetInCU: 0xD9A, offset: 0xA6EF4, size: 0x8, addend: 0x0, symName: _glad_glPointSize, symObjAddr: 0x282B8, symBinAddr: 0x100030770, symSize: 0x0 }
  - { offsetInCU: 0xDBD, offset: 0xA6F17, size: 0x8, addend: 0x0, symName: _glad_glVertexAttrib2dv, symObjAddr: 0x282C0, symBinAddr: 0x100030778, symSize: 0x0 }
  - { offsetInCU: 0xDF2, offset: 0xA6F4C, size: 0x8, addend: 0x0, symName: _glad_glDeleteProgram, symObjAddr: 0x282C8, symBinAddr: 0x100030780, symSize: 0x0 }
  - { offsetInCU: 0xE15, offset: 0xA6F6F, size: 0x8, addend: 0x0, symName: _glad_glColor4bv, symObjAddr: 0x282D0, symBinAddr: 0x100030788, symSize: 0x0 }
  - { offsetInCU: 0xE61, offset: 0xA6FBB, size: 0x8, addend: 0x0, symName: _glad_glRasterPos2f, symObjAddr: 0x282D8, symBinAddr: 0x100030790, symSize: 0x0 }
  - { offsetInCU: 0xE84, offset: 0xA6FDE, size: 0x8, addend: 0x0, symName: _glad_glRasterPos2d, symObjAddr: 0x282E0, symBinAddr: 0x100030798, symSize: 0x0 }
  - { offsetInCU: 0xEA7, offset: 0xA7001, size: 0x8, addend: 0x0, symName: _glad_glLoadIdentity, symObjAddr: 0x282E8, symBinAddr: 0x1000307A0, symSize: 0x0 }
  - { offsetInCU: 0xED0, offset: 0xA702A, size: 0x8, addend: 0x0, symName: _glad_glRasterPos2i, symObjAddr: 0x282F0, symBinAddr: 0x1000307A8, symSize: 0x0 }
  - { offsetInCU: 0xEF3, offset: 0xA704D, size: 0x8, addend: 0x0, symName: _glad_glRenderbufferStorage, symObjAddr: 0x282F8, symBinAddr: 0x1000307B0, symSize: 0x0 }
  - { offsetInCU: 0xF32, offset: 0xA708C, size: 0x8, addend: 0x0, symName: _glad_glUniformMatrix4x3fv, symObjAddr: 0x28300, symBinAddr: 0x1000307B8, symSize: 0x0 }
  - { offsetInCU: 0xF55, offset: 0xA70AF, size: 0x8, addend: 0x0, symName: _glad_glColor3b, symObjAddr: 0x28308, symBinAddr: 0x1000307C0, symSize: 0x0 }
  - { offsetInCU: 0xF8F, offset: 0xA70E9, size: 0x8, addend: 0x0, symName: _glad_glClearBufferfv, symObjAddr: 0x28310, symBinAddr: 0x1000307C8, symSize: 0x0 }
  - { offsetInCU: 0xFC9, offset: 0xA7123, size: 0x8, addend: 0x0, symName: _glad_glEdgeFlag, symObjAddr: 0x28318, symBinAddr: 0x1000307D0, symSize: 0x0 }
  - { offsetInCU: 0xFF9, offset: 0xA7153, size: 0x8, addend: 0x0, symName: _glad_glDeleteSamplers, symObjAddr: 0x28320, symBinAddr: 0x1000307D8, symSize: 0x0 }
  - { offsetInCU: 0x102E, offset: 0xA7188, size: 0x8, addend: 0x0, symName: _glad_glVertex3d, symObjAddr: 0x28328, symBinAddr: 0x1000307E0, symSize: 0x0 }
  - { offsetInCU: 0x1068, offset: 0xA71C2, size: 0x8, addend: 0x0, symName: _glad_glVertex3f, symObjAddr: 0x28330, symBinAddr: 0x1000307E8, symSize: 0x0 }
  - { offsetInCU: 0x10A2, offset: 0xA71FC, size: 0x8, addend: 0x0, symName: _glad_glVertex3i, symObjAddr: 0x28338, symBinAddr: 0x1000307F0, symSize: 0x0 }
  - { offsetInCU: 0x10DC, offset: 0xA7236, size: 0x8, addend: 0x0, symName: _glad_glColor3i, symObjAddr: 0x28340, symBinAddr: 0x1000307F8, symSize: 0x0 }
  - { offsetInCU: 0x10FF, offset: 0xA7259, size: 0x8, addend: 0x0, symName: _glad_glUniform3f, symObjAddr: 0x28348, symBinAddr: 0x100030800, symSize: 0x0 }
  - { offsetInCU: 0x113E, offset: 0xA7298, size: 0x8, addend: 0x0, symName: _glad_glVertexAttrib4ubv, symObjAddr: 0x28350, symBinAddr: 0x100030808, symSize: 0x0 }
  - { offsetInCU: 0x1188, offset: 0xA72E2, size: 0x8, addend: 0x0, symName: _glad_glColor3s, symObjAddr: 0x28358, symBinAddr: 0x100030810, symSize: 0x0 }
  - { offsetInCU: 0x11C2, offset: 0xA731C, size: 0x8, addend: 0x0, symName: _glad_glVertex3s, symObjAddr: 0x28360, symBinAddr: 0x100030818, symSize: 0x0 }
  - { offsetInCU: 0x11E5, offset: 0xA733F, size: 0x8, addend: 0x0, symName: _glad_glTexCoordP2ui, symObjAddr: 0x28368, symBinAddr: 0x100030820, symSize: 0x0 }
  - { offsetInCU: 0x1208, offset: 0xA7362, size: 0x8, addend: 0x0, symName: _glad_glColorMaski, symObjAddr: 0x28370, symBinAddr: 0x100030828, symSize: 0x0 }
  - { offsetInCU: 0x124C, offset: 0xA73A6, size: 0x8, addend: 0x0, symName: _glad_glClearBufferfi, symObjAddr: 0x28378, symBinAddr: 0x100030830, symSize: 0x0 }
  - { offsetInCU: 0x128B, offset: 0xA73E5, size: 0x8, addend: 0x0, symName: _glad_glTexCoord1iv, symObjAddr: 0x28380, symBinAddr: 0x100030838, symSize: 0x0 }
  - { offsetInCU: 0x12AE, offset: 0xA7408, size: 0x8, addend: 0x0, symName: _glad_glBlitFramebuffer, symObjAddr: 0x28388, symBinAddr: 0x100030840, symSize: 0x0 }
  - { offsetInCU: 0x130B, offset: 0xA7465, size: 0x8, addend: 0x0, symName: _glad_glMultiTexCoordP2ui, symObjAddr: 0x28390, symBinAddr: 0x100030848, symSize: 0x0 }
  - { offsetInCU: 0x132E, offset: 0xA7488, size: 0x8, addend: 0x0, symName: _glad_glGetSamplerParameterIiv, symObjAddr: 0x28398, symBinAddr: 0x100030850, symSize: 0x0 }
  - { offsetInCU: 0x1368, offset: 0xA74C2, size: 0x8, addend: 0x0, symName: _glad_glGetFragDataIndex, symObjAddr: 0x283A0, symBinAddr: 0x100030858, symSize: 0x0 }
  - { offsetInCU: 0x13AA, offset: 0xA7504, size: 0x8, addend: 0x0, symName: _glad_glVertexAttrib3f, symObjAddr: 0x283A8, symBinAddr: 0x100030860, symSize: 0x0 }
  - { offsetInCU: 0x13E9, offset: 0xA7543, size: 0x8, addend: 0x0, symName: _glad_glVertex2iv, symObjAddr: 0x283B0, symBinAddr: 0x100030868, symSize: 0x0 }
  - { offsetInCU: 0x140C, offset: 0xA7566, size: 0x8, addend: 0x0, symName: _glad_glColor3sv, symObjAddr: 0x283B8, symBinAddr: 0x100030870, symSize: 0x0 }
  - { offsetInCU: 0x142F, offset: 0xA7589, size: 0x8, addend: 0x0, symName: _glad_glGetVertexAttribdv, symObjAddr: 0x283C0, symBinAddr: 0x100030878, symSize: 0x0 }
  - { offsetInCU: 0x146E, offset: 0xA75C8, size: 0x8, addend: 0x0, symName: _glad_glUniformMatrix3x4fv, symObjAddr: 0x283C8, symBinAddr: 0x100030880, symSize: 0x0 }
  - { offsetInCU: 0x1491, offset: 0xA75EB, size: 0x8, addend: 0x0, symName: _glad_glNormalPointer, symObjAddr: 0x283D0, symBinAddr: 0x100030888, symSize: 0x0 }
  - { offsetInCU: 0x14CB, offset: 0xA7625, size: 0x8, addend: 0x0, symName: _glad_glTexCoordP3uiv, symObjAddr: 0x283D8, symBinAddr: 0x100030890, symSize: 0x0 }
  - { offsetInCU: 0x14EE, offset: 0xA7648, size: 0x8, addend: 0x0, symName: _glad_glVertex4sv, symObjAddr: 0x283E0, symBinAddr: 0x100030898, symSize: 0x0 }
  - { offsetInCU: 0x1511, offset: 0xA766B, size: 0x8, addend: 0x0, symName: _glad_glPassThrough, symObjAddr: 0x283E8, symBinAddr: 0x1000308A0, symSize: 0x0 }
  - { offsetInCU: 0x1534, offset: 0xA768E, size: 0x8, addend: 0x0, symName: _glad_glMultiTexCoordP4ui, symObjAddr: 0x283F0, symBinAddr: 0x1000308A8, symSize: 0x0 }
  - { offsetInCU: 0x1557, offset: 0xA76B1, size: 0x8, addend: 0x0, symName: _glad_glFogi, symObjAddr: 0x283F8, symBinAddr: 0x1000308B0, symSize: 0x0 }
  - { offsetInCU: 0x158C, offset: 0xA76E6, size: 0x8, addend: 0x0, symName: _glad_glBegin, symObjAddr: 0x28400, symBinAddr: 0x1000308B8, symSize: 0x0 }
  - { offsetInCU: 0x15BC, offset: 0xA7716, size: 0x8, addend: 0x0, symName: _glad_glEvalCoord2dv, symObjAddr: 0x28408, symBinAddr: 0x1000308C0, symSize: 0x0 }
  - { offsetInCU: 0x15EC, offset: 0xA7746, size: 0x8, addend: 0x0, symName: _glad_glColor3ubv, symObjAddr: 0x28410, symBinAddr: 0x1000308C8, symSize: 0x0 }
  - { offsetInCU: 0x161C, offset: 0xA7776, size: 0x8, addend: 0x0, symName: _glad_glVertexPointer, symObjAddr: 0x28418, symBinAddr: 0x1000308D0, symSize: 0x0 }
  - { offsetInCU: 0x165B, offset: 0xA77B5, size: 0x8, addend: 0x0, symName: _glad_glSecondaryColor3uiv, symObjAddr: 0x28420, symBinAddr: 0x1000308D8, symSize: 0x0 }
  - { offsetInCU: 0x168B, offset: 0xA77E5, size: 0x8, addend: 0x0, symName: _glad_glDeleteFramebuffers, symObjAddr: 0x28428, symBinAddr: 0x1000308E0, symSize: 0x0 }
  - { offsetInCU: 0x16AE, offset: 0xA7808, size: 0x8, addend: 0x0, symName: _glad_glDrawArrays, symObjAddr: 0x28430, symBinAddr: 0x1000308E8, symSize: 0x0 }
  - { offsetInCU: 0x16E8, offset: 0xA7842, size: 0x8, addend: 0x0, symName: _glad_glUniform1ui, symObjAddr: 0x28438, symBinAddr: 0x1000308F0, symSize: 0x0 }
  - { offsetInCU: 0x171D, offset: 0xA7877, size: 0x8, addend: 0x0, symName: _glad_glMultiTexCoord1d, symObjAddr: 0x28440, symBinAddr: 0x1000308F8, symSize: 0x0 }
  - { offsetInCU: 0x1752, offset: 0xA78AC, size: 0x8, addend: 0x0, symName: _glad_glMultiTexCoord1f, symObjAddr: 0x28448, symBinAddr: 0x100030900, symSize: 0x0 }
  - { offsetInCU: 0x1787, offset: 0xA78E1, size: 0x8, addend: 0x0, symName: _glad_glLightfv, symObjAddr: 0x28450, symBinAddr: 0x100030908, symSize: 0x0 }
  - { offsetInCU: 0x17C1, offset: 0xA791B, size: 0x8, addend: 0x0, symName: _glad_glTexCoordP3ui, symObjAddr: 0x28458, symBinAddr: 0x100030910, symSize: 0x0 }
  - { offsetInCU: 0x17E4, offset: 0xA793E, size: 0x8, addend: 0x0, symName: _glad_glVertexAttrib3d, symObjAddr: 0x28460, symBinAddr: 0x100030918, symSize: 0x0 }
  - { offsetInCU: 0x1823, offset: 0xA797D, size: 0x8, addend: 0x0, symName: _glad_glClear, symObjAddr: 0x28468, symBinAddr: 0x100030920, symSize: 0x0 }
  - { offsetInCU: 0x1853, offset: 0xA79AD, size: 0x8, addend: 0x0, symName: _glad_glMultiTexCoord1i, symObjAddr: 0x28470, symBinAddr: 0x100030928, symSize: 0x0 }
  - { offsetInCU: 0x1876, offset: 0xA79D0, size: 0x8, addend: 0x0, symName: _glad_glGetActiveUniformName, symObjAddr: 0x28478, symBinAddr: 0x100030930, symSize: 0x0 }
  - { offsetInCU: 0x18BA, offset: 0xA7A14, size: 0x8, addend: 0x0, symName: _glad_glMultiTexCoord1s, symObjAddr: 0x28480, symBinAddr: 0x100030938, symSize: 0x0 }
  - { offsetInCU: 0x18EF, offset: 0xA7A49, size: 0x8, addend: 0x0, symName: _glad_glIsEnabled, symObjAddr: 0x28488, symBinAddr: 0x100030940, symSize: 0x0 }
  - { offsetInCU: 0x1922, offset: 0xA7A7C, size: 0x8, addend: 0x0, symName: _glad_glStencilOp, symObjAddr: 0x28490, symBinAddr: 0x100030948, symSize: 0x0 }
  - { offsetInCU: 0x195C, offset: 0xA7AB6, size: 0x8, addend: 0x0, symName: _glad_glGetQueryObjectuiv, symObjAddr: 0x28498, symBinAddr: 0x100030950, symSize: 0x0 }
  - { offsetInCU: 0x1996, offset: 0xA7AF0, size: 0x8, addend: 0x0, symName: _glad_glFramebufferTexture2D, symObjAddr: 0x284A0, symBinAddr: 0x100030958, symSize: 0x0 }
  - { offsetInCU: 0x19DA, offset: 0xA7B34, size: 0x8, addend: 0x0, symName: _glad_glGetFramebufferAttachmentParameteriv, symObjAddr: 0x284A8, symBinAddr: 0x100030960, symSize: 0x0 }
  - { offsetInCU: 0x1A19, offset: 0xA7B73, size: 0x8, addend: 0x0, symName: _glad_glTranslatef, symObjAddr: 0x284B0, symBinAddr: 0x100030968, symSize: 0x0 }
  - { offsetInCU: 0x1A3C, offset: 0xA7B96, size: 0x8, addend: 0x0, symName: _glad_glVertexAttrib4Nub, symObjAddr: 0x284B8, symBinAddr: 0x100030970, symSize: 0x0 }
  - { offsetInCU: 0x1A80, offset: 0xA7BDA, size: 0x8, addend: 0x0, symName: _glad_glTranslated, symObjAddr: 0x284C0, symBinAddr: 0x100030978, symSize: 0x0 }
  - { offsetInCU: 0x1AA3, offset: 0xA7BFD, size: 0x8, addend: 0x0, symName: _glad_glTexCoord3sv, symObjAddr: 0x284C8, symBinAddr: 0x100030980, symSize: 0x0 }
  - { offsetInCU: 0x1AC6, offset: 0xA7C20, size: 0x8, addend: 0x0, symName: _glad_glGetFragDataLocation, symObjAddr: 0x284D0, symBinAddr: 0x100030988, symSize: 0x0 }
  - { offsetInCU: 0x1AE9, offset: 0xA7C43, size: 0x8, addend: 0x0, symName: _glad_glTexImage1D, symObjAddr: 0x284D8, symBinAddr: 0x100030990, symSize: 0x0 }
  - { offsetInCU: 0x1B3C, offset: 0xA7C96, size: 0x8, addend: 0x0, symName: _glad_glVertexP3uiv, symObjAddr: 0x284E0, symBinAddr: 0x100030998, symSize: 0x0 }
  - { offsetInCU: 0x1B5F, offset: 0xA7CB9, size: 0x8, addend: 0x0, symName: _glad_glTexParameteriv, symObjAddr: 0x284E8, symBinAddr: 0x1000309A0, symSize: 0x0 }
  - { offsetInCU: 0x1B99, offset: 0xA7CF3, size: 0x8, addend: 0x0, symName: _glad_glSecondaryColor3bv, symObjAddr: 0x284F0, symBinAddr: 0x1000309A8, symSize: 0x0 }
  - { offsetInCU: 0x1BBC, offset: 0xA7D16, size: 0x8, addend: 0x0, symName: _glad_glGetMaterialfv, symObjAddr: 0x284F8, symBinAddr: 0x1000309B0, symSize: 0x0 }
  - { offsetInCU: 0x1BDF, offset: 0xA7D39, size: 0x8, addend: 0x0, symName: _glad_glGetTexImage, symObjAddr: 0x28500, symBinAddr: 0x1000309B8, symSize: 0x0 }
  - { offsetInCU: 0x1C24, offset: 0xA7D7E, size: 0x8, addend: 0x0, symName: _glad_glFogCoordfv, symObjAddr: 0x28508, symBinAddr: 0x1000309C0, symSize: 0x0 }
  - { offsetInCU: 0x1C47, offset: 0xA7DA1, size: 0x8, addend: 0x0, symName: _glad_glPixelMapuiv, symObjAddr: 0x28510, symBinAddr: 0x1000309C8, symSize: 0x0 }
  - { offsetInCU: 0x1C81, offset: 0xA7DDB, size: 0x8, addend: 0x0, symName: _glad_glGetShaderInfoLog, symObjAddr: 0x28518, symBinAddr: 0x1000309D0, symSize: 0x0 }
  - { offsetInCU: 0x1CC0, offset: 0xA7E1A, size: 0x8, addend: 0x0, symName: _glad_glGetQueryObjecti64v, symObjAddr: 0x28520, symBinAddr: 0x1000309D8, symSize: 0x0 }
  - { offsetInCU: 0x1D11, offset: 0xA7E6B, size: 0x8, addend: 0x0, symName: _glad_glGenFramebuffers, symObjAddr: 0x28528, symBinAddr: 0x1000309E0, symSize: 0x0 }
  - { offsetInCU: 0x1D34, offset: 0xA7E8E, size: 0x8, addend: 0x0, symName: _glad_glIndexsv, symObjAddr: 0x28530, symBinAddr: 0x1000309E8, symSize: 0x0 }
  - { offsetInCU: 0x1D57, offset: 0xA7EB1, size: 0x8, addend: 0x0, symName: _glad_glGetAttachedShaders, symObjAddr: 0x28538, symBinAddr: 0x1000309F0, symSize: 0x0 }
  - { offsetInCU: 0x1D96, offset: 0xA7EF0, size: 0x8, addend: 0x0, symName: _glad_glIsRenderbuffer, symObjAddr: 0x28540, symBinAddr: 0x1000309F8, symSize: 0x0 }
  - { offsetInCU: 0x1DB9, offset: 0xA7F13, size: 0x8, addend: 0x0, symName: _glad_glVertex3iv, symObjAddr: 0x28548, symBinAddr: 0x100030A00, symSize: 0x0 }
  - { offsetInCU: 0x1DDC, offset: 0xA7F36, size: 0x8, addend: 0x0, symName: _glad_glBitmap, symObjAddr: 0x28550, symBinAddr: 0x100030A08, symSize: 0x0 }
  - { offsetInCU: 0x1E2A, offset: 0xA7F84, size: 0x8, addend: 0x0, symName: _glad_glMateriali, symObjAddr: 0x28558, symBinAddr: 0x100030A10, symSize: 0x0 }
  - { offsetInCU: 0x1E64, offset: 0xA7FBE, size: 0x8, addend: 0x0, symName: _glad_glIsVertexArray, symObjAddr: 0x28560, symBinAddr: 0x100030A18, symSize: 0x0 }
  - { offsetInCU: 0x1E87, offset: 0xA7FE1, size: 0x8, addend: 0x0, symName: _glad_glDisableVertexAttribArray, symObjAddr: 0x28568, symBinAddr: 0x100030A20, symSize: 0x0 }
  - { offsetInCU: 0x1EAA, offset: 0xA8004, size: 0x8, addend: 0x0, symName: _glad_glGetQueryiv, symObjAddr: 0x28570, symBinAddr: 0x100030A28, symSize: 0x0 }
  - { offsetInCU: 0x1EE4, offset: 0xA803E, size: 0x8, addend: 0x0, symName: _glad_glTexCoord4f, symObjAddr: 0x28578, symBinAddr: 0x100030A30, symSize: 0x0 }
  - { offsetInCU: 0x1F23, offset: 0xA807D, size: 0x8, addend: 0x0, symName: _glad_glTexCoord4d, symObjAddr: 0x28580, symBinAddr: 0x100030A38, symSize: 0x0 }
  - { offsetInCU: 0x1F62, offset: 0xA80BC, size: 0x8, addend: 0x0, symName: _glad_glGetSamplerParameterfv, symObjAddr: 0x28588, symBinAddr: 0x100030A40, symSize: 0x0 }
  - { offsetInCU: 0x1F9C, offset: 0xA80F6, size: 0x8, addend: 0x0, symName: _glad_glTexCoord4i, symObjAddr: 0x28590, symBinAddr: 0x100030A48, symSize: 0x0 }
  - { offsetInCU: 0x1FDB, offset: 0xA8135, size: 0x8, addend: 0x0, symName: _glad_glMaterialf, symObjAddr: 0x28598, symBinAddr: 0x100030A50, symSize: 0x0 }
  - { offsetInCU: 0x2015, offset: 0xA816F, size: 0x8, addend: 0x0, symName: _glad_glTexCoord4s, symObjAddr: 0x285A0, symBinAddr: 0x100030A58, symSize: 0x0 }
  - { offsetInCU: 0x2054, offset: 0xA81AE, size: 0x8, addend: 0x0, symName: _glad_glGetUniformIndices, symObjAddr: 0x285A8, symBinAddr: 0x100030A60, symSize: 0x0 }
  - { offsetInCU: 0x209D, offset: 0xA81F7, size: 0x8, addend: 0x0, symName: _glad_glIsShader, symObjAddr: 0x285B0, symBinAddr: 0x100030A68, symSize: 0x0 }
  - { offsetInCU: 0x20C0, offset: 0xA821A, size: 0x8, addend: 0x0, symName: _glad_glMultiTexCoord2s, symObjAddr: 0x285B8, symBinAddr: 0x100030A70, symSize: 0x0 }
  - { offsetInCU: 0x20FA, offset: 0xA8254, size: 0x8, addend: 0x0, symName: _glad_glVertexAttribI4ubv, symObjAddr: 0x285C0, symBinAddr: 0x100030A78, symSize: 0x0 }
  - { offsetInCU: 0x211D, offset: 0xA8277, size: 0x8, addend: 0x0, symName: _glad_glVertex3dv, symObjAddr: 0x285C8, symBinAddr: 0x100030A80, symSize: 0x0 }
  - { offsetInCU: 0x2140, offset: 0xA829A, size: 0x8, addend: 0x0, symName: _glad_glGetInteger64v, symObjAddr: 0x285D0, symBinAddr: 0x100030A88, symSize: 0x0 }
  - { offsetInCU: 0x2175, offset: 0xA82CF, size: 0x8, addend: 0x0, symName: _glad_glPointParameteriv, symObjAddr: 0x285D8, symBinAddr: 0x100030A90, symSize: 0x0 }
  - { offsetInCU: 0x2198, offset: 0xA82F2, size: 0x8, addend: 0x0, symName: _glad_glEnable, symObjAddr: 0x285E0, symBinAddr: 0x100030A98, symSize: 0x0 }
  - { offsetInCU: 0x21BB, offset: 0xA8315, size: 0x8, addend: 0x0, symName: _glad_glGetActiveUniformsiv, symObjAddr: 0x285E8, symBinAddr: 0x100030AA0, symSize: 0x0 }
  - { offsetInCU: 0x21FF, offset: 0xA8359, size: 0x8, addend: 0x0, symName: _glad_glColor4fv, symObjAddr: 0x285F0, symBinAddr: 0x100030AA8, symSize: 0x0 }
  - { offsetInCU: 0x2222, offset: 0xA837C, size: 0x8, addend: 0x0, symName: _glad_glTexCoord1fv, symObjAddr: 0x285F8, symBinAddr: 0x100030AB0, symSize: 0x0 }
  - { offsetInCU: 0x2245, offset: 0xA839F, size: 0x8, addend: 0x0, symName: _glad_glTexCoord2sv, symObjAddr: 0x28600, symBinAddr: 0x100030AB8, symSize: 0x0 }
  - { offsetInCU: 0x2268, offset: 0xA83C2, size: 0x8, addend: 0x0, symName: _glad_glVertexAttrib4dv, symObjAddr: 0x28608, symBinAddr: 0x100030AC0, symSize: 0x0 }
  - { offsetInCU: 0x228B, offset: 0xA83E5, size: 0x8, addend: 0x0, symName: _glad_glMultiTexCoord1dv, symObjAddr: 0x28610, symBinAddr: 0x100030AC8, symSize: 0x0 }
  - { offsetInCU: 0x22C0, offset: 0xA841A, size: 0x8, addend: 0x0, symName: _glad_glMultiTexCoord2i, symObjAddr: 0x28618, symBinAddr: 0x100030AD0, symSize: 0x0 }
  - { offsetInCU: 0x22FA, offset: 0xA8454, size: 0x8, addend: 0x0, symName: _glad_glTexCoord3fv, symObjAddr: 0x28620, symBinAddr: 0x100030AD8, symSize: 0x0 }
  - { offsetInCU: 0x231D, offset: 0xA8477, size: 0x8, addend: 0x0, symName: _glad_glSecondaryColor3usv, symObjAddr: 0x28628, symBinAddr: 0x100030AE0, symSize: 0x0 }
  - { offsetInCU: 0x2369, offset: 0xA84C3, size: 0x8, addend: 0x0, symName: _glad_glTexGenf, symObjAddr: 0x28630, symBinAddr: 0x100030AE8, symSize: 0x0 }
  - { offsetInCU: 0x238C, offset: 0xA84E6, size: 0x8, addend: 0x0, symName: _glad_glMultiTexCoordP3uiv, symObjAddr: 0x28638, symBinAddr: 0x100030AF0, symSize: 0x0 }
  - { offsetInCU: 0x23C6, offset: 0xA8520, size: 0x8, addend: 0x0, symName: _glad_glVertexAttribP3ui, symObjAddr: 0x28640, symBinAddr: 0x100030AF8, symSize: 0x0 }
  - { offsetInCU: 0x23E9, offset: 0xA8543, size: 0x8, addend: 0x0, symName: _glad_glMultiTexCoordP1ui, symObjAddr: 0x28648, symBinAddr: 0x100030B00, symSize: 0x0 }
  - { offsetInCU: 0x240C, offset: 0xA8566, size: 0x8, addend: 0x0, symName: _glad_glGetPointerv, symObjAddr: 0x28650, symBinAddr: 0x100030B08, symSize: 0x0 }
  - { offsetInCU: 0x2446, offset: 0xA85A0, size: 0x8, addend: 0x0, symName: _glad_glPolygonOffset, symObjAddr: 0x28658, symBinAddr: 0x100030B10, symSize: 0x0 }
  - { offsetInCU: 0x2469, offset: 0xA85C3, size: 0x8, addend: 0x0, symName: _glad_glGetUniformuiv, symObjAddr: 0x28660, symBinAddr: 0x100030B18, symSize: 0x0 }
  - { offsetInCU: 0x24A3, offset: 0xA85FD, size: 0x8, addend: 0x0, symName: _glad_glNormal3fv, symObjAddr: 0x28668, symBinAddr: 0x100030B20, symSize: 0x0 }
  - { offsetInCU: 0x24C6, offset: 0xA8620, size: 0x8, addend: 0x0, symName: _glad_glSecondaryColor3s, symObjAddr: 0x28670, symBinAddr: 0x100030B28, symSize: 0x0 }
  - { offsetInCU: 0x24E9, offset: 0xA8643, size: 0x8, addend: 0x0, symName: _glad_glDepthRange, symObjAddr: 0x28678, symBinAddr: 0x100030B30, symSize: 0x0 }
  - { offsetInCU: 0x250C, offset: 0xA8666, size: 0x8, addend: 0x0, symName: _glad_glFrustum, symObjAddr: 0x28680, symBinAddr: 0x100030B38, symSize: 0x0 }
  - { offsetInCU: 0x2555, offset: 0xA86AF, size: 0x8, addend: 0x0, symName: _glad_glMultiTexCoord4sv, symObjAddr: 0x28688, symBinAddr: 0x100030B40, symSize: 0x0 }
  - { offsetInCU: 0x258A, offset: 0xA86E4, size: 0x8, addend: 0x0, symName: _glad_glDrawBuffer, symObjAddr: 0x28690, symBinAddr: 0x100030B48, symSize: 0x0 }
  - { offsetInCU: 0x25AD, offset: 0xA8707, size: 0x8, addend: 0x0, symName: _glad_glPushMatrix, symObjAddr: 0x28698, symBinAddr: 0x100030B50, symSize: 0x0 }
  - { offsetInCU: 0x25D0, offset: 0xA872A, size: 0x8, addend: 0x0, symName: _glad_glRasterPos3fv, symObjAddr: 0x286A0, symBinAddr: 0x100030B58, symSize: 0x0 }
  - { offsetInCU: 0x25F3, offset: 0xA874D, size: 0x8, addend: 0x0, symName: _glad_glOrtho, symObjAddr: 0x286A8, symBinAddr: 0x100030B60, symSize: 0x0 }
  - { offsetInCU: 0x2616, offset: 0xA8770, size: 0x8, addend: 0x0, symName: _glad_glDrawElementsInstanced, symObjAddr: 0x286B0, symBinAddr: 0x100030B68, symSize: 0x0 }
  - { offsetInCU: 0x265A, offset: 0xA87B4, size: 0x8, addend: 0x0, symName: _glad_glWindowPos3sv, symObjAddr: 0x286B8, symBinAddr: 0x100030B70, symSize: 0x0 }
  - { offsetInCU: 0x267D, offset: 0xA87D7, size: 0x8, addend: 0x0, symName: _glad_glClearIndex, symObjAddr: 0x286C0, symBinAddr: 0x100030B78, symSize: 0x0 }
  - { offsetInCU: 0x26A0, offset: 0xA87FA, size: 0x8, addend: 0x0, symName: _glad_glMap1d, symObjAddr: 0x286C8, symBinAddr: 0x100030B80, symSize: 0x0 }
  - { offsetInCU: 0x26E9, offset: 0xA8843, size: 0x8, addend: 0x0, symName: _glad_glMap1f, symObjAddr: 0x286D0, symBinAddr: 0x100030B88, symSize: 0x0 }
  - { offsetInCU: 0x2732, offset: 0xA888C, size: 0x8, addend: 0x0, symName: _glad_glFlush, symObjAddr: 0x286D8, symBinAddr: 0x100030B90, symSize: 0x0 }
  - { offsetInCU: 0x2755, offset: 0xA88AF, size: 0x8, addend: 0x0, symName: _glad_glGetRenderbufferParameteriv, symObjAddr: 0x286E0, symBinAddr: 0x100030B98, symSize: 0x0 }
  - { offsetInCU: 0x2778, offset: 0xA88D2, size: 0x8, addend: 0x0, symName: _glad_glIndexiv, symObjAddr: 0x286E8, symBinAddr: 0x100030BA0, symSize: 0x0 }
  - { offsetInCU: 0x279B, offset: 0xA88F5, size: 0x8, addend: 0x0, symName: _glad_glRasterPos3sv, symObjAddr: 0x286F0, symBinAddr: 0x100030BA8, symSize: 0x0 }
  - { offsetInCU: 0x27BE, offset: 0xA8918, size: 0x8, addend: 0x0, symName: _glad_glGetVertexAttribPointerv, symObjAddr: 0x286F8, symBinAddr: 0x100030BB0, symSize: 0x0 }
  - { offsetInCU: 0x27F8, offset: 0xA8952, size: 0x8, addend: 0x0, symName: _glad_glPixelZoom, symObjAddr: 0x28700, symBinAddr: 0x100030BB8, symSize: 0x0 }
  - { offsetInCU: 0x281B, offset: 0xA8975, size: 0x8, addend: 0x0, symName: _glad_glFenceSync, symObjAddr: 0x28708, symBinAddr: 0x100030BC0, symSize: 0x0 }
  - { offsetInCU: 0x2868, offset: 0xA89C2, size: 0x8, addend: 0x0, symName: _glad_glDeleteVertexArrays, symObjAddr: 0x28710, symBinAddr: 0x100030BC8, symSize: 0x0 }
  - { offsetInCU: 0x288B, offset: 0xA89E5, size: 0x8, addend: 0x0, symName: _glad_glColorP3ui, symObjAddr: 0x28718, symBinAddr: 0x100030BD0, symSize: 0x0 }
  - { offsetInCU: 0x28AE, offset: 0xA8A08, size: 0x8, addend: 0x0, symName: _glad_glVertexAttrib3sv, symObjAddr: 0x28720, symBinAddr: 0x100030BD8, symSize: 0x0 }
  - { offsetInCU: 0x28D1, offset: 0xA8A2B, size: 0x8, addend: 0x0, symName: _glad_glBeginConditionalRender, symObjAddr: 0x28728, symBinAddr: 0x100030BE0, symSize: 0x0 }
  - { offsetInCU: 0x2906, offset: 0xA8A60, size: 0x8, addend: 0x0, symName: _glad_glDrawElementsBaseVertex, symObjAddr: 0x28730, symBinAddr: 0x100030BE8, symSize: 0x0 }
  - { offsetInCU: 0x294A, offset: 0xA8AA4, size: 0x8, addend: 0x0, symName: _glad_glGetTexLevelParameteriv, symObjAddr: 0x28738, symBinAddr: 0x100030BF0, symSize: 0x0 }
  - { offsetInCU: 0x2989, offset: 0xA8AE3, size: 0x8, addend: 0x0, symName: _glad_glLighti, symObjAddr: 0x28740, symBinAddr: 0x100030BF8, symSize: 0x0 }
  - { offsetInCU: 0x29AC, offset: 0xA8B06, size: 0x8, addend: 0x0, symName: _glad_glMultiTexCoordP4uiv, symObjAddr: 0x28748, symBinAddr: 0x100030C00, symSize: 0x0 }
  - { offsetInCU: 0x29CF, offset: 0xA8B29, size: 0x8, addend: 0x0, symName: _glad_glLightf, symObjAddr: 0x28750, symBinAddr: 0x100030C08, symSize: 0x0 }
  - { offsetInCU: 0x29F2, offset: 0xA8B4C, size: 0x8, addend: 0x0, symName: _glad_glGetAttribLocation, symObjAddr: 0x28758, symBinAddr: 0x100030C10, symSize: 0x0 }
  - { offsetInCU: 0x2A15, offset: 0xA8B6F, size: 0x8, addend: 0x0, symName: _glad_glStencilFuncSeparate, symObjAddr: 0x28760, symBinAddr: 0x100030C18, symSize: 0x0 }
  - { offsetInCU: 0x2A54, offset: 0xA8BAE, size: 0x8, addend: 0x0, symName: _glad_glGenSamplers, symObjAddr: 0x28768, symBinAddr: 0x100030C20, symSize: 0x0 }
  - { offsetInCU: 0x2A77, offset: 0xA8BD1, size: 0x8, addend: 0x0, symName: _glad_glClampColor, symObjAddr: 0x28770, symBinAddr: 0x100030C28, symSize: 0x0 }
  - { offsetInCU: 0x2AAC, offset: 0xA8C06, size: 0x8, addend: 0x0, symName: _glad_glUniform4iv, symObjAddr: 0x28778, symBinAddr: 0x100030C30, symSize: 0x0 }
  - { offsetInCU: 0x2AE6, offset: 0xA8C40, size: 0x8, addend: 0x0, symName: _glad_glClearStencil, symObjAddr: 0x28780, symBinAddr: 0x100030C38, symSize: 0x0 }
  - { offsetInCU: 0x2B09, offset: 0xA8C63, size: 0x8, addend: 0x0, symName: _glad_glTexCoordP1uiv, symObjAddr: 0x28788, symBinAddr: 0x100030C40, symSize: 0x0 }
  - { offsetInCU: 0x2B2C, offset: 0xA8C86, size: 0x8, addend: 0x0, symName: _glad_glMultiTexCoord3fv, symObjAddr: 0x28790, symBinAddr: 0x100030C48, symSize: 0x0 }
  - { offsetInCU: 0x2B4F, offset: 0xA8CA9, size: 0x8, addend: 0x0, symName: _glad_glGetPixelMapuiv, symObjAddr: 0x28798, symBinAddr: 0x100030C50, symSize: 0x0 }
  - { offsetInCU: 0x2B84, offset: 0xA8CDE, size: 0x8, addend: 0x0, symName: _glad_glGenTextures, symObjAddr: 0x287A0, symBinAddr: 0x100030C58, symSize: 0x0 }
  - { offsetInCU: 0x2BA7, offset: 0xA8D01, size: 0x8, addend: 0x0, symName: _glad_glTexCoord4iv, symObjAddr: 0x287A8, symBinAddr: 0x100030C60, symSize: 0x0 }
  - { offsetInCU: 0x2BCA, offset: 0xA8D24, size: 0x8, addend: 0x0, symName: _glad_glGetTexParameterIuiv, symObjAddr: 0x287B0, symBinAddr: 0x100030C68, symSize: 0x0 }
  - { offsetInCU: 0x2C04, offset: 0xA8D5E, size: 0x8, addend: 0x0, symName: _glad_glIndexPointer, symObjAddr: 0x287B8, symBinAddr: 0x100030C70, symSize: 0x0 }
  - { offsetInCU: 0x2C27, offset: 0xA8D81, size: 0x8, addend: 0x0, symName: _glad_glVertexAttrib4Nbv, symObjAddr: 0x287C0, symBinAddr: 0x100030C78, symSize: 0x0 }
  - { offsetInCU: 0x2C5C, offset: 0xA8DB6, size: 0x8, addend: 0x0, symName: _glad_glIsSync, symObjAddr: 0x287C8, symBinAddr: 0x100030C80, symSize: 0x0 }
  - { offsetInCU: 0x2C8F, offset: 0xA8DE9, size: 0x8, addend: 0x0, symName: _glad_glVertex2f, symObjAddr: 0x287D0, symBinAddr: 0x100030C88, symSize: 0x0 }
  - { offsetInCU: 0x2CB2, offset: 0xA8E0C, size: 0x8, addend: 0x0, symName: _glad_glVertex2d, symObjAddr: 0x287D8, symBinAddr: 0x100030C90, symSize: 0x0 }
  - { offsetInCU: 0x2CD5, offset: 0xA8E2F, size: 0x8, addend: 0x0, symName: _glad_glDeleteRenderbuffers, symObjAddr: 0x287E0, symBinAddr: 0x100030C98, symSize: 0x0 }
  - { offsetInCU: 0x2CF8, offset: 0xA8E52, size: 0x8, addend: 0x0, symName: _glad_glUniform2i, symObjAddr: 0x287E8, symBinAddr: 0x100030CA0, symSize: 0x0 }
  - { offsetInCU: 0x2D1B, offset: 0xA8E75, size: 0x8, addend: 0x0, symName: _glad_glMapGrid2d, symObjAddr: 0x287F0, symBinAddr: 0x100030CA8, symSize: 0x0 }
  - { offsetInCU: 0x2D64, offset: 0xA8EBE, size: 0x8, addend: 0x0, symName: _glad_glMapGrid2f, symObjAddr: 0x287F8, symBinAddr: 0x100030CB0, symSize: 0x0 }
  - { offsetInCU: 0x2DAD, offset: 0xA8F07, size: 0x8, addend: 0x0, symName: _glad_glTexCoordP4ui, symObjAddr: 0x28800, symBinAddr: 0x100030CB8, symSize: 0x0 }
  - { offsetInCU: 0x2DD0, offset: 0xA8F2A, size: 0x8, addend: 0x0, symName: _glad_glVertex2i, symObjAddr: 0x28808, symBinAddr: 0x100030CC0, symSize: 0x0 }
  - { offsetInCU: 0x2DF3, offset: 0xA8F4D, size: 0x8, addend: 0x0, symName: _glad_glVertexAttribPointer, symObjAddr: 0x28810, symBinAddr: 0x100030CC8, symSize: 0x0 }
  - { offsetInCU: 0x2E3C, offset: 0xA8F96, size: 0x8, addend: 0x0, symName: _glad_glFramebufferTextureLayer, symObjAddr: 0x28818, symBinAddr: 0x100030CD0, symSize: 0x0 }
  - { offsetInCU: 0x2E80, offset: 0xA8FDA, size: 0x8, addend: 0x0, symName: _glad_glVertex2s, symObjAddr: 0x28820, symBinAddr: 0x100030CD8, symSize: 0x0 }
  - { offsetInCU: 0x2EA3, offset: 0xA8FFD, size: 0x8, addend: 0x0, symName: _glad_glNormal3bv, symObjAddr: 0x28828, symBinAddr: 0x100030CE0, symSize: 0x0 }
  - { offsetInCU: 0x2EC6, offset: 0xA9020, size: 0x8, addend: 0x0, symName: _glad_glVertexAttrib4Nuiv, symObjAddr: 0x28830, symBinAddr: 0x100030CE8, symSize: 0x0 }
  - { offsetInCU: 0x2EFB, offset: 0xA9055, size: 0x8, addend: 0x0, symName: _glad_glFlushMappedBufferRange, symObjAddr: 0x28838, symBinAddr: 0x100030CF0, symSize: 0x0 }
  - { offsetInCU: 0x2F52, offset: 0xA90AC, size: 0x8, addend: 0x0, symName: _glad_glSecondaryColor3sv, symObjAddr: 0x28840, symBinAddr: 0x100030CF8, symSize: 0x0 }
  - { offsetInCU: 0x2F75, offset: 0xA90CF, size: 0x8, addend: 0x0, symName: _glad_glVertex3sv, symObjAddr: 0x28848, symBinAddr: 0x100030D00, symSize: 0x0 }
  - { offsetInCU: 0x2F98, offset: 0xA90F2, size: 0x8, addend: 0x0, symName: _glad_glGenQueries, symObjAddr: 0x28850, symBinAddr: 0x100030D08, symSize: 0x0 }
  - { offsetInCU: 0x2FBB, offset: 0xA9115, size: 0x8, addend: 0x0, symName: _glad_glGetPixelMapfv, symObjAddr: 0x28858, symBinAddr: 0x100030D10, symSize: 0x0 }
  - { offsetInCU: 0x2FF0, offset: 0xA914A, size: 0x8, addend: 0x0, symName: _glad_glTexEnvf, symObjAddr: 0x28860, symBinAddr: 0x100030D18, symSize: 0x0 }
  - { offsetInCU: 0x3013, offset: 0xA916D, size: 0x8, addend: 0x0, symName: _glad_glVertexAttribP1ui, symObjAddr: 0x28868, symBinAddr: 0x100030D20, symSize: 0x0 }
  - { offsetInCU: 0x3036, offset: 0xA9190, size: 0x8, addend: 0x0, symName: _glad_glTexSubImage3D, symObjAddr: 0x28870, symBinAddr: 0x100030D28, symSize: 0x0 }
  - { offsetInCU: 0x3098, offset: 0xA91F2, size: 0x8, addend: 0x0, symName: _glad_glGetInteger64i_v, symObjAddr: 0x28878, symBinAddr: 0x100030D30, symSize: 0x0 }
  - { offsetInCU: 0x30D2, offset: 0xA922C, size: 0x8, addend: 0x0, symName: _glad_glFogCoordd, symObjAddr: 0x28880, symBinAddr: 0x100030D38, symSize: 0x0 }
  - { offsetInCU: 0x30F5, offset: 0xA924F, size: 0x8, addend: 0x0, symName: _glad_glFogCoordf, symObjAddr: 0x28888, symBinAddr: 0x100030D40, symSize: 0x0 }
  - { offsetInCU: 0x3118, offset: 0xA9272, size: 0x8, addend: 0x0, symName: _glad_glCopyTexImage2D, symObjAddr: 0x28890, symBinAddr: 0x100030D48, symSize: 0x0 }
  - { offsetInCU: 0x316B, offset: 0xA92C5, size: 0x8, addend: 0x0, symName: _glad_glTexEnvi, symObjAddr: 0x28898, symBinAddr: 0x100030D50, symSize: 0x0 }
  - { offsetInCU: 0x318E, offset: 0xA92E8, size: 0x8, addend: 0x0, symName: _glad_glMultiTexCoord1iv, symObjAddr: 0x288A0, symBinAddr: 0x100030D58, symSize: 0x0 }
  - { offsetInCU: 0x31B1, offset: 0xA930B, size: 0x8, addend: 0x0, symName: _glad_glIsEnabledi, symObjAddr: 0x288A8, symBinAddr: 0x100030D60, symSize: 0x0 }
  - { offsetInCU: 0x31E9, offset: 0xA9343, size: 0x8, addend: 0x0, symName: _glad_glSecondaryColorP3ui, symObjAddr: 0x288B0, symBinAddr: 0x100030D68, symSize: 0x0 }
  - { offsetInCU: 0x320C, offset: 0xA9366, size: 0x8, addend: 0x0, symName: _glad_glVertexAttribI2i, symObjAddr: 0x288B8, symBinAddr: 0x100030D70, symSize: 0x0 }
  - { offsetInCU: 0x3246, offset: 0xA93A0, size: 0x8, addend: 0x0, symName: _glad_glBindFragDataLocationIndexed, symObjAddr: 0x288C0, symBinAddr: 0x100030D78, symSize: 0x0 }
  - { offsetInCU: 0x3285, offset: 0xA93DF, size: 0x8, addend: 0x0, symName: _glad_glMultiTexCoord2dv, symObjAddr: 0x288C8, symBinAddr: 0x100030D80, symSize: 0x0 }
  - { offsetInCU: 0x32A8, offset: 0xA9402, size: 0x8, addend: 0x0, symName: _glad_glUniform2iv, symObjAddr: 0x288D0, symBinAddr: 0x100030D88, symSize: 0x0 }
  - { offsetInCU: 0x32CB, offset: 0xA9425, size: 0x8, addend: 0x0, symName: _glad_glVertexAttrib1fv, symObjAddr: 0x288D8, symBinAddr: 0x100030D90, symSize: 0x0 }
  - { offsetInCU: 0x3300, offset: 0xA945A, size: 0x8, addend: 0x0, symName: _glad_glUniform4uiv, symObjAddr: 0x288E0, symBinAddr: 0x100030D98, symSize: 0x0 }
  - { offsetInCU: 0x333A, offset: 0xA9494, size: 0x8, addend: 0x0, symName: _glad_glMatrixMode, symObjAddr: 0x288E8, symBinAddr: 0x100030DA0, symSize: 0x0 }
  - { offsetInCU: 0x335D, offset: 0xA94B7, size: 0x8, addend: 0x0, symName: _glad_glFeedbackBuffer, symObjAddr: 0x288F0, symBinAddr: 0x100030DA8, symSize: 0x0 }
  - { offsetInCU: 0x3397, offset: 0xA94F1, size: 0x8, addend: 0x0, symName: _glad_glGetMapiv, symObjAddr: 0x288F8, symBinAddr: 0x100030DB0, symSize: 0x0 }
  - { offsetInCU: 0x33BA, offset: 0xA9514, size: 0x8, addend: 0x0, symName: _glad_glFramebufferTexture1D, symObjAddr: 0x28900, symBinAddr: 0x100030DB8, symSize: 0x0 }
  - { offsetInCU: 0x33DD, offset: 0xA9537, size: 0x8, addend: 0x0, symName: _glad_glGetShaderiv, symObjAddr: 0x28908, symBinAddr: 0x100030DC0, symSize: 0x0 }
  - { offsetInCU: 0x3400, offset: 0xA955A, size: 0x8, addend: 0x0, symName: _glad_glMultiTexCoord2d, symObjAddr: 0x28910, symBinAddr: 0x100030DC8, symSize: 0x0 }
  - { offsetInCU: 0x343A, offset: 0xA9594, size: 0x8, addend: 0x0, symName: _glad_glMultiTexCoord2f, symObjAddr: 0x28918, symBinAddr: 0x100030DD0, symSize: 0x0 }
  - { offsetInCU: 0x3474, offset: 0xA95CE, size: 0x8, addend: 0x0, symName: _glad_glBindFragDataLocation, symObjAddr: 0x28920, symBinAddr: 0x100030DD8, symSize: 0x0 }
  - { offsetInCU: 0x34AE, offset: 0xA9608, size: 0x8, addend: 0x0, symName: _glad_glPrioritizeTextures, symObjAddr: 0x28928, symBinAddr: 0x100030DE0, symSize: 0x0 }
  - { offsetInCU: 0x34E8, offset: 0xA9642, size: 0x8, addend: 0x0, symName: _glad_glCallList, symObjAddr: 0x28930, symBinAddr: 0x100030DE8, symSize: 0x0 }
  - { offsetInCU: 0x350B, offset: 0xA9665, size: 0x8, addend: 0x0, symName: _glad_glSecondaryColor3ubv, symObjAddr: 0x28938, symBinAddr: 0x100030DF0, symSize: 0x0 }
  - { offsetInCU: 0x352E, offset: 0xA9688, size: 0x8, addend: 0x0, symName: _glad_glGetDoublev, symObjAddr: 0x28940, symBinAddr: 0x100030DF8, symSize: 0x0 }
  - { offsetInCU: 0x3563, offset: 0xA96BD, size: 0x8, addend: 0x0, symName: _glad_glMultiTexCoord3iv, symObjAddr: 0x28948, symBinAddr: 0x100030E00, symSize: 0x0 }
  - { offsetInCU: 0x3586, offset: 0xA96E0, size: 0x8, addend: 0x0, symName: _glad_glVertexAttrib1d, symObjAddr: 0x28950, symBinAddr: 0x100030E08, symSize: 0x0 }
  - { offsetInCU: 0x35BB, offset: 0xA9715, size: 0x8, addend: 0x0, symName: _glad_glLightModelf, symObjAddr: 0x28958, symBinAddr: 0x100030E10, symSize: 0x0 }
  - { offsetInCU: 0x35DE, offset: 0xA9738, size: 0x8, addend: 0x0, symName: _glad_glGetUniformiv, symObjAddr: 0x28960, symBinAddr: 0x100030E18, symSize: 0x0 }
  - { offsetInCU: 0x3618, offset: 0xA9772, size: 0x8, addend: 0x0, symName: _glad_glVertex2sv, symObjAddr: 0x28968, symBinAddr: 0x100030E20, symSize: 0x0 }
  - { offsetInCU: 0x363B, offset: 0xA9795, size: 0x8, addend: 0x0, symName: _glad_glLightModeli, symObjAddr: 0x28970, symBinAddr: 0x100030E28, symSize: 0x0 }
  - { offsetInCU: 0x365E, offset: 0xA97B8, size: 0x8, addend: 0x0, symName: _glad_glWindowPos3iv, symObjAddr: 0x28978, symBinAddr: 0x100030E30, symSize: 0x0 }
  - { offsetInCU: 0x3681, offset: 0xA97DB, size: 0x8, addend: 0x0, symName: _glad_glMultiTexCoordP1uiv, symObjAddr: 0x28980, symBinAddr: 0x100030E38, symSize: 0x0 }
  - { offsetInCU: 0x36A4, offset: 0xA97FE, size: 0x8, addend: 0x0, symName: _glad_glUniform3fv, symObjAddr: 0x28988, symBinAddr: 0x100030E40, symSize: 0x0 }
  - { offsetInCU: 0x36DE, offset: 0xA9838, size: 0x8, addend: 0x0, symName: _glad_glPixelStorei, symObjAddr: 0x28990, symBinAddr: 0x100030E48, symSize: 0x0 }
  - { offsetInCU: 0x3701, offset: 0xA985B, size: 0x8, addend: 0x0, symName: _glad_glCallLists, symObjAddr: 0x28998, symBinAddr: 0x100030E50, symSize: 0x0 }
  - { offsetInCU: 0x373B, offset: 0xA9895, size: 0x8, addend: 0x0, symName: _glad_glMapBuffer, symObjAddr: 0x289A0, symBinAddr: 0x100030E58, symSize: 0x0 }
  - { offsetInCU: 0x3773, offset: 0xA98CD, size: 0x8, addend: 0x0, symName: _glad_glSecondaryColor3d, symObjAddr: 0x289A8, symBinAddr: 0x100030E60, symSize: 0x0 }
  - { offsetInCU: 0x3796, offset: 0xA98F0, size: 0x8, addend: 0x0, symName: _glad_glTexCoord3i, symObjAddr: 0x289B0, symBinAddr: 0x100030E68, symSize: 0x0 }
  - { offsetInCU: 0x37B9, offset: 0xA9913, size: 0x8, addend: 0x0, symName: _glad_glMultiTexCoord4fv, symObjAddr: 0x289B8, symBinAddr: 0x100030E70, symSize: 0x0 }
  - { offsetInCU: 0x37DC, offset: 0xA9936, size: 0x8, addend: 0x0, symName: _glad_glRasterPos3i, symObjAddr: 0x289C0, symBinAddr: 0x100030E78, symSize: 0x0 }
  - { offsetInCU: 0x37FF, offset: 0xA9959, size: 0x8, addend: 0x0, symName: _glad_glSecondaryColor3b, symObjAddr: 0x289C8, symBinAddr: 0x100030E80, symSize: 0x0 }
  - { offsetInCU: 0x3822, offset: 0xA997C, size: 0x8, addend: 0x0, symName: _glad_glRasterPos3d, symObjAddr: 0x289D0, symBinAddr: 0x100030E88, symSize: 0x0 }
  - { offsetInCU: 0x3845, offset: 0xA999F, size: 0x8, addend: 0x0, symName: _glad_glRasterPos3f, symObjAddr: 0x289D8, symBinAddr: 0x100030E90, symSize: 0x0 }
  - { offsetInCU: 0x3868, offset: 0xA99C2, size: 0x8, addend: 0x0, symName: _glad_glCompressedTexImage3D, symObjAddr: 0x289E0, symBinAddr: 0x100030E98, symSize: 0x0 }
  - { offsetInCU: 0x38C0, offset: 0xA9A1A, size: 0x8, addend: 0x0, symName: _glad_glTexCoord3f, symObjAddr: 0x289E8, symBinAddr: 0x100030EA0, symSize: 0x0 }
  - { offsetInCU: 0x38E3, offset: 0xA9A3D, size: 0x8, addend: 0x0, symName: _glad_glDeleteSync, symObjAddr: 0x289F0, symBinAddr: 0x100030EA8, symSize: 0x0 }
  - { offsetInCU: 0x3913, offset: 0xA9A6D, size: 0x8, addend: 0x0, symName: _glad_glTexCoord3d, symObjAddr: 0x289F8, symBinAddr: 0x100030EB0, symSize: 0x0 }
  - { offsetInCU: 0x3936, offset: 0xA9A90, size: 0x8, addend: 0x0, symName: _glad_glTexImage2DMultisample, symObjAddr: 0x28A00, symBinAddr: 0x100030EB8, symSize: 0x0 }
  - { offsetInCU: 0x397F, offset: 0xA9AD9, size: 0x8, addend: 0x0, symName: _glad_glGetVertexAttribiv, symObjAddr: 0x28A08, symBinAddr: 0x100030EC0, symSize: 0x0 }
  - { offsetInCU: 0x39A2, offset: 0xA9AFC, size: 0x8, addend: 0x0, symName: _glad_glMultiDrawElements, symObjAddr: 0x28A10, symBinAddr: 0x100030EC8, symSize: 0x0 }
  - { offsetInCU: 0x39FA, offset: 0xA9B54, size: 0x8, addend: 0x0, symName: _glad_glVertexAttrib3fv, symObjAddr: 0x28A18, symBinAddr: 0x100030ED0, symSize: 0x0 }
  - { offsetInCU: 0x3A1D, offset: 0xA9B77, size: 0x8, addend: 0x0, symName: _glad_glTexCoord3s, symObjAddr: 0x28A20, symBinAddr: 0x100030ED8, symSize: 0x0 }
  - { offsetInCU: 0x3A40, offset: 0xA9B9A, size: 0x8, addend: 0x0, symName: _glad_glUniform3iv, symObjAddr: 0x28A28, symBinAddr: 0x100030EE0, symSize: 0x0 }
  - { offsetInCU: 0x3A63, offset: 0xA9BBD, size: 0x8, addend: 0x0, symName: _glad_glRasterPos3s, symObjAddr: 0x28A30, symBinAddr: 0x100030EE8, symSize: 0x0 }
  - { offsetInCU: 0x3A86, offset: 0xA9BE0, size: 0x8, addend: 0x0, symName: _glad_glPolygonMode, symObjAddr: 0x28A38, symBinAddr: 0x100030EF0, symSize: 0x0 }
  - { offsetInCU: 0x3AA9, offset: 0xA9C03, size: 0x8, addend: 0x0, symName: _glad_glDrawBuffers, symObjAddr: 0x28A40, symBinAddr: 0x100030EF8, symSize: 0x0 }
  - { offsetInCU: 0x3AE8, offset: 0xA9C42, size: 0x8, addend: 0x0, symName: _glad_glGetActiveUniformBlockiv, symObjAddr: 0x28A48, symBinAddr: 0x100030F00, symSize: 0x0 }
  - { offsetInCU: 0x3B27, offset: 0xA9C81, size: 0x8, addend: 0x0, symName: _glad_glAreTexturesResident, symObjAddr: 0x28A50, symBinAddr: 0x100030F08, symSize: 0x0 }
  - { offsetInCU: 0x3B69, offset: 0xA9CC3, size: 0x8, addend: 0x0, symName: _glad_glIsList, symObjAddr: 0x28A58, symBinAddr: 0x100030F10, symSize: 0x0 }
  - { offsetInCU: 0x3B8C, offset: 0xA9CE6, size: 0x8, addend: 0x0, symName: _glad_glRasterPos2sv, symObjAddr: 0x28A60, symBinAddr: 0x100030F18, symSize: 0x0 }
  - { offsetInCU: 0x3BAF, offset: 0xA9D09, size: 0x8, addend: 0x0, symName: _glad_glRasterPos4sv, symObjAddr: 0x28A68, symBinAddr: 0x100030F20, symSize: 0x0 }
  - { offsetInCU: 0x3BD2, offset: 0xA9D2C, size: 0x8, addend: 0x0, symName: _glad_glColor4s, symObjAddr: 0x28A70, symBinAddr: 0x100030F28, symSize: 0x0 }
  - { offsetInCU: 0x3BF5, offset: 0xA9D4F, size: 0x8, addend: 0x0, symName: _glad_glUseProgram, symObjAddr: 0x28A78, symBinAddr: 0x100030F30, symSize: 0x0 }
  - { offsetInCU: 0x3C18, offset: 0xA9D72, size: 0x8, addend: 0x0, symName: _glad_glLineStipple, symObjAddr: 0x28A80, symBinAddr: 0x100030F38, symSize: 0x0 }
  - { offsetInCU: 0x3C4D, offset: 0xA9DA7, size: 0x8, addend: 0x0, symName: _glad_glMultiTexCoord1sv, symObjAddr: 0x28A88, symBinAddr: 0x100030F40, symSize: 0x0 }
  - { offsetInCU: 0x3C70, offset: 0xA9DCA, size: 0x8, addend: 0x0, symName: _glad_glGetProgramInfoLog, symObjAddr: 0x28A90, symBinAddr: 0x100030F48, symSize: 0x0 }
  - { offsetInCU: 0x3C93, offset: 0xA9DED, size: 0x8, addend: 0x0, symName: _glad_glGetBufferParameteriv, symObjAddr: 0x28A98, symBinAddr: 0x100030F50, symSize: 0x0 }
  - { offsetInCU: 0x3CB6, offset: 0xA9E10, size: 0x8, addend: 0x0, symName: _glad_glMultiTexCoord2iv, symObjAddr: 0x28AA0, symBinAddr: 0x100030F58, symSize: 0x0 }
  - { offsetInCU: 0x3CD9, offset: 0xA9E33, size: 0x8, addend: 0x0, symName: _glad_glUniformMatrix2x4fv, symObjAddr: 0x28AA8, symBinAddr: 0x100030F60, symSize: 0x0 }
  - { offsetInCU: 0x3CFC, offset: 0xA9E56, size: 0x8, addend: 0x0, symName: _glad_glBindVertexArray, symObjAddr: 0x28AB0, symBinAddr: 0x100030F68, symSize: 0x0 }
  - { offsetInCU: 0x3D1F, offset: 0xA9E79, size: 0x8, addend: 0x0, symName: _glad_glColor4b, symObjAddr: 0x28AB8, symBinAddr: 0x100030F70, symSize: 0x0 }
  - { offsetInCU: 0x3D5E, offset: 0xA9EB8, size: 0x8, addend: 0x0, symName: _glad_glSecondaryColor3f, symObjAddr: 0x28AC0, symBinAddr: 0x100030F78, symSize: 0x0 }
  - { offsetInCU: 0x3D81, offset: 0xA9EDB, size: 0x8, addend: 0x0, symName: _glad_glColor4f, symObjAddr: 0x28AC8, symBinAddr: 0x100030F80, symSize: 0x0 }
  - { offsetInCU: 0x3DA4, offset: 0xA9EFE, size: 0x8, addend: 0x0, symName: _glad_glColor4d, symObjAddr: 0x28AD0, symBinAddr: 0x100030F88, symSize: 0x0 }
  - { offsetInCU: 0x3DC7, offset: 0xA9F21, size: 0x8, addend: 0x0, symName: _glad_glColor4i, symObjAddr: 0x28AD8, symBinAddr: 0x100030F90, symSize: 0x0 }
  - { offsetInCU: 0x3DEA, offset: 0xA9F44, size: 0x8, addend: 0x0, symName: _glad_glSamplerParameterIiv, symObjAddr: 0x28AE0, symBinAddr: 0x100030F98, symSize: 0x0 }
  - { offsetInCU: 0x3E24, offset: 0xA9F7E, size: 0x8, addend: 0x0, symName: _glad_glMultiDrawElementsBaseVertex, symObjAddr: 0x28AE8, symBinAddr: 0x100030FA0, symSize: 0x0 }
  - { offsetInCU: 0x3E6D, offset: 0xA9FC7, size: 0x8, addend: 0x0, symName: _glad_glRasterPos3iv, symObjAddr: 0x28AF0, symBinAddr: 0x100030FA8, symSize: 0x0 }
  - { offsetInCU: 0x3E90, offset: 0xA9FEA, size: 0x8, addend: 0x0, symName: _glad_glVertex2dv, symObjAddr: 0x28AF8, symBinAddr: 0x100030FB0, symSize: 0x0 }
  - { offsetInCU: 0x3EB3, offset: 0xAA00D, size: 0x8, addend: 0x0, symName: _glad_glTexCoord4sv, symObjAddr: 0x28B00, symBinAddr: 0x100030FB8, symSize: 0x0 }
  - { offsetInCU: 0x3ED6, offset: 0xAA030, size: 0x8, addend: 0x0, symName: _glad_glUniform2uiv, symObjAddr: 0x28B08, symBinAddr: 0x100030FC0, symSize: 0x0 }
  - { offsetInCU: 0x3EF9, offset: 0xAA053, size: 0x8, addend: 0x0, symName: _glad_glCompressedTexSubImage1D, symObjAddr: 0x28B10, symBinAddr: 0x100030FC8, symSize: 0x0 }
  - { offsetInCU: 0x3F47, offset: 0xAA0A1, size: 0x8, addend: 0x0, symName: _glad_glFinish, symObjAddr: 0x28B18, symBinAddr: 0x100030FD0, symSize: 0x0 }
  - { offsetInCU: 0x3F6A, offset: 0xAA0C4, size: 0x8, addend: 0x0, symName: _glad_glGetBooleanv, symObjAddr: 0x28B20, symBinAddr: 0x100030FD8, symSize: 0x0 }
  - { offsetInCU: 0x3F9F, offset: 0xAA0F9, size: 0x8, addend: 0x0, symName: _glad_glDeleteShader, symObjAddr: 0x28B28, symBinAddr: 0x100030FE0, symSize: 0x0 }
  - { offsetInCU: 0x3FC2, offset: 0xAA11C, size: 0x8, addend: 0x0, symName: _glad_glDrawElements, symObjAddr: 0x28B30, symBinAddr: 0x100030FE8, symSize: 0x0 }
  - { offsetInCU: 0x4001, offset: 0xAA15B, size: 0x8, addend: 0x0, symName: _glad_glRasterPos2s, symObjAddr: 0x28B38, symBinAddr: 0x100030FF0, symSize: 0x0 }
  - { offsetInCU: 0x4024, offset: 0xAA17E, size: 0x8, addend: 0x0, symName: _glad_glGetMapdv, symObjAddr: 0x28B40, symBinAddr: 0x100030FF8, symSize: 0x0 }
  - { offsetInCU: 0x405E, offset: 0xAA1B8, size: 0x8, addend: 0x0, symName: _glad_glVertexAttrib4Nsv, symObjAddr: 0x28B48, symBinAddr: 0x100031000, symSize: 0x0 }
  - { offsetInCU: 0x4081, offset: 0xAA1DB, size: 0x8, addend: 0x0, symName: _glad_glMaterialfv, symObjAddr: 0x28B50, symBinAddr: 0x100031008, symSize: 0x0 }
  - { offsetInCU: 0x40A4, offset: 0xAA1FE, size: 0x8, addend: 0x0, symName: _glad_glViewport, symObjAddr: 0x28B58, symBinAddr: 0x100031010, symSize: 0x0 }
  - { offsetInCU: 0x40E3, offset: 0xAA23D, size: 0x8, addend: 0x0, symName: _glad_glUniform1uiv, symObjAddr: 0x28B60, symBinAddr: 0x100031018, symSize: 0x0 }
  - { offsetInCU: 0x4106, offset: 0xAA260, size: 0x8, addend: 0x0, symName: _glad_glTransformFeedbackVaryings, symObjAddr: 0x28B68, symBinAddr: 0x100031020, symSize: 0x0 }
  - { offsetInCU: 0x4145, offset: 0xAA29F, size: 0x8, addend: 0x0, symName: _glad_glIndexdv, symObjAddr: 0x28B70, symBinAddr: 0x100031028, symSize: 0x0 }
  - { offsetInCU: 0x4168, offset: 0xAA2C2, size: 0x8, addend: 0x0, symName: _glad_glCopyTexSubImage3D, symObjAddr: 0x28B78, symBinAddr: 0x100031030, symSize: 0x0 }
  - { offsetInCU: 0x41C0, offset: 0xAA31A, size: 0x8, addend: 0x0, symName: _glad_glTexCoord3iv, symObjAddr: 0x28B80, symBinAddr: 0x100031038, symSize: 0x0 }
  - { offsetInCU: 0x41E3, offset: 0xAA33D, size: 0x8, addend: 0x0, symName: _glad_glVertexAttribI3i, symObjAddr: 0x28B88, symBinAddr: 0x100031040, symSize: 0x0 }
  - { offsetInCU: 0x4222, offset: 0xAA37C, size: 0x8, addend: 0x0, symName: _glad_glClearDepth, symObjAddr: 0x28B90, symBinAddr: 0x100031048, symSize: 0x0 }
  - { offsetInCU: 0x4245, offset: 0xAA39F, size: 0x8, addend: 0x0, symName: _glad_glVertexAttribI4usv, symObjAddr: 0x28B98, symBinAddr: 0x100031050, symSize: 0x0 }
  - { offsetInCU: 0x427A, offset: 0xAA3D4, size: 0x8, addend: 0x0, symName: _glad_glTexParameterf, symObjAddr: 0x28BA0, symBinAddr: 0x100031058, symSize: 0x0 }
  - { offsetInCU: 0x429D, offset: 0xAA3F7, size: 0x8, addend: 0x0, symName: _glad_glTexParameteri, symObjAddr: 0x28BA8, symBinAddr: 0x100031060, symSize: 0x0 }
  - { offsetInCU: 0x42C0, offset: 0xAA41A, size: 0x8, addend: 0x0, symName: _glad_glGetShaderSource, symObjAddr: 0x28BB0, symBinAddr: 0x100031068, symSize: 0x0 }
  - { offsetInCU: 0x42E3, offset: 0xAA43D, size: 0x8, addend: 0x0, symName: _glad_glTexBuffer, symObjAddr: 0x28BB8, symBinAddr: 0x100031070, symSize: 0x0 }
  - { offsetInCU: 0x4306, offset: 0xAA460, size: 0x8, addend: 0x0, symName: _glad_glPopName, symObjAddr: 0x28BC0, symBinAddr: 0x100031078, symSize: 0x0 }
  - { offsetInCU: 0x4329, offset: 0xAA483, size: 0x8, addend: 0x0, symName: _glad_glValidateProgram, symObjAddr: 0x28BC8, symBinAddr: 0x100031080, symSize: 0x0 }
  - { offsetInCU: 0x434C, offset: 0xAA4A6, size: 0x8, addend: 0x0, symName: _glad_glPixelStoref, symObjAddr: 0x28BD0, symBinAddr: 0x100031088, symSize: 0x0 }
  - { offsetInCU: 0x436F, offset: 0xAA4C9, size: 0x8, addend: 0x0, symName: _glad_glUniform3uiv, symObjAddr: 0x28BD8, symBinAddr: 0x100031090, symSize: 0x0 }
  - { offsetInCU: 0x4392, offset: 0xAA4EC, size: 0x8, addend: 0x0, symName: _glad_glRasterPos4fv, symObjAddr: 0x28BE0, symBinAddr: 0x100031098, symSize: 0x0 }
  - { offsetInCU: 0x43B5, offset: 0xAA50F, size: 0x8, addend: 0x0, symName: _glad_glEvalCoord1dv, symObjAddr: 0x28BE8, symBinAddr: 0x1000310A0, symSize: 0x0 }
  - { offsetInCU: 0x43D8, offset: 0xAA532, size: 0x8, addend: 0x0, symName: _glad_glMultiTexCoordP2uiv, symObjAddr: 0x28BF0, symBinAddr: 0x1000310A8, symSize: 0x0 }
  - { offsetInCU: 0x43FB, offset: 0xAA555, size: 0x8, addend: 0x0, symName: _glad_glRecti, symObjAddr: 0x28BF8, symBinAddr: 0x1000310B0, symSize: 0x0 }
  - { offsetInCU: 0x441E, offset: 0xAA578, size: 0x8, addend: 0x0, symName: _glad_glColor4ub, symObjAddr: 0x28C00, symBinAddr: 0x1000310B8, symSize: 0x0 }
  - { offsetInCU: 0x445D, offset: 0xAA5B7, size: 0x8, addend: 0x0, symName: _glad_glMultTransposeMatrixf, symObjAddr: 0x28C08, symBinAddr: 0x1000310C0, symSize: 0x0 }
  - { offsetInCU: 0x4480, offset: 0xAA5DA, size: 0x8, addend: 0x0, symName: _glad_glRectf, symObjAddr: 0x28C10, symBinAddr: 0x1000310C8, symSize: 0x0 }
  - { offsetInCU: 0x44A3, offset: 0xAA5FD, size: 0x8, addend: 0x0, symName: _glad_glRectd, symObjAddr: 0x28C18, symBinAddr: 0x1000310D0, symSize: 0x0 }
  - { offsetInCU: 0x44C6, offset: 0xAA620, size: 0x8, addend: 0x0, symName: _glad_glNormal3sv, symObjAddr: 0x28C20, symBinAddr: 0x1000310D8, symSize: 0x0 }
  - { offsetInCU: 0x44E9, offset: 0xAA643, size: 0x8, addend: 0x0, symName: _glad_glNewList, symObjAddr: 0x28C28, symBinAddr: 0x1000310E0, symSize: 0x0 }
  - { offsetInCU: 0x450C, offset: 0xAA666, size: 0x8, addend: 0x0, symName: _glad_glColor4us, symObjAddr: 0x28C30, symBinAddr: 0x1000310E8, symSize: 0x0 }
  - { offsetInCU: 0x454B, offset: 0xAA6A5, size: 0x8, addend: 0x0, symName: _glad_glVertexAttribP1uiv, symObjAddr: 0x28C38, symBinAddr: 0x1000310F0, symSize: 0x0 }
  - { offsetInCU: 0x458A, offset: 0xAA6E4, size: 0x8, addend: 0x0, symName: _glad_glLinkProgram, symObjAddr: 0x28C40, symBinAddr: 0x1000310F8, symSize: 0x0 }
  - { offsetInCU: 0x45AD, offset: 0xAA707, size: 0x8, addend: 0x0, symName: _glad_glHint, symObjAddr: 0x28C48, symBinAddr: 0x100031100, symSize: 0x0 }
  - { offsetInCU: 0x45D0, offset: 0xAA72A, size: 0x8, addend: 0x0, symName: _glad_glRects, symObjAddr: 0x28C50, symBinAddr: 0x100031108, symSize: 0x0 }
  - { offsetInCU: 0x45F3, offset: 0xAA74D, size: 0x8, addend: 0x0, symName: _glad_glTexCoord2dv, symObjAddr: 0x28C58, symBinAddr: 0x100031110, symSize: 0x0 }
  - { offsetInCU: 0x4616, offset: 0xAA770, size: 0x8, addend: 0x0, symName: _glad_glRasterPos4iv, symObjAddr: 0x28C60, symBinAddr: 0x100031118, symSize: 0x0 }
  - { offsetInCU: 0x4639, offset: 0xAA793, size: 0x8, addend: 0x0, symName: _glad_glGetString, symObjAddr: 0x28C68, symBinAddr: 0x100031120, symSize: 0x0 }
  - { offsetInCU: 0x466C, offset: 0xAA7C6, size: 0x8, addend: 0x0, symName: _glad_glVertexAttribP2uiv, symObjAddr: 0x28C70, symBinAddr: 0x100031128, symSize: 0x0 }
  - { offsetInCU: 0x468F, offset: 0xAA7E9, size: 0x8, addend: 0x0, symName: _glad_glEdgeFlagv, symObjAddr: 0x28C78, symBinAddr: 0x100031130, symSize: 0x0 }
  - { offsetInCU: 0x46C9, offset: 0xAA823, size: 0x8, addend: 0x0, symName: _glad_glDetachShader, symObjAddr: 0x28C80, symBinAddr: 0x100031138, symSize: 0x0 }
  - { offsetInCU: 0x46EC, offset: 0xAA846, size: 0x8, addend: 0x0, symName: _glad_glScalef, symObjAddr: 0x28C88, symBinAddr: 0x100031140, symSize: 0x0 }
  - { offsetInCU: 0x470F, offset: 0xAA869, size: 0x8, addend: 0x0, symName: _glad_glEndQuery, symObjAddr: 0x28C90, symBinAddr: 0x100031148, symSize: 0x0 }
  - { offsetInCU: 0x4732, offset: 0xAA88C, size: 0x8, addend: 0x0, symName: _glad_glScaled, symObjAddr: 0x28C98, symBinAddr: 0x100031150, symSize: 0x0 }
  - { offsetInCU: 0x4755, offset: 0xAA8AF, size: 0x8, addend: 0x0, symName: _glad_glEdgeFlagPointer, symObjAddr: 0x28CA0, symBinAddr: 0x100031158, symSize: 0x0 }
  - { offsetInCU: 0x478A, offset: 0xAA8E4, size: 0x8, addend: 0x0, symName: _glad_glCopyPixels, symObjAddr: 0x28CA8, symBinAddr: 0x100031160, symSize: 0x0 }
  - { offsetInCU: 0x47CE, offset: 0xAA928, size: 0x8, addend: 0x0, symName: _glad_glVertexAttribI2ui, symObjAddr: 0x28CB0, symBinAddr: 0x100031168, symSize: 0x0 }
  - { offsetInCU: 0x4808, offset: 0xAA962, size: 0x8, addend: 0x0, symName: _glad_glPopAttrib, symObjAddr: 0x28CB8, symBinAddr: 0x100031170, symSize: 0x0 }
  - { offsetInCU: 0x482B, offset: 0xAA985, size: 0x8, addend: 0x0, symName: _glad_glDeleteTextures, symObjAddr: 0x28CC0, symBinAddr: 0x100031178, symSize: 0x0 }
  - { offsetInCU: 0x484E, offset: 0xAA9A8, size: 0x8, addend: 0x0, symName: _glad_glStencilOpSeparate, symObjAddr: 0x28CC8, symBinAddr: 0x100031180, symSize: 0x0 }
  - { offsetInCU: 0x4871, offset: 0xAA9CB, size: 0x8, addend: 0x0, symName: _glad_glDeleteQueries, symObjAddr: 0x28CD0, symBinAddr: 0x100031188, symSize: 0x0 }
  - { offsetInCU: 0x4894, offset: 0xAA9EE, size: 0x8, addend: 0x0, symName: _glad_glNormalP3uiv, symObjAddr: 0x28CD8, symBinAddr: 0x100031190, symSize: 0x0 }
  - { offsetInCU: 0x48B7, offset: 0xAAA11, size: 0x8, addend: 0x0, symName: _glad_glVertexAttrib4f, symObjAddr: 0x28CE0, symBinAddr: 0x100031198, symSize: 0x0 }
  - { offsetInCU: 0x48FB, offset: 0xAAA55, size: 0x8, addend: 0x0, symName: _glad_glVertexAttrib4d, symObjAddr: 0x28CE8, symBinAddr: 0x1000311A0, symSize: 0x0 }
  - { offsetInCU: 0x493F, offset: 0xAAA99, size: 0x8, addend: 0x0, symName: _glad_glInitNames, symObjAddr: 0x28CF0, symBinAddr: 0x1000311A8, symSize: 0x0 }
  - { offsetInCU: 0x4962, offset: 0xAAABC, size: 0x8, addend: 0x0, symName: _glad_glGetBufferParameteri64v, symObjAddr: 0x28CF8, symBinAddr: 0x1000311B0, symSize: 0x0 }
  - { offsetInCU: 0x499C, offset: 0xAAAF6, size: 0x8, addend: 0x0, symName: _glad_glColor3dv, symObjAddr: 0x28D00, symBinAddr: 0x1000311B8, symSize: 0x0 }
  - { offsetInCU: 0x49BF, offset: 0xAAB19, size: 0x8, addend: 0x0, symName: _glad_glVertexAttribI1i, symObjAddr: 0x28D08, symBinAddr: 0x1000311C0, symSize: 0x0 }
  - { offsetInCU: 0x49F4, offset: 0xAAB4E, size: 0x8, addend: 0x0, symName: _glad_glGetTexParameteriv, symObjAddr: 0x28D10, symBinAddr: 0x1000311C8, symSize: 0x0 }
  - { offsetInCU: 0x4A17, offset: 0xAAB71, size: 0x8, addend: 0x0, symName: _glad_glWaitSync, symObjAddr: 0x28D18, symBinAddr: 0x1000311D0, symSize: 0x0 }
  - { offsetInCU: 0x4A63, offset: 0xAABBD, size: 0x8, addend: 0x0, symName: _glad_glVertexAttrib4s, symObjAddr: 0x28D20, symBinAddr: 0x1000311D8, symSize: 0x0 }
  - { offsetInCU: 0x4AA7, offset: 0xAAC01, size: 0x8, addend: 0x0, symName: _glad_glColorMaterial, symObjAddr: 0x28D28, symBinAddr: 0x1000311E0, symSize: 0x0 }
  - { offsetInCU: 0x4ACA, offset: 0xAAC24, size: 0x8, addend: 0x0, symName: _glad_glSampleCoverage, symObjAddr: 0x28D30, symBinAddr: 0x1000311E8, symSize: 0x0 }
  - { offsetInCU: 0x4AFF, offset: 0xAAC59, size: 0x8, addend: 0x0, symName: _glad_glSamplerParameteri, symObjAddr: 0x28D38, symBinAddr: 0x1000311F0, symSize: 0x0 }
  - { offsetInCU: 0x4B39, offset: 0xAAC93, size: 0x8, addend: 0x0, symName: _glad_glSamplerParameterf, symObjAddr: 0x28D40, symBinAddr: 0x1000311F8, symSize: 0x0 }
  - { offsetInCU: 0x4B73, offset: 0xAACCD, size: 0x8, addend: 0x0, symName: _glad_glUniform1f, symObjAddr: 0x28D48, symBinAddr: 0x100031200, symSize: 0x0 }
  - { offsetInCU: 0x4BA8, offset: 0xAAD02, size: 0x8, addend: 0x0, symName: _glad_glGetVertexAttribfv, symObjAddr: 0x28D50, symBinAddr: 0x100031208, symSize: 0x0 }
  - { offsetInCU: 0x4BCB, offset: 0xAAD25, size: 0x8, addend: 0x0, symName: _glad_glRenderMode, symObjAddr: 0x28D58, symBinAddr: 0x100031210, symSize: 0x0 }
  - { offsetInCU: 0x4BFE, offset: 0xAAD58, size: 0x8, addend: 0x0, symName: _glad_glGetCompressedTexImage, symObjAddr: 0x28D60, symBinAddr: 0x100031218, symSize: 0x0 }
  - { offsetInCU: 0x4C38, offset: 0xAAD92, size: 0x8, addend: 0x0, symName: _glad_glWindowPos2dv, symObjAddr: 0x28D68, symBinAddr: 0x100031220, symSize: 0x0 }
  - { offsetInCU: 0x4C5B, offset: 0xAADB5, size: 0x8, addend: 0x0, symName: _glad_glUniform1i, symObjAddr: 0x28D70, symBinAddr: 0x100031228, symSize: 0x0 }
  - { offsetInCU: 0x4C7E, offset: 0xAADD8, size: 0x8, addend: 0x0, symName: _glad_glGetActiveAttrib, symObjAddr: 0x28D78, symBinAddr: 0x100031230, symSize: 0x0 }
  - { offsetInCU: 0x4CCC, offset: 0xAAE26, size: 0x8, addend: 0x0, symName: _glad_glUniform3i, symObjAddr: 0x28D80, symBinAddr: 0x100031238, symSize: 0x0 }
  - { offsetInCU: 0x4CEF, offset: 0xAAE49, size: 0x8, addend: 0x0, symName: _glad_glPixelTransferi, symObjAddr: 0x28D88, symBinAddr: 0x100031240, symSize: 0x0 }
  - { offsetInCU: 0x4D12, offset: 0xAAE6C, size: 0x8, addend: 0x0, symName: _glad_glTexSubImage2D, symObjAddr: 0x28D90, symBinAddr: 0x100031248, symSize: 0x0 }
  - { offsetInCU: 0x4D6A, offset: 0xAAEC4, size: 0x8, addend: 0x0, symName: _glad_glDisable, symObjAddr: 0x28D98, symBinAddr: 0x100031250, symSize: 0x0 }
  - { offsetInCU: 0x4D8D, offset: 0xAAEE7, size: 0x8, addend: 0x0, symName: _glad_glLogicOp, symObjAddr: 0x28DA0, symBinAddr: 0x100031258, symSize: 0x0 }
  - { offsetInCU: 0x4DB0, offset: 0xAAF0A, size: 0x8, addend: 0x0, symName: _glad_glEvalPoint2, symObjAddr: 0x28DA8, symBinAddr: 0x100031260, symSize: 0x0 }
  - { offsetInCU: 0x4DD3, offset: 0xAAF2D, size: 0x8, addend: 0x0, symName: _glad_glPixelTransferf, symObjAddr: 0x28DB0, symBinAddr: 0x100031268, symSize: 0x0 }
  - { offsetInCU: 0x4DF6, offset: 0xAAF50, size: 0x8, addend: 0x0, symName: _glad_glSecondaryColor3i, symObjAddr: 0x28DB8, symBinAddr: 0x100031270, symSize: 0x0 }
  - { offsetInCU: 0x4E19, offset: 0xAAF73, size: 0x8, addend: 0x0, symName: _glad_glUniform4ui, symObjAddr: 0x28DC0, symBinAddr: 0x100031278, symSize: 0x0 }
  - { offsetInCU: 0x4E5D, offset: 0xAAFB7, size: 0x8, addend: 0x0, symName: _glad_glColor3f, symObjAddr: 0x28DC8, symBinAddr: 0x100031280, symSize: 0x0 }
  - { offsetInCU: 0x4E80, offset: 0xAAFDA, size: 0x8, addend: 0x0, symName: _glad_glBindFramebuffer, symObjAddr: 0x28DD0, symBinAddr: 0x100031288, symSize: 0x0 }
  - { offsetInCU: 0x4EA3, offset: 0xAAFFD, size: 0x8, addend: 0x0, symName: _glad_glGetTexEnvfv, symObjAddr: 0x28DD8, symBinAddr: 0x100031290, symSize: 0x0 }
  - { offsetInCU: 0x4EC6, offset: 0xAB020, size: 0x8, addend: 0x0, symName: _glad_glRectfv, symObjAddr: 0x28DE0, symBinAddr: 0x100031298, symSize: 0x0 }
  - { offsetInCU: 0x4EFB, offset: 0xAB055, size: 0x8, addend: 0x0, symName: _glad_glCullFace, symObjAddr: 0x28DE8, symBinAddr: 0x1000312A0, symSize: 0x0 }
  - { offsetInCU: 0x4F1E, offset: 0xAB078, size: 0x8, addend: 0x0, symName: _glad_glGetLightfv, symObjAddr: 0x28DF0, symBinAddr: 0x1000312A8, symSize: 0x0 }
  - { offsetInCU: 0x4F41, offset: 0xAB09B, size: 0x8, addend: 0x0, symName: _glad_glColor3d, symObjAddr: 0x28DF8, symBinAddr: 0x1000312B0, symSize: 0x0 }
  - { offsetInCU: 0x4F64, offset: 0xAB0BE, size: 0x8, addend: 0x0, symName: _glad_glTexGend, symObjAddr: 0x28E00, symBinAddr: 0x1000312B8, symSize: 0x0 }
  - { offsetInCU: 0x4F9E, offset: 0xAB0F8, size: 0x8, addend: 0x0, symName: _glad_glTexGeni, symObjAddr: 0x28E08, symBinAddr: 0x1000312C0, symSize: 0x0 }
  - { offsetInCU: 0x4FC1, offset: 0xAB11B, size: 0x8, addend: 0x0, symName: _glad_glMultiTexCoord3s, symObjAddr: 0x28E10, symBinAddr: 0x1000312C8, symSize: 0x0 }
  - { offsetInCU: 0x5000, offset: 0xAB15A, size: 0x8, addend: 0x0, symName: _glad_glGetStringi, symObjAddr: 0x28E18, symBinAddr: 0x1000312D0, symSize: 0x0 }
  - { offsetInCU: 0x5038, offset: 0xAB192, size: 0x8, addend: 0x0, symName: _glad_glMultiTexCoord3i, symObjAddr: 0x28E20, symBinAddr: 0x1000312D8, symSize: 0x0 }
  - { offsetInCU: 0x5077, offset: 0xAB1D1, size: 0x8, addend: 0x0, symName: _glad_glMultiTexCoord3f, symObjAddr: 0x28E28, symBinAddr: 0x1000312E0, symSize: 0x0 }
  - { offsetInCU: 0x50B6, offset: 0xAB210, size: 0x8, addend: 0x0, symName: _glad_glMultiTexCoord3d, symObjAddr: 0x28E30, symBinAddr: 0x1000312E8, symSize: 0x0 }
  - { offsetInCU: 0x50F5, offset: 0xAB24F, size: 0x8, addend: 0x0, symName: _glad_glAttachShader, symObjAddr: 0x28E38, symBinAddr: 0x1000312F0, symSize: 0x0 }
  - { offsetInCU: 0x5118, offset: 0xAB272, size: 0x8, addend: 0x0, symName: _glad_glFogCoorddv, symObjAddr: 0x28E40, symBinAddr: 0x1000312F8, symSize: 0x0 }
  - { offsetInCU: 0x513B, offset: 0xAB295, size: 0x8, addend: 0x0, symName: _glad_glUniformMatrix2x3fv, symObjAddr: 0x28E48, symBinAddr: 0x100031300, symSize: 0x0 }
  - { offsetInCU: 0x515E, offset: 0xAB2B8, size: 0x8, addend: 0x0, symName: _glad_glGetTexGenfv, symObjAddr: 0x28E50, symBinAddr: 0x100031308, symSize: 0x0 }
  - { offsetInCU: 0x5181, offset: 0xAB2DB, size: 0x8, addend: 0x0, symName: _glad_glQueryCounter, symObjAddr: 0x28E58, symBinAddr: 0x100031310, symSize: 0x0 }
  - { offsetInCU: 0x51A4, offset: 0xAB2FE, size: 0x8, addend: 0x0, symName: _glad_glFogCoordPointer, symObjAddr: 0x28E60, symBinAddr: 0x100031318, symSize: 0x0 }
  - { offsetInCU: 0x51C7, offset: 0xAB321, size: 0x8, addend: 0x0, symName: _glad_glProvokingVertex, symObjAddr: 0x28E68, symBinAddr: 0x100031320, symSize: 0x0 }
  - { offsetInCU: 0x51EA, offset: 0xAB344, size: 0x8, addend: 0x0, symName: _glad_glFramebufferTexture3D, symObjAddr: 0x28E70, symBinAddr: 0x100031328, symSize: 0x0 }
  - { offsetInCU: 0x5233, offset: 0xAB38D, size: 0x8, addend: 0x0, symName: _glad_glTexGeniv, symObjAddr: 0x28E78, symBinAddr: 0x100031330, symSize: 0x0 }
  - { offsetInCU: 0x5256, offset: 0xAB3B0, size: 0x8, addend: 0x0, symName: _glad_glRasterPos2dv, symObjAddr: 0x28E80, symBinAddr: 0x100031338, symSize: 0x0 }
  - { offsetInCU: 0x5279, offset: 0xAB3D3, size: 0x8, addend: 0x0, symName: _glad_glSecondaryColor3dv, symObjAddr: 0x28E88, symBinAddr: 0x100031340, symSize: 0x0 }
  - { offsetInCU: 0x529C, offset: 0xAB3F6, size: 0x8, addend: 0x0, symName: _glad_glClientActiveTexture, symObjAddr: 0x28E90, symBinAddr: 0x100031348, symSize: 0x0 }
  - { offsetInCU: 0x52BF, offset: 0xAB419, size: 0x8, addend: 0x0, symName: _glad_glVertexAttribI4sv, symObjAddr: 0x28E98, symBinAddr: 0x100031350, symSize: 0x0 }
  - { offsetInCU: 0x52E2, offset: 0xAB43C, size: 0x8, addend: 0x0, symName: _glad_glSecondaryColor3us, symObjAddr: 0x28EA0, symBinAddr: 0x100031358, symSize: 0x0 }
  - { offsetInCU: 0x531C, offset: 0xAB476, size: 0x8, addend: 0x0, symName: _glad_glNormalP3ui, symObjAddr: 0x28EA8, symBinAddr: 0x100031360, symSize: 0x0 }
  - { offsetInCU: 0x533F, offset: 0xAB499, size: 0x8, addend: 0x0, symName: _glad_glTexEnvfv, symObjAddr: 0x28EB0, symBinAddr: 0x100031368, symSize: 0x0 }
  - { offsetInCU: 0x5362, offset: 0xAB4BC, size: 0x8, addend: 0x0, symName: _glad_glReadBuffer, symObjAddr: 0x28EB8, symBinAddr: 0x100031370, symSize: 0x0 }
  - { offsetInCU: 0x5385, offset: 0xAB4DF, size: 0x8, addend: 0x0, symName: _glad_glTexParameterIuiv, symObjAddr: 0x28EC0, symBinAddr: 0x100031378, symSize: 0x0 }
  - { offsetInCU: 0x53A8, offset: 0xAB502, size: 0x8, addend: 0x0, symName: _glad_glDrawArraysInstanced, symObjAddr: 0x28EC8, symBinAddr: 0x100031380, symSize: 0x0 }
  - { offsetInCU: 0x53E7, offset: 0xAB541, size: 0x8, addend: 0x0, symName: _glad_glGenerateMipmap, symObjAddr: 0x28ED0, symBinAddr: 0x100031388, symSize: 0x0 }
  - { offsetInCU: 0x540A, offset: 0xAB564, size: 0x8, addend: 0x0, symName: _glad_glWindowPos3fv, symObjAddr: 0x28ED8, symBinAddr: 0x100031390, symSize: 0x0 }
  - { offsetInCU: 0x542D, offset: 0xAB587, size: 0x8, addend: 0x0, symName: _glad_glLightModelfv, symObjAddr: 0x28EE0, symBinAddr: 0x100031398, symSize: 0x0 }
  - { offsetInCU: 0x5450, offset: 0xAB5AA, size: 0x8, addend: 0x0, symName: _glad_glSamplerParameteriv, symObjAddr: 0x28EE8, symBinAddr: 0x1000313A0, symSize: 0x0 }
  - { offsetInCU: 0x5473, offset: 0xAB5CD, size: 0x8, addend: 0x0, symName: _glad_glDeleteLists, symObjAddr: 0x28EF0, symBinAddr: 0x1000313A8, symSize: 0x0 }
  - { offsetInCU: 0x54A8, offset: 0xAB602, size: 0x8, addend: 0x0, symName: _glad_glGetClipPlane, symObjAddr: 0x28EF8, symBinAddr: 0x1000313B0, symSize: 0x0 }
  - { offsetInCU: 0x54CB, offset: 0xAB625, size: 0x8, addend: 0x0, symName: _glad_glVertex4dv, symObjAddr: 0x28F00, symBinAddr: 0x1000313B8, symSize: 0x0 }
  - { offsetInCU: 0x54EE, offset: 0xAB648, size: 0x8, addend: 0x0, symName: _glad_glTexCoord2d, symObjAddr: 0x28F08, symBinAddr: 0x1000313C0, symSize: 0x0 }
  - { offsetInCU: 0x5511, offset: 0xAB66B, size: 0x8, addend: 0x0, symName: _glad_glPopMatrix, symObjAddr: 0x28F10, symBinAddr: 0x1000313C8, symSize: 0x0 }
  - { offsetInCU: 0x5534, offset: 0xAB68E, size: 0x8, addend: 0x0, symName: _glad_glTexCoord2f, symObjAddr: 0x28F18, symBinAddr: 0x1000313D0, symSize: 0x0 }
  - { offsetInCU: 0x5557, offset: 0xAB6B1, size: 0x8, addend: 0x0, symName: _glad_glColor4iv, symObjAddr: 0x28F20, symBinAddr: 0x1000313D8, symSize: 0x0 }
  - { offsetInCU: 0x557A, offset: 0xAB6D4, size: 0x8, addend: 0x0, symName: _glad_glIndexubv, symObjAddr: 0x28F28, symBinAddr: 0x1000313E0, symSize: 0x0 }
  - { offsetInCU: 0x559D, offset: 0xAB6F7, size: 0x8, addend: 0x0, symName: _glad_glUnmapBuffer, symObjAddr: 0x28F30, symBinAddr: 0x1000313E8, symSize: 0x0 }
  - { offsetInCU: 0x55C0, offset: 0xAB71A, size: 0x8, addend: 0x0, symName: _glad_glTexCoord2i, symObjAddr: 0x28F38, symBinAddr: 0x1000313F0, symSize: 0x0 }
  - { offsetInCU: 0x55E3, offset: 0xAB73D, size: 0x8, addend: 0x0, symName: _glad_glRasterPos4d, symObjAddr: 0x28F40, symBinAddr: 0x1000313F8, symSize: 0x0 }
  - { offsetInCU: 0x5606, offset: 0xAB760, size: 0x8, addend: 0x0, symName: _glad_glRasterPos4f, symObjAddr: 0x28F48, symBinAddr: 0x100031400, symSize: 0x0 }
  - { offsetInCU: 0x5629, offset: 0xAB783, size: 0x8, addend: 0x0, symName: _glad_glVertexAttrib3s, symObjAddr: 0x28F50, symBinAddr: 0x100031408, symSize: 0x0 }
  - { offsetInCU: 0x5668, offset: 0xAB7C2, size: 0x8, addend: 0x0, symName: _glad_glTexCoord2s, symObjAddr: 0x28F58, symBinAddr: 0x100031410, symSize: 0x0 }
  - { offsetInCU: 0x568B, offset: 0xAB7E5, size: 0x8, addend: 0x0, symName: _glad_glBindRenderbuffer, symObjAddr: 0x28F60, symBinAddr: 0x100031418, symSize: 0x0 }
  - { offsetInCU: 0x56AE, offset: 0xAB808, size: 0x8, addend: 0x0, symName: _glad_glVertex3fv, symObjAddr: 0x28F68, symBinAddr: 0x100031420, symSize: 0x0 }
  - { offsetInCU: 0x56D1, offset: 0xAB82B, size: 0x8, addend: 0x0, symName: _glad_glTexCoord4dv, symObjAddr: 0x28F70, symBinAddr: 0x100031428, symSize: 0x0 }
  - { offsetInCU: 0x56F4, offset: 0xAB84E, size: 0x8, addend: 0x0, symName: _glad_glMaterialiv, symObjAddr: 0x28F78, symBinAddr: 0x100031430, symSize: 0x0 }
  - { offsetInCU: 0x5717, offset: 0xAB871, size: 0x8, addend: 0x0, symName: _glad_glVertexAttribP4uiv, symObjAddr: 0x28F80, symBinAddr: 0x100031438, symSize: 0x0 }
  - { offsetInCU: 0x573A, offset: 0xAB894, size: 0x8, addend: 0x0, symName: _glad_glIsProgram, symObjAddr: 0x28F88, symBinAddr: 0x100031440, symSize: 0x0 }
  - { offsetInCU: 0x575D, offset: 0xAB8B7, size: 0x8, addend: 0x0, symName: _glad_glVertexAttrib4bv, symObjAddr: 0x28F90, symBinAddr: 0x100031448, symSize: 0x0 }
  - { offsetInCU: 0x5780, offset: 0xAB8DA, size: 0x8, addend: 0x0, symName: _glad_glVertex4s, symObjAddr: 0x28F98, symBinAddr: 0x100031450, symSize: 0x0 }
  - { offsetInCU: 0x57A3, offset: 0xAB8FD, size: 0x8, addend: 0x0, symName: _glad_glVertexAttrib4fv, symObjAddr: 0x28FA0, symBinAddr: 0x100031458, symSize: 0x0 }
  - { offsetInCU: 0x57C6, offset: 0xAB920, size: 0x8, addend: 0x0, symName: _glad_glNormal3dv, symObjAddr: 0x28FA8, symBinAddr: 0x100031460, symSize: 0x0 }
  - { offsetInCU: 0x57E9, offset: 0xAB943, size: 0x8, addend: 0x0, symName: _glad_glUniform4i, symObjAddr: 0x28FB0, symBinAddr: 0x100031468, symSize: 0x0 }
  - { offsetInCU: 0x582D, offset: 0xAB987, size: 0x8, addend: 0x0, symName: _glad_glActiveTexture, symObjAddr: 0x28FB8, symBinAddr: 0x100031470, symSize: 0x0 }
  - { offsetInCU: 0x5850, offset: 0xAB9AA, size: 0x8, addend: 0x0, symName: _glad_glEnableVertexAttribArray, symObjAddr: 0x28FC0, symBinAddr: 0x100031478, symSize: 0x0 }
  - { offsetInCU: 0x5873, offset: 0xAB9CD, size: 0x8, addend: 0x0, symName: _glad_glRotated, symObjAddr: 0x28FC8, symBinAddr: 0x100031480, symSize: 0x0 }
  - { offsetInCU: 0x5896, offset: 0xAB9F0, size: 0x8, addend: 0x0, symName: _glad_glRotatef, symObjAddr: 0x28FD0, symBinAddr: 0x100031488, symSize: 0x0 }
  - { offsetInCU: 0x58B9, offset: 0xABA13, size: 0x8, addend: 0x0, symName: _glad_glVertex4i, symObjAddr: 0x28FD8, symBinAddr: 0x100031490, symSize: 0x0 }
  - { offsetInCU: 0x58DC, offset: 0xABA36, size: 0x8, addend: 0x0, symName: _glad_glReadPixels, symObjAddr: 0x28FE0, symBinAddr: 0x100031498, symSize: 0x0 }
  - { offsetInCU: 0x592A, offset: 0xABA84, size: 0x8, addend: 0x0, symName: _glad_glVertexAttribI3iv, symObjAddr: 0x28FE8, symBinAddr: 0x1000314A0, symSize: 0x0 }
  - { offsetInCU: 0x595F, offset: 0xABAB9, size: 0x8, addend: 0x0, symName: _glad_glLoadName, symObjAddr: 0x28FF0, symBinAddr: 0x1000314A8, symSize: 0x0 }
  - { offsetInCU: 0x5982, offset: 0xABADC, size: 0x8, addend: 0x0, symName: _glad_glUniform4f, symObjAddr: 0x28FF8, symBinAddr: 0x1000314B0, symSize: 0x0 }
  - { offsetInCU: 0x59C6, offset: 0xABB20, size: 0x8, addend: 0x0, symName: _glad_glRenderbufferStorageMultisample, symObjAddr: 0x29000, symBinAddr: 0x1000314B8, symSize: 0x0 }
  - { offsetInCU: 0x5A0A, offset: 0xABB64, size: 0x8, addend: 0x0, symName: _glad_glGenVertexArrays, symObjAddr: 0x29008, symBinAddr: 0x1000314C0, symSize: 0x0 }
  - { offsetInCU: 0x5A2D, offset: 0xABB87, size: 0x8, addend: 0x0, symName: _glad_glShadeModel, symObjAddr: 0x29010, symBinAddr: 0x1000314C8, symSize: 0x0 }
  - { offsetInCU: 0x5A50, offset: 0xABBAA, size: 0x8, addend: 0x0, symName: _glad_glMapGrid1d, symObjAddr: 0x29018, symBinAddr: 0x1000314D0, symSize: 0x0 }
  - { offsetInCU: 0x5A8A, offset: 0xABBE4, size: 0x8, addend: 0x0, symName: _glad_glGetUniformfv, symObjAddr: 0x29020, symBinAddr: 0x1000314D8, symSize: 0x0 }
  - { offsetInCU: 0x5AC4, offset: 0xABC1E, size: 0x8, addend: 0x0, symName: _glad_glMapGrid1f, symObjAddr: 0x29028, symBinAddr: 0x1000314E0, symSize: 0x0 }
  - { offsetInCU: 0x5AFE, offset: 0xABC58, size: 0x8, addend: 0x0, symName: _glad_glSamplerParameterfv, symObjAddr: 0x29030, symBinAddr: 0x1000314E8, symSize: 0x0 }
  - { offsetInCU: 0x5B38, offset: 0xABC92, size: 0x8, addend: 0x0, symName: _glad_glDisableClientState, symObjAddr: 0x29038, symBinAddr: 0x1000314F0, symSize: 0x0 }
  - { offsetInCU: 0x5B5B, offset: 0xABCB5, size: 0x8, addend: 0x0, symName: _glad_glMultiTexCoord3sv, symObjAddr: 0x29040, symBinAddr: 0x1000314F8, symSize: 0x0 }
  - { offsetInCU: 0x5B7E, offset: 0xABCD8, size: 0x8, addend: 0x0, symName: _glad_glDrawElementsInstancedBaseVertex, symObjAddr: 0x29048, symBinAddr: 0x100031500, symSize: 0x0 }
  - { offsetInCU: 0x5BC7, offset: 0xABD21, size: 0x8, addend: 0x0, symName: _glad_glSecondaryColorPointer, symObjAddr: 0x29050, symBinAddr: 0x100031508, symSize: 0x0 }
  - { offsetInCU: 0x5BEA, offset: 0xABD44, size: 0x8, addend: 0x0, symName: _glad_glAlphaFunc, symObjAddr: 0x29058, symBinAddr: 0x100031510, symSize: 0x0 }
  - { offsetInCU: 0x5C0D, offset: 0xABD67, size: 0x8, addend: 0x0, symName: _glad_glUniform1iv, symObjAddr: 0x29060, symBinAddr: 0x100031518, symSize: 0x0 }
  - { offsetInCU: 0x5C30, offset: 0xABD8A, size: 0x8, addend: 0x0, symName: _glad_glMultiTexCoord4iv, symObjAddr: 0x29068, symBinAddr: 0x100031520, symSize: 0x0 }
  - { offsetInCU: 0x5C53, offset: 0xABDAD, size: 0x8, addend: 0x0, symName: _glad_glGetQueryObjectiv, symObjAddr: 0x29070, symBinAddr: 0x100031528, symSize: 0x0 }
  - { offsetInCU: 0x5C76, offset: 0xABDD0, size: 0x8, addend: 0x0, symName: _glad_glStencilFunc, symObjAddr: 0x29078, symBinAddr: 0x100031530, symSize: 0x0 }
  - { offsetInCU: 0x5CB0, offset: 0xABE0A, size: 0x8, addend: 0x0, symName: _glad_glMultiTexCoord1fv, symObjAddr: 0x29080, symBinAddr: 0x100031538, symSize: 0x0 }
  - { offsetInCU: 0x5CD3, offset: 0xABE2D, size: 0x8, addend: 0x0, symName: _glad_glUniformBlockBinding, symObjAddr: 0x29088, symBinAddr: 0x100031540, symSize: 0x0 }
  - { offsetInCU: 0x5CF6, offset: 0xABE50, size: 0x8, addend: 0x0, symName: _glad_glColor4uiv, symObjAddr: 0x29090, symBinAddr: 0x100031548, symSize: 0x0 }
  - { offsetInCU: 0x5D19, offset: 0xABE73, size: 0x8, addend: 0x0, symName: _glad_glRectiv, symObjAddr: 0x29098, symBinAddr: 0x100031550, symSize: 0x0 }
  - { offsetInCU: 0x5D4E, offset: 0xABEA8, size: 0x8, addend: 0x0, symName: _glad_glColorP4ui, symObjAddr: 0x290A0, symBinAddr: 0x100031558, symSize: 0x0 }
  - { offsetInCU: 0x5D71, offset: 0xABECB, size: 0x8, addend: 0x0, symName: _glad_glRasterPos3dv, symObjAddr: 0x290A8, symBinAddr: 0x100031560, symSize: 0x0 }
  - { offsetInCU: 0x5D94, offset: 0xABEEE, size: 0x8, addend: 0x0, symName: _glad_glEvalMesh2, symObjAddr: 0x290B0, symBinAddr: 0x100031568, symSize: 0x0 }
  - { offsetInCU: 0x5DD8, offset: 0xABF32, size: 0x8, addend: 0x0, symName: _glad_glEvalMesh1, symObjAddr: 0x290B8, symBinAddr: 0x100031570, symSize: 0x0 }
  - { offsetInCU: 0x5DFB, offset: 0xABF55, size: 0x8, addend: 0x0, symName: _glad_glTexCoordPointer, symObjAddr: 0x290C0, symBinAddr: 0x100031578, symSize: 0x0 }
  - { offsetInCU: 0x5E1E, offset: 0xABF78, size: 0x8, addend: 0x0, symName: _glad_glVertexAttrib4Nubv, symObjAddr: 0x290C8, symBinAddr: 0x100031580, symSize: 0x0 }
  - { offsetInCU: 0x5E41, offset: 0xABF9B, size: 0x8, addend: 0x0, symName: _glad_glVertexAttribI4iv, symObjAddr: 0x290D0, symBinAddr: 0x100031588, symSize: 0x0 }
  - { offsetInCU: 0x5E64, offset: 0xABFBE, size: 0x8, addend: 0x0, symName: _glad_glEvalCoord2fv, symObjAddr: 0x290D8, symBinAddr: 0x100031590, symSize: 0x0 }
  - { offsetInCU: 0x5E87, offset: 0xABFE1, size: 0x8, addend: 0x0, symName: _glad_glColor4ubv, symObjAddr: 0x290E0, symBinAddr: 0x100031598, symSize: 0x0 }
  - { offsetInCU: 0x5EAA, offset: 0xAC004, size: 0x8, addend: 0x0, symName: _glad_glLoadTransposeMatrixd, symObjAddr: 0x290E8, symBinAddr: 0x1000315A0, symSize: 0x0 }
  - { offsetInCU: 0x5ECD, offset: 0xAC027, size: 0x8, addend: 0x0, symName: _glad_glLoadTransposeMatrixf, symObjAddr: 0x290F0, symBinAddr: 0x1000315A8, symSize: 0x0 }
  - { offsetInCU: 0x5EF0, offset: 0xAC04A, size: 0x8, addend: 0x0, symName: _glad_glVertexAttribI4i, symObjAddr: 0x290F8, symBinAddr: 0x1000315B0, symSize: 0x0 }
  - { offsetInCU: 0x5F34, offset: 0xAC08E, size: 0x8, addend: 0x0, symName: _glad_glRasterPos2iv, symObjAddr: 0x29100, symBinAddr: 0x1000315B8, symSize: 0x0 }
  - { offsetInCU: 0x5F57, offset: 0xAC0B1, size: 0x8, addend: 0x0, symName: _glad_glGetBufferSubData, symObjAddr: 0x29108, symBinAddr: 0x1000315C0, symSize: 0x0 }
  - { offsetInCU: 0x5F96, offset: 0xAC0F0, size: 0x8, addend: 0x0, symName: _glad_glTexEnviv, symObjAddr: 0x29110, symBinAddr: 0x1000315C8, symSize: 0x0 }
  - { offsetInCU: 0x5FB9, offset: 0xAC113, size: 0x8, addend: 0x0, symName: _glad_glBlendEquationSeparate, symObjAddr: 0x29118, symBinAddr: 0x1000315D0, symSize: 0x0 }
  - { offsetInCU: 0x5FDC, offset: 0xAC136, size: 0x8, addend: 0x0, symName: _glad_glVertexAttribI1ui, symObjAddr: 0x29120, symBinAddr: 0x1000315D8, symSize: 0x0 }
  - { offsetInCU: 0x5FFF, offset: 0xAC159, size: 0x8, addend: 0x0, symName: _glad_glGenBuffers, symObjAddr: 0x29128, symBinAddr: 0x1000315E0, symSize: 0x0 }
  - { offsetInCU: 0x6022, offset: 0xAC17C, size: 0x8, addend: 0x0, symName: _glad_glSelectBuffer, symObjAddr: 0x29130, symBinAddr: 0x1000315E8, symSize: 0x0 }
  - { offsetInCU: 0x6045, offset: 0xAC19F, size: 0x8, addend: 0x0, symName: _glad_glVertexAttrib2sv, symObjAddr: 0x29138, symBinAddr: 0x1000315F0, symSize: 0x0 }
  - { offsetInCU: 0x6068, offset: 0xAC1C2, size: 0x8, addend: 0x0, symName: _glad_glPushAttrib, symObjAddr: 0x29140, symBinAddr: 0x1000315F8, symSize: 0x0 }
  - { offsetInCU: 0x608B, offset: 0xAC1E5, size: 0x8, addend: 0x0, symName: _glad_glVertexAttribIPointer, symObjAddr: 0x29148, symBinAddr: 0x100031600, symSize: 0x0 }
  - { offsetInCU: 0x60CF, offset: 0xAC229, size: 0x8, addend: 0x0, symName: _glad_glBlendFunc, symObjAddr: 0x29150, symBinAddr: 0x100031608, symSize: 0x0 }
  - { offsetInCU: 0x60F2, offset: 0xAC24C, size: 0x8, addend: 0x0, symName: _glad_glCreateProgram, symObjAddr: 0x29158, symBinAddr: 0x100031610, symSize: 0x0 }
  - { offsetInCU: 0x6120, offset: 0xAC27A, size: 0x8, addend: 0x0, symName: _glad_glTexImage3D, symObjAddr: 0x29160, symBinAddr: 0x100031618, symSize: 0x0 }
  - { offsetInCU: 0x617D, offset: 0xAC2D7, size: 0x8, addend: 0x0, symName: _glad_glIsFramebuffer, symObjAddr: 0x29168, symBinAddr: 0x100031620, symSize: 0x0 }
  - { offsetInCU: 0x61A0, offset: 0xAC2FA, size: 0x8, addend: 0x0, symName: _glad_glLightiv, symObjAddr: 0x29170, symBinAddr: 0x100031628, symSize: 0x0 }
  - { offsetInCU: 0x61C3, offset: 0xAC31D, size: 0x8, addend: 0x0, symName: _glad_glPrimitiveRestartIndex, symObjAddr: 0x29178, symBinAddr: 0x100031630, symSize: 0x0 }
  - { offsetInCU: 0x61E6, offset: 0xAC340, size: 0x8, addend: 0x0, symName: _glad_glTexGenfv, symObjAddr: 0x29180, symBinAddr: 0x100031638, symSize: 0x0 }
  - { offsetInCU: 0x6209, offset: 0xAC363, size: 0x8, addend: 0x0, symName: _glad_glEnd, symObjAddr: 0x29188, symBinAddr: 0x100031640, symSize: 0x0 }
  - { offsetInCU: 0x622C, offset: 0xAC386, size: 0x8, addend: 0x0, symName: _glad_glDeleteBuffers, symObjAddr: 0x29190, symBinAddr: 0x100031648, symSize: 0x0 }
  - { offsetInCU: 0x624F, offset: 0xAC3A9, size: 0x8, addend: 0x0, symName: _glad_glScissor, symObjAddr: 0x29198, symBinAddr: 0x100031650, symSize: 0x0 }
  - { offsetInCU: 0x6272, offset: 0xAC3CC, size: 0x8, addend: 0x0, symName: _glad_glTexCoordP4uiv, symObjAddr: 0x291A0, symBinAddr: 0x100031658, symSize: 0x0 }
  - { offsetInCU: 0x6295, offset: 0xAC3EF, size: 0x8, addend: 0x0, symName: _glad_glClipPlane, symObjAddr: 0x291A8, symBinAddr: 0x100031660, symSize: 0x0 }
  - { offsetInCU: 0x62B8, offset: 0xAC412, size: 0x8, addend: 0x0, symName: _glad_glPushName, symObjAddr: 0x291B0, symBinAddr: 0x100031668, symSize: 0x0 }
  - { offsetInCU: 0x62DB, offset: 0xAC435, size: 0x8, addend: 0x0, symName: _glad_glTexGendv, symObjAddr: 0x291B8, symBinAddr: 0x100031670, symSize: 0x0 }
  - { offsetInCU: 0x6315, offset: 0xAC46F, size: 0x8, addend: 0x0, symName: _glad_glIndexub, symObjAddr: 0x291C0, symBinAddr: 0x100031678, symSize: 0x0 }
  - { offsetInCU: 0x6345, offset: 0xAC49F, size: 0x8, addend: 0x0, symName: _glad_glVertexP2uiv, symObjAddr: 0x291C8, symBinAddr: 0x100031680, symSize: 0x0 }
  - { offsetInCU: 0x6368, offset: 0xAC4C2, size: 0x8, addend: 0x0, symName: _glad_glSecondaryColor3iv, symObjAddr: 0x291D0, symBinAddr: 0x100031688, symSize: 0x0 }
  - { offsetInCU: 0x638B, offset: 0xAC4E5, size: 0x8, addend: 0x0, symName: _glad_glRasterPos4i, symObjAddr: 0x291D8, symBinAddr: 0x100031690, symSize: 0x0 }
  - { offsetInCU: 0x63AE, offset: 0xAC508, size: 0x8, addend: 0x0, symName: _glad_glMultTransposeMatrixd, symObjAddr: 0x291E0, symBinAddr: 0x100031698, symSize: 0x0 }
  - { offsetInCU: 0x63D1, offset: 0xAC52B, size: 0x8, addend: 0x0, symName: _glad_glClearColor, symObjAddr: 0x291E8, symBinAddr: 0x1000316A0, symSize: 0x0 }
  - { offsetInCU: 0x63F4, offset: 0xAC54E, size: 0x8, addend: 0x0, symName: _glad_glVertexAttrib4uiv, symObjAddr: 0x291F0, symBinAddr: 0x1000316A8, symSize: 0x0 }
  - { offsetInCU: 0x6417, offset: 0xAC571, size: 0x8, addend: 0x0, symName: _glad_glNormal3s, symObjAddr: 0x291F8, symBinAddr: 0x1000316B0, symSize: 0x0 }
  - { offsetInCU: 0x643A, offset: 0xAC594, size: 0x8, addend: 0x0, symName: _glad_glVertexAttrib4Niv, symObjAddr: 0x29200, symBinAddr: 0x1000316B8, symSize: 0x0 }
  - { offsetInCU: 0x645D, offset: 0xAC5B7, size: 0x8, addend: 0x0, symName: _glad_glClearBufferiv, symObjAddr: 0x29208, symBinAddr: 0x1000316C0, symSize: 0x0 }
  - { offsetInCU: 0x6497, offset: 0xAC5F1, size: 0x8, addend: 0x0, symName: _glad_glPointParameteri, symObjAddr: 0x29210, symBinAddr: 0x1000316C8, symSize: 0x0 }
  - { offsetInCU: 0x64BA, offset: 0xAC614, size: 0x8, addend: 0x0, symName: _glad_glColorP4uiv, symObjAddr: 0x29218, symBinAddr: 0x1000316D0, symSize: 0x0 }
  - { offsetInCU: 0x64DD, offset: 0xAC637, size: 0x8, addend: 0x0, symName: _glad_glBlendColor, symObjAddr: 0x29220, symBinAddr: 0x1000316D8, symSize: 0x0 }
  - { offsetInCU: 0x6500, offset: 0xAC65A, size: 0x8, addend: 0x0, symName: _glad_glWindowPos3d, symObjAddr: 0x29228, symBinAddr: 0x1000316E0, symSize: 0x0 }
  - { offsetInCU: 0x6523, offset: 0xAC67D, size: 0x8, addend: 0x0, symName: _glad_glVertexAttribI2uiv, symObjAddr: 0x29230, symBinAddr: 0x1000316E8, symSize: 0x0 }
  - { offsetInCU: 0x6546, offset: 0xAC6A0, size: 0x8, addend: 0x0, symName: _glad_glSamplerParameterIuiv, symObjAddr: 0x29238, symBinAddr: 0x1000316F0, symSize: 0x0 }
  - { offsetInCU: 0x6580, offset: 0xAC6DA, size: 0x8, addend: 0x0, symName: _glad_glUniform3ui, symObjAddr: 0x29240, symBinAddr: 0x1000316F8, symSize: 0x0 }
  - { offsetInCU: 0x65BF, offset: 0xAC719, size: 0x8, addend: 0x0, symName: _glad_glColor4dv, symObjAddr: 0x29248, symBinAddr: 0x100031700, symSize: 0x0 }
  - { offsetInCU: 0x65E2, offset: 0xAC73C, size: 0x8, addend: 0x0, symName: _glad_glVertexAttribI4uiv, symObjAddr: 0x29250, symBinAddr: 0x100031708, symSize: 0x0 }
  - { offsetInCU: 0x6605, offset: 0xAC75F, size: 0x8, addend: 0x0, symName: _glad_glPointParameterfv, symObjAddr: 0x29258, symBinAddr: 0x100031710, symSize: 0x0 }
  - { offsetInCU: 0x6628, offset: 0xAC782, size: 0x8, addend: 0x0, symName: _glad_glUniform2fv, symObjAddr: 0x29260, symBinAddr: 0x100031718, symSize: 0x0 }
  - { offsetInCU: 0x664B, offset: 0xAC7A5, size: 0x8, addend: 0x0, symName: _glad_glSecondaryColor3ub, symObjAddr: 0x29268, symBinAddr: 0x100031720, symSize: 0x0 }
  - { offsetInCU: 0x6685, offset: 0xAC7DF, size: 0x8, addend: 0x0, symName: _glad_glSecondaryColor3ui, symObjAddr: 0x29270, symBinAddr: 0x100031728, symSize: 0x0 }
  - { offsetInCU: 0x66A8, offset: 0xAC802, size: 0x8, addend: 0x0, symName: _glad_glTexCoord3dv, symObjAddr: 0x29278, symBinAddr: 0x100031730, symSize: 0x0 }
  - { offsetInCU: 0x66CB, offset: 0xAC825, size: 0x8, addend: 0x0, symName: _glad_glGetSamplerParameterIuiv, symObjAddr: 0x29280, symBinAddr: 0x100031738, symSize: 0x0 }
  - { offsetInCU: 0x66EE, offset: 0xAC848, size: 0x8, addend: 0x0, symName: _glad_glBindBufferRange, symObjAddr: 0x29288, symBinAddr: 0x100031740, symSize: 0x0 }
  - { offsetInCU: 0x6732, offset: 0xAC88C, size: 0x8, addend: 0x0, symName: _glad_glNormal3iv, symObjAddr: 0x29290, symBinAddr: 0x100031748, symSize: 0x0 }
  - { offsetInCU: 0x6755, offset: 0xAC8AF, size: 0x8, addend: 0x0, symName: _glad_glWindowPos3s, symObjAddr: 0x29298, symBinAddr: 0x100031750, symSize: 0x0 }
  - { offsetInCU: 0x6778, offset: 0xAC8D2, size: 0x8, addend: 0x0, symName: _glad_glPointParameterf, symObjAddr: 0x292A0, symBinAddr: 0x100031758, symSize: 0x0 }
  - { offsetInCU: 0x679B, offset: 0xAC8F5, size: 0x8, addend: 0x0, symName: _glad_glGetVertexAttribIuiv, symObjAddr: 0x292A8, symBinAddr: 0x100031760, symSize: 0x0 }
  - { offsetInCU: 0x67BE, offset: 0xAC918, size: 0x8, addend: 0x0, symName: _glad_glWindowPos3i, symObjAddr: 0x292B0, symBinAddr: 0x100031768, symSize: 0x0 }
  - { offsetInCU: 0x67E1, offset: 0xAC93B, size: 0x8, addend: 0x0, symName: _glad_glMultiTexCoord4s, symObjAddr: 0x292B8, symBinAddr: 0x100031770, symSize: 0x0 }
  - { offsetInCU: 0x6825, offset: 0xAC97F, size: 0x8, addend: 0x0, symName: _glad_glWindowPos3f, symObjAddr: 0x292C0, symBinAddr: 0x100031778, symSize: 0x0 }
  - { offsetInCU: 0x6848, offset: 0xAC9A2, size: 0x8, addend: 0x0, symName: _glad_glColor3us, symObjAddr: 0x292C8, symBinAddr: 0x100031780, symSize: 0x0 }
  - { offsetInCU: 0x686B, offset: 0xAC9C5, size: 0x8, addend: 0x0, symName: _glad_glColor3uiv, symObjAddr: 0x292D0, symBinAddr: 0x100031788, symSize: 0x0 }
  - { offsetInCU: 0x688E, offset: 0xAC9E8, size: 0x8, addend: 0x0, symName: _glad_glVertexAttrib4Nusv, symObjAddr: 0x292D8, symBinAddr: 0x100031790, symSize: 0x0 }
  - { offsetInCU: 0x68B1, offset: 0xACA0B, size: 0x8, addend: 0x0, symName: _glad_glGetLightiv, symObjAddr: 0x292E0, symBinAddr: 0x100031798, symSize: 0x0 }
  - { offsetInCU: 0x68D4, offset: 0xACA2E, size: 0x8, addend: 0x0, symName: _glad_glDepthFunc, symObjAddr: 0x292E8, symBinAddr: 0x1000317A0, symSize: 0x0 }
  - { offsetInCU: 0x68F7, offset: 0xACA51, size: 0x8, addend: 0x0, symName: _glad_glCompressedTexSubImage2D, symObjAddr: 0x292F0, symBinAddr: 0x1000317A8, symSize: 0x0 }
  - { offsetInCU: 0x694F, offset: 0xACAA9, size: 0x8, addend: 0x0, symName: _glad_glListBase, symObjAddr: 0x292F8, symBinAddr: 0x1000317B0, symSize: 0x0 }
  - { offsetInCU: 0x6972, offset: 0xACACC, size: 0x8, addend: 0x0, symName: _glad_glMultiTexCoord4f, symObjAddr: 0x29300, symBinAddr: 0x1000317B8, symSize: 0x0 }
  - { offsetInCU: 0x69B6, offset: 0xACB10, size: 0x8, addend: 0x0, symName: _glad_glColor3ub, symObjAddr: 0x29308, symBinAddr: 0x1000317C0, symSize: 0x0 }
  - { offsetInCU: 0x69D9, offset: 0xACB33, size: 0x8, addend: 0x0, symName: _glad_glMultiTexCoord4d, symObjAddr: 0x29310, symBinAddr: 0x1000317C8, symSize: 0x0 }
  - { offsetInCU: 0x6A1D, offset: 0xACB77, size: 0x8, addend: 0x0, symName: _glad_glVertexAttribI4bv, symObjAddr: 0x29318, symBinAddr: 0x1000317D0, symSize: 0x0 }
  - { offsetInCU: 0x6A40, offset: 0xACB9A, size: 0x8, addend: 0x0, symName: _glad_glGetTexParameterfv, symObjAddr: 0x29320, symBinAddr: 0x1000317D8, symSize: 0x0 }
  - { offsetInCU: 0x6A63, offset: 0xACBBD, size: 0x8, addend: 0x0, symName: _glad_glColor3ui, symObjAddr: 0x29328, symBinAddr: 0x1000317E0, symSize: 0x0 }
  - { offsetInCU: 0x6A86, offset: 0xACBE0, size: 0x8, addend: 0x0, symName: _glad_glMultiTexCoord4i, symObjAddr: 0x29330, symBinAddr: 0x1000317E8, symSize: 0x0 }
  - { offsetInCU: 0x6AA9, offset: 0xACC03, size: 0x8, addend: 0x0, symName: _glad_glGetPolygonStipple, symObjAddr: 0x29338, symBinAddr: 0x1000317F0, symSize: 0x0 }
  - { offsetInCU: 0x6ADE, offset: 0xACC38, size: 0x8, addend: 0x0, symName: _glad_glClientWaitSync, symObjAddr: 0x29340, symBinAddr: 0x1000317F8, symSize: 0x0 }
  - { offsetInCU: 0x6B1B, offset: 0xACC75, size: 0x8, addend: 0x0, symName: _glad_glVertexAttribI4ui, symObjAddr: 0x29348, symBinAddr: 0x100031800, symSize: 0x0 }
  - { offsetInCU: 0x6B5F, offset: 0xACCB9, size: 0x8, addend: 0x0, symName: _glad_glMultiTexCoord4dv, symObjAddr: 0x29350, symBinAddr: 0x100031808, symSize: 0x0 }
  - { offsetInCU: 0x6B82, offset: 0xACCDC, size: 0x8, addend: 0x0, symName: _glad_glColorMask, symObjAddr: 0x29358, symBinAddr: 0x100031810, symSize: 0x0 }
  - { offsetInCU: 0x6BC1, offset: 0xACD1B, size: 0x8, addend: 0x0, symName: _glad_glTexParameterIiv, symObjAddr: 0x29360, symBinAddr: 0x100031818, symSize: 0x0 }
  - { offsetInCU: 0x6BE4, offset: 0xACD3E, size: 0x8, addend: 0x0, symName: _glad_glBlendEquation, symObjAddr: 0x29368, symBinAddr: 0x100031820, symSize: 0x0 }
  - { offsetInCU: 0x6C07, offset: 0xACD61, size: 0x8, addend: 0x0, symName: _glad_glGetUniformLocation, symObjAddr: 0x29370, symBinAddr: 0x100031828, symSize: 0x0 }
  - { offsetInCU: 0x6C2A, offset: 0xACD84, size: 0x8, addend: 0x0, symName: _glad_glGetSamplerParameteriv, symObjAddr: 0x29378, symBinAddr: 0x100031830, symSize: 0x0 }
  - { offsetInCU: 0x6C4D, offset: 0xACDA7, size: 0x8, addend: 0x0, symName: _glad_glRasterPos4s, symObjAddr: 0x29380, symBinAddr: 0x100031838, symSize: 0x0 }
  - { offsetInCU: 0x6C70, offset: 0xACDCA, size: 0x8, addend: 0x0, symName: _glad_glEndTransformFeedback, symObjAddr: 0x29388, symBinAddr: 0x100031840, symSize: 0x0 }
  - { offsetInCU: 0x6C93, offset: 0xACDED, size: 0x8, addend: 0x0, symName: _glad_glVertexAttrib4usv, symObjAddr: 0x29390, symBinAddr: 0x100031848, symSize: 0x0 }
  - { offsetInCU: 0x6CB6, offset: 0xACE10, size: 0x8, addend: 0x0, symName: _glad_glMultiTexCoord3dv, symObjAddr: 0x29398, symBinAddr: 0x100031850, symSize: 0x0 }
  - { offsetInCU: 0x6CD9, offset: 0xACE33, size: 0x8, addend: 0x0, symName: _glad_glColor4sv, symObjAddr: 0x293A0, symBinAddr: 0x100031858, symSize: 0x0 }
  - { offsetInCU: 0x6CFC, offset: 0xACE56, size: 0x8, addend: 0x0, symName: _glad_glPopClientAttrib, symObjAddr: 0x293A8, symBinAddr: 0x100031860, symSize: 0x0 }
  - { offsetInCU: 0x6D1F, offset: 0xACE79, size: 0x8, addend: 0x0, symName: _glad_glBeginTransformFeedback, symObjAddr: 0x293B0, symBinAddr: 0x100031868, symSize: 0x0 }
  - { offsetInCU: 0x6D42, offset: 0xACE9C, size: 0x8, addend: 0x0, symName: _glad_glFogf, symObjAddr: 0x293B8, symBinAddr: 0x100031870, symSize: 0x0 }
  - { offsetInCU: 0x6D65, offset: 0xACEBF, size: 0x8, addend: 0x0, symName: _glad_glVertexAttribI1iv, symObjAddr: 0x293C0, symBinAddr: 0x100031878, symSize: 0x0 }
  - { offsetInCU: 0x6D88, offset: 0xACEE2, size: 0x8, addend: 0x0, symName: _glad_glIsSampler, symObjAddr: 0x293C8, symBinAddr: 0x100031880, symSize: 0x0 }
  - { offsetInCU: 0x6DAB, offset: 0xACF05, size: 0x8, addend: 0x0, symName: _glad_glVertexP3ui, symObjAddr: 0x293D0, symBinAddr: 0x100031888, symSize: 0x0 }
  - { offsetInCU: 0x6DCE, offset: 0xACF28, size: 0x8, addend: 0x0, symName: _glad_glVertexAttribDivisor, symObjAddr: 0x293D8, symBinAddr: 0x100031890, symSize: 0x0 }
  - { offsetInCU: 0x6DF1, offset: 0xACF4B, size: 0x8, addend: 0x0, symName: _glad_glColor3iv, symObjAddr: 0x293E0, symBinAddr: 0x100031898, symSize: 0x0 }
  - { offsetInCU: 0x6E14, offset: 0xACF6E, size: 0x8, addend: 0x0, symName: _glad_glCompressedTexImage1D, symObjAddr: 0x293E8, symBinAddr: 0x1000318A0, symSize: 0x0 }
  - { offsetInCU: 0x6E62, offset: 0xACFBC, size: 0x8, addend: 0x0, symName: _glad_glCopyTexSubImage1D, symObjAddr: 0x293F0, symBinAddr: 0x1000318A8, symSize: 0x0 }
  - { offsetInCU: 0x6EAB, offset: 0xAD005, size: 0x8, addend: 0x0, symName: _glad_glTexCoord1i, symObjAddr: 0x293F8, symBinAddr: 0x1000318B0, symSize: 0x0 }
  - { offsetInCU: 0x6ECE, offset: 0xAD028, size: 0x8, addend: 0x0, symName: _glad_glCheckFramebufferStatus, symObjAddr: 0x29400, symBinAddr: 0x1000318B8, symSize: 0x0 }
  - { offsetInCU: 0x6F01, offset: 0xAD05B, size: 0x8, addend: 0x0, symName: _glad_glTexCoord1d, symObjAddr: 0x29408, symBinAddr: 0x1000318C0, symSize: 0x0 }
  - { offsetInCU: 0x6F24, offset: 0xAD07E, size: 0x8, addend: 0x0, symName: _glad_glTexCoord1f, symObjAddr: 0x29410, symBinAddr: 0x1000318C8, symSize: 0x0 }
  - { offsetInCU: 0x6F47, offset: 0xAD0A1, size: 0x8, addend: 0x0, symName: _glad_glEndConditionalRender, symObjAddr: 0x29418, symBinAddr: 0x1000318D0, symSize: 0x0 }
  - { offsetInCU: 0x6F6A, offset: 0xAD0C4, size: 0x8, addend: 0x0, symName: _glad_glEnableClientState, symObjAddr: 0x29420, symBinAddr: 0x1000318D8, symSize: 0x0 }
  - { offsetInCU: 0x6F8D, offset: 0xAD0E7, size: 0x8, addend: 0x0, symName: _glad_glBindAttribLocation, symObjAddr: 0x29428, symBinAddr: 0x1000318E0, symSize: 0x0 }
  - { offsetInCU: 0x6FB0, offset: 0xAD10A, size: 0x8, addend: 0x0, symName: _glad_glUniformMatrix4x2fv, symObjAddr: 0x29430, symBinAddr: 0x1000318E8, symSize: 0x0 }
  - { offsetInCU: 0x6FD3, offset: 0xAD12D, size: 0x8, addend: 0x0, symName: _glad_glMultiTexCoord2sv, symObjAddr: 0x29438, symBinAddr: 0x1000318F0, symSize: 0x0 }
  - { offsetInCU: 0x6FF6, offset: 0xAD150, size: 0x8, addend: 0x0, symName: _glad_glVertexAttrib1dv, symObjAddr: 0x29440, symBinAddr: 0x1000318F8, symSize: 0x0 }
  - { offsetInCU: 0x7019, offset: 0xAD173, size: 0x8, addend: 0x0, symName: _glad_glDrawRangeElements, symObjAddr: 0x29448, symBinAddr: 0x100031900, symSize: 0x0 }
  - { offsetInCU: 0x7062, offset: 0xAD1BC, size: 0x8, addend: 0x0, symName: _glad_glTexCoord1s, symObjAddr: 0x29450, symBinAddr: 0x100031908, symSize: 0x0 }
  - { offsetInCU: 0x7085, offset: 0xAD1DF, size: 0x8, addend: 0x0, symName: _glad_glBindBufferBase, symObjAddr: 0x29458, symBinAddr: 0x100031910, symSize: 0x0 }
  - { offsetInCU: 0x70BF, offset: 0xAD219, size: 0x8, addend: 0x0, symName: _glad_glBufferSubData, symObjAddr: 0x29460, symBinAddr: 0x100031918, symSize: 0x0 }
  - { offsetInCU: 0x70FE, offset: 0xAD258, size: 0x8, addend: 0x0, symName: _glad_glVertexAttrib4iv, symObjAddr: 0x29468, symBinAddr: 0x100031920, symSize: 0x0 }
  - { offsetInCU: 0x7121, offset: 0xAD27B, size: 0x8, addend: 0x0, symName: _glad_glGenLists, symObjAddr: 0x29470, symBinAddr: 0x100031928, symSize: 0x0 }
  - { offsetInCU: 0x7154, offset: 0xAD2AE, size: 0x8, addend: 0x0, symName: _glad_glColor3bv, symObjAddr: 0x29478, symBinAddr: 0x100031930, symSize: 0x0 }
  - { offsetInCU: 0x7177, offset: 0xAD2D1, size: 0x8, addend: 0x0, symName: _glad_glMapBufferRange, symObjAddr: 0x29480, symBinAddr: 0x100031938, symSize: 0x0 }
  - { offsetInCU: 0x71B9, offset: 0xAD313, size: 0x8, addend: 0x0, symName: _glad_glFramebufferTexture, symObjAddr: 0x29488, symBinAddr: 0x100031940, symSize: 0x0 }
  - { offsetInCU: 0x71F8, offset: 0xAD352, size: 0x8, addend: 0x0, symName: _glad_glGetTexGendv, symObjAddr: 0x29490, symBinAddr: 0x100031948, symSize: 0x0 }
  - { offsetInCU: 0x721B, offset: 0xAD375, size: 0x8, addend: 0x0, symName: _glad_glMultiDrawArrays, symObjAddr: 0x29498, symBinAddr: 0x100031950, symSize: 0x0 }
  - { offsetInCU: 0x725A, offset: 0xAD3B4, size: 0x8, addend: 0x0, symName: _glad_glEndList, symObjAddr: 0x294A0, symBinAddr: 0x100031958, symSize: 0x0 }
  - { offsetInCU: 0x727D, offset: 0xAD3D7, size: 0x8, addend: 0x0, symName: _glad_glVertexP4uiv, symObjAddr: 0x294A8, symBinAddr: 0x100031960, symSize: 0x0 }
  - { offsetInCU: 0x72A0, offset: 0xAD3FA, size: 0x8, addend: 0x0, symName: _glad_glUniform2ui, symObjAddr: 0x294B0, symBinAddr: 0x100031968, symSize: 0x0 }
  - { offsetInCU: 0x72DA, offset: 0xAD434, size: 0x8, addend: 0x0, symName: _glad_glVertexAttribI2iv, symObjAddr: 0x294B8, symBinAddr: 0x100031970, symSize: 0x0 }
  - { offsetInCU: 0x72FD, offset: 0xAD457, size: 0x8, addend: 0x0, symName: _glad_glColor3usv, symObjAddr: 0x294C0, symBinAddr: 0x100031978, symSize: 0x0 }
  - { offsetInCU: 0x7320, offset: 0xAD47A, size: 0x8, addend: 0x0, symName: _glad_glWindowPos2fv, symObjAddr: 0x294C8, symBinAddr: 0x100031980, symSize: 0x0 }
  - { offsetInCU: 0x7343, offset: 0xAD49D, size: 0x8, addend: 0x0, symName: _glad_glDisablei, symObjAddr: 0x294D0, symBinAddr: 0x100031988, symSize: 0x0 }
  - { offsetInCU: 0x7366, offset: 0xAD4C0, size: 0x8, addend: 0x0, symName: _glad_glIndexMask, symObjAddr: 0x294D8, symBinAddr: 0x100031990, symSize: 0x0 }
  - { offsetInCU: 0x7389, offset: 0xAD4E3, size: 0x8, addend: 0x0, symName: _glad_glPushClientAttrib, symObjAddr: 0x294E0, symBinAddr: 0x100031998, symSize: 0x0 }
  - { offsetInCU: 0x73AC, offset: 0xAD506, size: 0x8, addend: 0x0, symName: _glad_glShaderSource, symObjAddr: 0x294E8, symBinAddr: 0x1000319A0, symSize: 0x0 }
  - { offsetInCU: 0x73EB, offset: 0xAD545, size: 0x8, addend: 0x0, symName: _glad_glGetActiveUniformBlockName, symObjAddr: 0x294F0, symBinAddr: 0x1000319A8, symSize: 0x0 }
  - { offsetInCU: 0x740E, offset: 0xAD568, size: 0x8, addend: 0x0, symName: _glad_glVertexAttribI3uiv, symObjAddr: 0x294F8, symBinAddr: 0x1000319B0, symSize: 0x0 }
  - { offsetInCU: 0x7431, offset: 0xAD58B, size: 0x8, addend: 0x0, symName: _glad_glClearAccum, symObjAddr: 0x29500, symBinAddr: 0x1000319B8, symSize: 0x0 }
  - { offsetInCU: 0x7454, offset: 0xAD5AE, size: 0x8, addend: 0x0, symName: _glad_glGetSynciv, symObjAddr: 0x29508, symBinAddr: 0x1000319C0, symSize: 0x0 }
  - { offsetInCU: 0x7498, offset: 0xAD5F2, size: 0x8, addend: 0x0, symName: _glad_glTexCoordP2uiv, symObjAddr: 0x29510, symBinAddr: 0x1000319C8, symSize: 0x0 }
  - { offsetInCU: 0x74BB, offset: 0xAD615, size: 0x8, addend: 0x0, symName: _glad_glUniform2f, symObjAddr: 0x29518, symBinAddr: 0x1000319D0, symSize: 0x0 }
  - { offsetInCU: 0x74DE, offset: 0xAD638, size: 0x8, addend: 0x0, symName: _glad_glBeginQuery, symObjAddr: 0x29520, symBinAddr: 0x1000319D8, symSize: 0x0 }
  - { offsetInCU: 0x7501, offset: 0xAD65B, size: 0x8, addend: 0x0, symName: _glad_glGetUniformBlockIndex, symObjAddr: 0x29528, symBinAddr: 0x1000319E0, symSize: 0x0 }
  - { offsetInCU: 0x7539, offset: 0xAD693, size: 0x8, addend: 0x0, symName: _glad_glBindBuffer, symObjAddr: 0x29530, symBinAddr: 0x1000319E8, symSize: 0x0 }
  - { offsetInCU: 0x755C, offset: 0xAD6B6, size: 0x8, addend: 0x0, symName: _glad_glMap2d, symObjAddr: 0x29538, symBinAddr: 0x1000319F0, symSize: 0x0 }
  - { offsetInCU: 0x75B9, offset: 0xAD713, size: 0x8, addend: 0x0, symName: _glad_glMap2f, symObjAddr: 0x29540, symBinAddr: 0x1000319F8, symSize: 0x0 }
  - { offsetInCU: 0x7616, offset: 0xAD770, size: 0x8, addend: 0x0, symName: _glad_glVertex4d, symObjAddr: 0x29548, symBinAddr: 0x100031A00, symSize: 0x0 }
  - { offsetInCU: 0x7639, offset: 0xAD793, size: 0x8, addend: 0x0, symName: _glad_glUniformMatrix2fv, symObjAddr: 0x29550, symBinAddr: 0x100031A08, symSize: 0x0 }
  - { offsetInCU: 0x765C, offset: 0xAD7B6, size: 0x8, addend: 0x0, symName: _glad_glTexCoord1sv, symObjAddr: 0x29558, symBinAddr: 0x100031A10, symSize: 0x0 }
  - { offsetInCU: 0x767F, offset: 0xAD7D9, size: 0x8, addend: 0x0, symName: _glad_glBufferData, symObjAddr: 0x29560, symBinAddr: 0x100031A18, symSize: 0x0 }
  - { offsetInCU: 0x76BE, offset: 0xAD818, size: 0x8, addend: 0x0, symName: _glad_glEvalPoint1, symObjAddr: 0x29568, symBinAddr: 0x100031A20, symSize: 0x0 }
  - { offsetInCU: 0x76E1, offset: 0xAD83B, size: 0x8, addend: 0x0, symName: _glad_glGetTexParameterIiv, symObjAddr: 0x29570, symBinAddr: 0x100031A28, symSize: 0x0 }
  - { offsetInCU: 0x7704, offset: 0xAD85E, size: 0x8, addend: 0x0, symName: _glad_glTexCoord1dv, symObjAddr: 0x29578, symBinAddr: 0x100031A30, symSize: 0x0 }
  - { offsetInCU: 0x7727, offset: 0xAD881, size: 0x8, addend: 0x0, symName: _glad_glTexCoordP1ui, symObjAddr: 0x29580, symBinAddr: 0x100031A38, symSize: 0x0 }
  - { offsetInCU: 0x774A, offset: 0xAD8A4, size: 0x8, addend: 0x0, symName: _glad_glGetError, symObjAddr: 0x29588, symBinAddr: 0x100031A40, symSize: 0x0 }
  - { offsetInCU: 0x7778, offset: 0xAD8D2, size: 0x8, addend: 0x0, symName: _glad_glGetTexEnviv, symObjAddr: 0x29590, symBinAddr: 0x100031A48, symSize: 0x0 }
  - { offsetInCU: 0x779B, offset: 0xAD8F5, size: 0x8, addend: 0x0, symName: _glad_glGetProgramiv, symObjAddr: 0x29598, symBinAddr: 0x100031A50, symSize: 0x0 }
  - { offsetInCU: 0x77BE, offset: 0xAD918, size: 0x8, addend: 0x0, symName: _glad_glVertexAttribP2ui, symObjAddr: 0x295A0, symBinAddr: 0x100031A58, symSize: 0x0 }
  - { offsetInCU: 0x77E1, offset: 0xAD93B, size: 0x8, addend: 0x0, symName: _glad_glGetFloatv, symObjAddr: 0x295A8, symBinAddr: 0x100031A60, symSize: 0x0 }
  - { offsetInCU: 0x7804, offset: 0xAD95E, size: 0x8, addend: 0x0, symName: _glad_glTexSubImage1D, symObjAddr: 0x295B0, symBinAddr: 0x100031A68, symSize: 0x0 }
  - { offsetInCU: 0x7852, offset: 0xAD9AC, size: 0x8, addend: 0x0, symName: _glad_glMultiTexCoord2fv, symObjAddr: 0x295B8, symBinAddr: 0x100031A70, symSize: 0x0 }
  - { offsetInCU: 0x7875, offset: 0xAD9CF, size: 0x8, addend: 0x0, symName: _glad_glVertexAttrib2fv, symObjAddr: 0x295C0, symBinAddr: 0x100031A78, symSize: 0x0 }
  - { offsetInCU: 0x7898, offset: 0xAD9F2, size: 0x8, addend: 0x0, symName: _glad_glEvalCoord1d, symObjAddr: 0x295C8, symBinAddr: 0x100031A80, symSize: 0x0 }
  - { offsetInCU: 0x78BB, offset: 0xADA15, size: 0x8, addend: 0x0, symName: _glad_glGetTexLevelParameterfv, symObjAddr: 0x295D0, symBinAddr: 0x100031A88, symSize: 0x0 }
  - { offsetInCU: 0x78FA, offset: 0xADA54, size: 0x8, addend: 0x0, symName: _glad_glEvalCoord1f, symObjAddr: 0x295D8, symBinAddr: 0x100031A90, symSize: 0x0 }
  - { offsetInCU: 0x791D, offset: 0xADA77, size: 0x8, addend: 0x0, symName: _glad_glPixelMapfv, symObjAddr: 0x295E0, symBinAddr: 0x100031A98, symSize: 0x0 }
  - { offsetInCU: 0x7957, offset: 0xADAB1, size: 0x8, addend: 0x0, symName: _glad_glVertexAttribP3uiv, symObjAddr: 0x295E8, symBinAddr: 0x100031AA0, symSize: 0x0 }
  - { offsetInCU: 0x797A, offset: 0xADAD4, size: 0x8, addend: 0x0, symName: _glad_glGetPixelMapusv, symObjAddr: 0x295F0, symBinAddr: 0x100031AA8, symSize: 0x0 }
  - { offsetInCU: 0x79B4, offset: 0xADB0E, size: 0x8, addend: 0x0, symName: _glad_glSecondaryColorP3uiv, symObjAddr: 0x295F8, symBinAddr: 0x100031AB0, symSize: 0x0 }
  - { offsetInCU: 0x79D7, offset: 0xADB31, size: 0x8, addend: 0x0, symName: _glad_glGetIntegerv, symObjAddr: 0x29600, symBinAddr: 0x100031AB8, symSize: 0x0 }
  - { offsetInCU: 0x7A0C, offset: 0xADB66, size: 0x8, addend: 0x0, symName: _glad_glAccum, symObjAddr: 0x29608, symBinAddr: 0x100031AC0, symSize: 0x0 }
  - { offsetInCU: 0x7A2F, offset: 0xADB89, size: 0x8, addend: 0x0, symName: _glad_glGetBufferPointerv, symObjAddr: 0x29610, symBinAddr: 0x100031AC8, symSize: 0x0 }
  - { offsetInCU: 0x7A69, offset: 0xADBC3, size: 0x8, addend: 0x0, symName: _glad_glGetVertexAttribIiv, symObjAddr: 0x29618, symBinAddr: 0x100031AD0, symSize: 0x0 }
  - { offsetInCU: 0x7A8C, offset: 0xADBE6, size: 0x8, addend: 0x0, symName: _glad_glRasterPos4dv, symObjAddr: 0x29620, symBinAddr: 0x100031AD8, symSize: 0x0 }
  - { offsetInCU: 0x7AAF, offset: 0xADC09, size: 0x8, addend: 0x0, symName: _glad_glTexCoord2iv, symObjAddr: 0x29628, symBinAddr: 0x100031AE0, symSize: 0x0 }
  - { offsetInCU: 0x7AD2, offset: 0xADC2C, size: 0x8, addend: 0x0, symName: _glad_glIsQuery, symObjAddr: 0x29630, symBinAddr: 0x100031AE8, symSize: 0x0 }
  - { offsetInCU: 0x7AF5, offset: 0xADC4F, size: 0x8, addend: 0x0, symName: _glad_glVertexAttrib4sv, symObjAddr: 0x29638, symBinAddr: 0x100031AF0, symSize: 0x0 }
  - { offsetInCU: 0x7B18, offset: 0xADC72, size: 0x8, addend: 0x0, symName: _glad_glWindowPos3dv, symObjAddr: 0x29640, symBinAddr: 0x100031AF8, symSize: 0x0 }
  - { offsetInCU: 0x7B3B, offset: 0xADC95, size: 0x8, addend: 0x0, symName: _glad_glTexImage2D, symObjAddr: 0x29648, symBinAddr: 0x100031B00, symSize: 0x0 }
  - { offsetInCU: 0x7B93, offset: 0xADCED, size: 0x8, addend: 0x0, symName: _glad_glStencilMask, symObjAddr: 0x29650, symBinAddr: 0x100031B08, symSize: 0x0 }
  - { offsetInCU: 0x7BB6, offset: 0xADD10, size: 0x8, addend: 0x0, symName: _glad_glDrawPixels, symObjAddr: 0x29658, symBinAddr: 0x100031B10, symSize: 0x0 }
  - { offsetInCU: 0x7BFA, offset: 0xADD54, size: 0x8, addend: 0x0, symName: _glad_glMultMatrixd, symObjAddr: 0x29660, symBinAddr: 0x100031B18, symSize: 0x0 }
  - { offsetInCU: 0x7C1D, offset: 0xADD77, size: 0x8, addend: 0x0, symName: _glad_glMultMatrixf, symObjAddr: 0x29668, symBinAddr: 0x100031B20, symSize: 0x0 }
  - { offsetInCU: 0x7C40, offset: 0xADD9A, size: 0x8, addend: 0x0, symName: _glad_glIsTexture, symObjAddr: 0x29670, symBinAddr: 0x100031B28, symSize: 0x0 }
  - { offsetInCU: 0x7C63, offset: 0xADDBD, size: 0x8, addend: 0x0, symName: _glad_glGetMaterialiv, symObjAddr: 0x29678, symBinAddr: 0x100031B30, symSize: 0x0 }
  - { offsetInCU: 0x7C86, offset: 0xADDE0, size: 0x8, addend: 0x0, symName: _glad_glUniform1fv, symObjAddr: 0x29680, symBinAddr: 0x100031B38, symSize: 0x0 }
  - { offsetInCU: 0x7CA9, offset: 0xADE03, size: 0x8, addend: 0x0, symName: _glad_glLoadMatrixf, symObjAddr: 0x29688, symBinAddr: 0x100031B40, symSize: 0x0 }
  - { offsetInCU: 0x7CCC, offset: 0xADE26, size: 0x8, addend: 0x0, symName: _glad_glLoadMatrixd, symObjAddr: 0x29690, symBinAddr: 0x100031B48, symSize: 0x0 }
  - { offsetInCU: 0x7CEF, offset: 0xADE49, size: 0x8, addend: 0x0, symName: _glad_glTexParameterfv, symObjAddr: 0x29698, symBinAddr: 0x100031B50, symSize: 0x0 }
  - { offsetInCU: 0x7D12, offset: 0xADE6C, size: 0x8, addend: 0x0, symName: _glad_glUniformMatrix3fv, symObjAddr: 0x296A0, symBinAddr: 0x100031B58, symSize: 0x0 }
  - { offsetInCU: 0x7D35, offset: 0xADE8F, size: 0x8, addend: 0x0, symName: _glad_glVertex4f, symObjAddr: 0x296A8, symBinAddr: 0x100031B60, symSize: 0x0 }
  - { offsetInCU: 0x7D58, offset: 0xADEB2, size: 0x8, addend: 0x0, symName: _glad_glRectsv, symObjAddr: 0x296B0, symBinAddr: 0x100031B68, symSize: 0x0 }
  - { offsetInCU: 0x7D8D, offset: 0xADEE7, size: 0x8, addend: 0x0, symName: _glad_glColor4usv, symObjAddr: 0x296B8, symBinAddr: 0x100031B70, symSize: 0x0 }
  - { offsetInCU: 0x7DB0, offset: 0xADF0A, size: 0x8, addend: 0x0, symName: _glad_glPolygonStipple, symObjAddr: 0x296C0, symBinAddr: 0x100031B78, symSize: 0x0 }
  - { offsetInCU: 0x7DD3, offset: 0xADF2D, size: 0x8, addend: 0x0, symName: _glad_glInterleavedArrays, symObjAddr: 0x296C8, symBinAddr: 0x100031B80, symSize: 0x0 }
  - { offsetInCU: 0x7DF6, offset: 0xADF50, size: 0x8, addend: 0x0, symName: _glad_glNormal3i, symObjAddr: 0x296D0, symBinAddr: 0x100031B88, symSize: 0x0 }
  - { offsetInCU: 0x7E19, offset: 0xADF73, size: 0x8, addend: 0x0, symName: _glad_glNormal3f, symObjAddr: 0x296D8, symBinAddr: 0x100031B90, symSize: 0x0 }
  - { offsetInCU: 0x7E3C, offset: 0xADF96, size: 0x8, addend: 0x0, symName: _glad_glNormal3d, symObjAddr: 0x296E0, symBinAddr: 0x100031B98, symSize: 0x0 }
  - { offsetInCU: 0x7E5F, offset: 0xADFB9, size: 0x8, addend: 0x0, symName: _glad_glNormal3b, symObjAddr: 0x296E8, symBinAddr: 0x100031BA0, symSize: 0x0 }
  - { offsetInCU: 0x7E82, offset: 0xADFDC, size: 0x8, addend: 0x0, symName: _glad_glPixelMapusv, symObjAddr: 0x296F0, symBinAddr: 0x100031BA8, symSize: 0x0 }
  - { offsetInCU: 0x7EBC, offset: 0xAE016, size: 0x8, addend: 0x0, symName: _glad_glGetTexGeniv, symObjAddr: 0x296F8, symBinAddr: 0x100031BB0, symSize: 0x0 }
  - { offsetInCU: 0x7EDF, offset: 0xAE039, size: 0x8, addend: 0x0, symName: _glad_glArrayElement, symObjAddr: 0x29700, symBinAddr: 0x100031BB8, symSize: 0x0 }
  - { offsetInCU: 0x7F02, offset: 0xAE05C, size: 0x8, addend: 0x0, symName: _glad_glCopyBufferSubData, symObjAddr: 0x29708, symBinAddr: 0x100031BC0, symSize: 0x0 }
  - { offsetInCU: 0x7F46, offset: 0xAE0A0, size: 0x8, addend: 0x0, symName: _glad_glVertexAttribI1uiv, symObjAddr: 0x29710, symBinAddr: 0x100031BC8, symSize: 0x0 }
  - { offsetInCU: 0x7F69, offset: 0xAE0C3, size: 0x8, addend: 0x0, symName: _glad_glVertexAttrib2d, symObjAddr: 0x29718, symBinAddr: 0x100031BD0, symSize: 0x0 }
  - { offsetInCU: 0x7FA3, offset: 0xAE0FD, size: 0x8, addend: 0x0, symName: _glad_glVertexAttrib2f, symObjAddr: 0x29720, symBinAddr: 0x100031BD8, symSize: 0x0 }
  - { offsetInCU: 0x7FDD, offset: 0xAE137, size: 0x8, addend: 0x0, symName: _glad_glVertexAttrib3dv, symObjAddr: 0x29728, symBinAddr: 0x100031BE0, symSize: 0x0 }
  - { offsetInCU: 0x8000, offset: 0xAE15A, size: 0x8, addend: 0x0, symName: _glad_glGetQueryObjectui64v, symObjAddr: 0x29730, symBinAddr: 0x100031BE8, symSize: 0x0 }
  - { offsetInCU: 0x803F, offset: 0xAE199, size: 0x8, addend: 0x0, symName: _glad_glDepthMask, symObjAddr: 0x29738, symBinAddr: 0x100031BF0, symSize: 0x0 }
  - { offsetInCU: 0x8062, offset: 0xAE1BC, size: 0x8, addend: 0x0, symName: _glad_glVertexAttrib2s, symObjAddr: 0x29740, symBinAddr: 0x100031BF8, symSize: 0x0 }
  - { offsetInCU: 0x809C, offset: 0xAE1F6, size: 0x8, addend: 0x0, symName: _glad_glColor3fv, symObjAddr: 0x29748, symBinAddr: 0x100031C00, symSize: 0x0 }
  - { offsetInCU: 0x80BF, offset: 0xAE219, size: 0x8, addend: 0x0, symName: _glad_glTexImage3DMultisample, symObjAddr: 0x29750, symBinAddr: 0x100031C08, symSize: 0x0 }
  - { offsetInCU: 0x810D, offset: 0xAE267, size: 0x8, addend: 0x0, symName: _glad_glUniformMatrix4fv, symObjAddr: 0x29758, symBinAddr: 0x100031C10, symSize: 0x0 }
  - { offsetInCU: 0x8130, offset: 0xAE28A, size: 0x8, addend: 0x0, symName: _glad_glUniform4fv, symObjAddr: 0x29760, symBinAddr: 0x100031C18, symSize: 0x0 }
  - { offsetInCU: 0x8153, offset: 0xAE2AD, size: 0x8, addend: 0x0, symName: _glad_glGetActiveUniform, symObjAddr: 0x29768, symBinAddr: 0x100031C20, symSize: 0x0 }
  - { offsetInCU: 0x8176, offset: 0xAE2D0, size: 0x8, addend: 0x0, symName: _glad_glColorPointer, symObjAddr: 0x29770, symBinAddr: 0x100031C28, symSize: 0x0 }
  - { offsetInCU: 0x8199, offset: 0xAE2F3, size: 0x8, addend: 0x0, symName: _glad_glFrontFace, symObjAddr: 0x29778, symBinAddr: 0x100031C30, symSize: 0x0 }
  - { offsetInCU: 0x81BC, offset: 0xAE316, size: 0x8, addend: 0x0, symName: _glad_glGetBooleani_v, symObjAddr: 0x29780, symBinAddr: 0x100031C38, symSize: 0x0 }
  - { offsetInCU: 0x81F6, offset: 0xAE350, size: 0x8, addend: 0x0, symName: _glad_glClearBufferuiv, symObjAddr: 0x29788, symBinAddr: 0x100031C40, symSize: 0x0 }
  - { offsetInCU: 0x822F, offset: 0xAE389, size: 0x8, addend: 0x0, symName: __ZL7open_glv, symObjAddr: 0x40, symBinAddr: 0x100022800, symSize: 0x90 }
  - { offsetInCU: 0x8259, offset: 0xAE3B3, size: 0x8, addend: 0x0, symName: __ZZL7open_glvE5NAMES, symObjAddr: 0x69C0, symBinAddr: 0x100030010, symSize: 0x0 }
  - { offsetInCU: 0x8290, offset: 0xAE3EA, size: 0x8, addend: 0x0, symName: __ZL5libGL, symObjAddr: 0x29790, symBinAddr: 0x100031C58, symSize: 0x0 }
  - { offsetInCU: 0x82AA, offset: 0xAE404, size: 0x8, addend: 0x0, symName: __ZL16max_loaded_major, symObjAddr: 0x29798, symBinAddr: 0x100031C60, symSize: 0x0 }
  - { offsetInCU: 0x82C4, offset: 0xAE41E, size: 0x8, addend: 0x0, symName: __ZL16max_loaded_minor, symObjAddr: 0x2979C, symBinAddr: 0x100031C64, symSize: 0x0 }
  - { offsetInCU: 0x82DE, offset: 0xAE438, size: 0x8, addend: 0x0, symName: __ZL4exts, symObjAddr: 0x297A0, symBinAddr: 0x100031C68, symSize: 0x0 }
  - { offsetInCU: 0x82F8, offset: 0xAE452, size: 0x8, addend: 0x0, symName: __ZL10num_exts_i, symObjAddr: 0x297A8, symBinAddr: 0x100031C70, symSize: 0x0 }
  - { offsetInCU: 0x8312, offset: 0xAE46C, size: 0x8, addend: 0x0, symName: __ZL6exts_i, symObjAddr: 0x297B0, symBinAddr: 0x100031C78, symSize: 0x0 }
  - { offsetInCU: 0x8331, offset: 0xAE48B, size: 0x8, addend: 0x0, symName: _gladLoadGL, symObjAddr: 0x0, symBinAddr: 0x1000227C0, symSize: 0x40 }
  - { offsetInCU: 0x835B, offset: 0xAE4B5, size: 0x8, addend: 0x0, symName: _gladLoadGLLoader, symObjAddr: 0xD0, symBinAddr: 0x100022890, symSize: 0x130 }
  - { offsetInCU: 0x8386, offset: 0xAE4E0, size: 0x8, addend: 0x0, symName: __ZL8get_procPKc, symObjAddr: 0x200, symBinAddr: 0x1000229C0, symSize: 0x60 }
  - { offsetInCU: 0x83C2, offset: 0xAE51C, size: 0x8, addend: 0x0, symName: __ZL8close_glv, symObjAddr: 0x260, symBinAddr: 0x100022A20, symSize: 0x30 }
  - { offsetInCU: 0x83DC, offset: 0xAE536, size: 0x8, addend: 0x0, symName: __ZL11find_coreGLv, symObjAddr: 0x290, symBinAddr: 0x100022A50, symSize: 0x3C0 }
  - { offsetInCU: 0x8463, offset: 0xAE5BD, size: 0x8, addend: 0x0, symName: __ZL19load_GL_VERSION_1_0PFPvPKcE, symObjAddr: 0x650, symBinAddr: 0x100022E10, symSize: 0x1480 }
  - { offsetInCU: 0x848E, offset: 0xAE5E8, size: 0x8, addend: 0x0, symName: __ZL19load_GL_VERSION_1_1PFPvPKcE, symObjAddr: 0x1AD0, symBinAddr: 0x100024290, symSize: 0x230 }
  - { offsetInCU: 0x84B9, offset: 0xAE613, size: 0x8, addend: 0x0, symName: __ZL19load_GL_VERSION_1_2PFPvPKcE, symObjAddr: 0x1D00, symBinAddr: 0x1000244C0, symSize: 0x70 }
  - { offsetInCU: 0x84E4, offset: 0xAE63E, size: 0x8, addend: 0x0, symName: __ZL19load_GL_VERSION_1_3PFPvPKcE, symObjAddr: 0x1D70, symBinAddr: 0x100024530, symSize: 0x340 }
  - { offsetInCU: 0x850F, offset: 0xAE669, size: 0x8, addend: 0x0, symName: __ZL19load_GL_VERSION_1_4PFPvPKcE, symObjAddr: 0x20B0, symBinAddr: 0x100024870, symSize: 0x350 }
  - { offsetInCU: 0x853A, offset: 0xAE694, size: 0x8, addend: 0x0, symName: __ZL19load_GL_VERSION_1_5PFPvPKcE, symObjAddr: 0x2400, symBinAddr: 0x100024BC0, symSize: 0x170 }
  - { offsetInCU: 0x8565, offset: 0xAE6BF, size: 0x8, addend: 0x0, symName: __ZL19load_GL_VERSION_2_0PFPvPKcE, symObjAddr: 0x2570, symBinAddr: 0x100024D30, symSize: 0x660 }
  - { offsetInCU: 0x8590, offset: 0xAE6EA, size: 0x8, addend: 0x0, symName: __ZL19load_GL_VERSION_2_1PFPvPKcE, symObjAddr: 0x2BD0, symBinAddr: 0x100025390, symSize: 0x90 }
  - { offsetInCU: 0x85BB, offset: 0xAE715, size: 0x8, addend: 0x0, symName: __ZL19load_GL_VERSION_3_0PFPvPKcE, symObjAddr: 0x2C60, symBinAddr: 0x100025420, symSize: 0x5C0 }
  - { offsetInCU: 0x85E6, offset: 0xAE740, size: 0x8, addend: 0x0, symName: __ZL19load_GL_VERSION_3_1PFPvPKcE, symObjAddr: 0x3220, symBinAddr: 0x1000259E0, symSize: 0x130 }
  - { offsetInCU: 0x8611, offset: 0xAE76B, size: 0x8, addend: 0x0, symName: __ZL19load_GL_VERSION_3_2PFPvPKcE, symObjAddr: 0x3350, symBinAddr: 0x100025B10, symSize: 0x170 }
  - { offsetInCU: 0x863C, offset: 0xAE796, size: 0x8, addend: 0x0, symName: __ZL19load_GL_VERSION_3_3PFPvPKcE, symObjAddr: 0x34C0, symBinAddr: 0x100025C80, symSize: 0x400 }
  - { offsetInCU: 0x8667, offset: 0xAE7C1, size: 0x8, addend: 0x0, symName: __ZL17find_extensionsGLv, symObjAddr: 0x38C0, symBinAddr: 0x100026080, symSize: 0x40 }
  - { offsetInCU: 0x8686, offset: 0xAE7E0, size: 0x8, addend: 0x0, symName: __ZL8get_extsv, symObjAddr: 0x3900, symBinAddr: 0x1000260C0, symSize: 0x130 }
  - { offsetInCU: 0x86FF, offset: 0xAE859, size: 0x8, addend: 0x0, symName: __ZL7has_extPKc, symObjAddr: 0x3A30, symBinAddr: 0x1000261F0, symSize: 0x190 }
  - { offsetInCU: 0x87A4, offset: 0xAE8FE, size: 0x8, addend: 0x0, symName: __ZL9free_extsv, symObjAddr: 0x3BC0, symBinAddr: 0x100026380, symSize: 0x70 }
  - { offsetInCU: 0x87DD, offset: 0xAE937, size: 0x8, addend: 0x0, symName: __Z6strstrB7v160006Ua9enable_ifIXLb1EEEPKcS0_, symObjAddr: 0x3C30, symBinAddr: 0x1000263F0, symSize: 0x23 }
  - { offsetInCU: 0x26, offset: 0xAE9B7, size: 0x8, addend: 0x0, symName: _main, symObjAddr: 0x0, symBinAddr: 0x100026420, symSize: 0x72 }
  - { offsetInCU: 0x78A5, offset: 0xB6236, size: 0x8, addend: 0x0, symName: _main, symObjAddr: 0x0, symBinAddr: 0x100026420, symSize: 0x72 }
...
